
pwmled:     file format elf32-littlearm


Disassembly of section .interp:

00010154 <.interp>:
   10154:	62696c2f 	rsbvs	r6, r9, #12032	; 0x2f00
   10158:	2d646c2f 	stclcs	12, cr6, [r4, #-188]!	; 0xffffff44
   1015c:	756e696c 	strbvc	r6, [lr, #-2412]!	; 0xfffff694
   10160:	72612d78 	rsbvc	r2, r1, #120, 26	; 0x1e00
   10164:	2e66686d 	cdpcs	8, 6, cr6, cr6, cr13, {3}
   10168:	332e6f73 			; <UNDEFINED> instruction: 0x332e6f73
	...

Disassembly of section .note.ABI-tag:

00010170 <.note.ABI-tag>:
   10170:	00000004 	andeq	r0, r0, r4
   10174:	00000010 	andeq	r0, r0, r0, lsl r0
   10178:	00000001 	andeq	r0, r0, r1
   1017c:	00554e47 	subseq	r4, r5, r7, asr #28
   10180:	00000000 	andeq	r0, r0, r0
   10184:	00000003 	andeq	r0, r0, r3
   10188:	00000002 	andeq	r0, r0, r2
   1018c:	00000000 	andeq	r0, r0, r0

Disassembly of section .note.gnu.build-id:

00010190 <.note.gnu.build-id>:
   10190:	00000004 	andeq	r0, r0, r4
   10194:	00000014 	andeq	r0, r0, r4, lsl r0
   10198:	00000003 	andeq	r0, r0, r3
   1019c:	00554e47 	subseq	r4, r5, r7, asr #28
   101a0:	190f92bd 	stmdbne	pc, {r0, r2, r3, r4, r5, r7, r9, ip, pc}	; <UNPREDICTABLE>
   101a4:	8c63d9bb 	stclhi	9, cr13, [r3], #-748	; 0xfffffd14
   101a8:	4eebdb3a 	mcrmi	11, 7, sp, cr11, cr10, {1}
   101ac:	e31d6ab2 	tst	sp, #729088	; 0xb2000
   101b0:	c8f01fdb 	ldmgt	r0!, {r0, r1, r3, r4, r6, r7, r8, r9, sl, fp, ip}^

Disassembly of section .gnu.hash:

000101b4 <.gnu.hash>:
   101b4:	00000011 	andeq	r0, r0, r1, lsl r0
   101b8:	00000007 	andeq	r0, r0, r7
   101bc:	00000008 	andeq	r0, r0, r8
   101c0:	00000008 	andeq	r0, r0, r8
   101c4:	40421d9e 	umaalmi	r1, r2, lr, sp
   101c8:	8224c007 	eorhi	ip, r4, #7
   101cc:	0c024082 	stceq	0, cr4, [r2], {130}	; 0x82
   101d0:	21832a00 	orrcs	r2, r3, r0, lsl #20
   101d4:	000c0000 	andeq	r0, ip, r0
   101d8:	00000000 	andeq	r0, r0, r0
   101dc:	12000240 	andne	r0, r0, #64, 4
   101e0:	00041042 	andeq	r1, r4, r2, asr #32
   101e4:	00000007 	andeq	r0, r0, r7
   101e8:	0000000a 	andeq	r0, r0, sl
   101ec:	0000000b 	andeq	r0, r0, fp
   101f0:	0000000c 	andeq	r0, r0, ip
	...
   101fc:	0000000e 	andeq	r0, r0, lr
   10200:	00000014 	andeq	r0, r0, r4, lsl r0
   10204:	00000000 	andeq	r0, r0, r0
   10208:	00000017 	andeq	r0, r0, r7, lsl r0
   1020c:	00000018 	andeq	r0, r0, r8, lsl r0
   10210:	0000001a 	andeq	r0, r0, sl, lsl r0
   10214:	00000000 	andeq	r0, r0, r0
   10218:	0000001b 	andeq	r0, r0, fp, lsl r0
	...
   10224:	0000001d 	andeq	r0, r0, sp, lsl r0
   10228:	2e4bc6e0 	cdpcs	6, 4, cr12, cr11, cr0, {7}
   1022c:	0f750146 	svceq	0x00750146
   10230:	ff87a407 			; <UNDEFINED> instruction: 0xff87a407
   10234:	7c9bd777 	ldcvc	7, cr13, [fp], {119}	; 0x77
   10238:	e311ee51 	tst	r1, #1296	; 0x510
   1023c:	0f738b7c 	svceq	0x00738b7c
   10240:	0f11ed7d 	svceq	0x0011ed7d
   10244:	7c9ab170 	ldfvcd	f3, [sl], {112}	; 0x70
   10248:	f51166dc 			; <UNDEFINED> instruction: 0xf51166dc
   1024c:	f07392ec 			; <UNDEFINED> instruction: 0xf07392ec
   10250:	b66b4978 			; <UNDEFINED> instruction: 0xb66b4978
   10254:	f63d4e2e 			; <UNDEFINED> instruction: 0xf63d4e2e
   10258:	b4ebe20b 	strbtlt	lr, [fp], #523	; 0x20b
   1025c:	1c8bf238 	sfmne	f7, 1, [fp], {56}	; 0x38
   10260:	38f33f34 	ldmcc	r3!, {r2, r4, r5, r8, r9, sl, fp, ip, sp}^
   10264:	a4f92301 	ldrbtge	r2, [r9], #769	; 0x301
   10268:	fd09cf21 	stc2	15, cr12, [r9, #-132]	; 0xffffff7c
   1026c:	105cf61e 	subsne	pc, ip, lr, lsl r6	; <UNPREDICTABLE>
   10270:	0ea4b293 	mcreq	2, 5, fp, cr4, cr3, {4}
   10274:	8ff9ac09 	svchi	0x00f9ac09
   10278:	0f3b9a5a 	svceq	0x003b9a5a
   1027c:	1f4039c9 	svcne	0x004039c9
   10280:	07646220 	strbeq	r6, [r4, -r0, lsr #4]!
   10284:	a357710b 	cmpge	r7, #-1073741822	; 0xc0000002

Disassembly of section .dynsym:

00010288 <.dynsym>:
	...
   10298:	0000001f 	andeq	r0, r0, pc, lsl r0
	...
   102a4:	00000020 	andeq	r0, r0, r0, lsr #32
   102a8:	000000b5 	strheq	r0, [r0], -r5
	...
   102b4:	00000012 	andeq	r0, r0, r2, lsl r0
   102b8:	00000033 	andeq	r0, r0, r3, lsr r0
	...
   102c4:	00000020 	andeq	r0, r0, r0, lsr #32
   102c8:	0000009e 	muleq	r0, lr, r0
	...
   102d4:	00000012 	andeq	r0, r0, r2, lsl r0
   102d8:	00000010 	andeq	r0, r0, r0, lsl r0
	...
   102e4:	00000020 	andeq	r0, r0, r0, lsr #32
   102e8:	0000004f 	andeq	r0, r0, pc, asr #32
	...
   102f4:	00000020 	andeq	r0, r0, r0, lsr #32
   102f8:	000000f7 	strdeq	r0, [r0], -r7
	...
   10304:	00000012 	andeq	r0, r0, r2, lsl r0
   10308:	00000167 	andeq	r0, r0, r7, ror #2
	...
   10314:	00000012 	andeq	r0, r0, r2, lsl r0
   10318:	00000160 	andeq	r0, r0, r0, ror #2
	...
   10324:	00000012 	andeq	r0, r0, r2, lsl r0
   10328:	000000f2 	strdeq	r0, [r0], -r2
	...
   10334:	00000012 	andeq	r0, r0, r2, lsl r0
   10338:	0000013d 	andeq	r0, r0, sp, lsr r1
	...
   10344:	00000012 	andeq	r0, r0, r2, lsl r0
   10348:	000000f1 	strdeq	r0, [r0], -r1
	...
   10354:	00000012 	andeq	r0, r0, r2, lsl r0
   10358:	00000121 	andeq	r0, r0, r1, lsr #2
	...
   10364:	00000012 	andeq	r0, r0, r2, lsl r0
   10368:	00000127 	andeq	r0, r0, r7, lsr #2
	...
   10374:	00000012 	andeq	r0, r0, r2, lsl r0
   10378:	0000007e 	andeq	r0, r0, lr, ror r0
	...
   10384:	00000012 	andeq	r0, r0, r2, lsl r0
   10388:	0000016d 	andeq	r0, r0, sp, ror #2
	...
   10394:	00000012 	andeq	r0, r0, r2, lsl r0
   10398:	00000069 	andeq	r0, r0, r9, rrx
	...
   103a4:	00000012 	andeq	r0, r0, r2, lsl r0
   103a8:	0000017e 	andeq	r0, r0, lr, ror r1
	...
   103b4:	00000012 	andeq	r0, r0, r2, lsl r0
   103b8:	000000e4 	andeq	r0, r0, r4, ror #1
	...
   103c4:	00000012 	andeq	r0, r0, r2, lsl r0
   103c8:	00000152 	andeq	r0, r0, r2, asr r1
   103cc:	000240b8 	strheq	r4, [r2], -r8
   103d0:	00000004 	andeq	r0, r0, r4
   103d4:	00190011 	andseq	r0, r9, r1, lsl r0
   103d8:	000000cc 	andeq	r0, r0, ip, asr #1
	...
   103e4:	00000012 	andeq	r0, r0, r2, lsl r0
   103e8:	0000012c 	andeq	r0, r0, ip, lsr #2
	...
   103f4:	00000012 	andeq	r0, r0, r2, lsl r0
   103f8:	0000014b 	andeq	r0, r0, fp, asr #2
	...
   10404:	00000012 	andeq	r0, r0, r2, lsl r0
   10408:	0000010a 	andeq	r0, r0, sl, lsl #2
	...
   10414:	00000012 	andeq	r0, r0, r2, lsl r0
   10418:	00000159 	andeq	r0, r0, r9, asr r1
	...
   10424:	00000012 	andeq	r0, r0, r2, lsl r0
   10428:	00000175 	andeq	r0, r0, r5, ror r1
	...
   10434:	00000012 	andeq	r0, r0, r2, lsl r0
   10438:	0000014c 	andeq	r0, r0, ip, asr #2
	...
   10444:	00000012 	andeq	r0, r0, r2, lsl r0
   10448:	00000110 	andeq	r0, r0, r0, lsl r1
	...
   10454:	00000012 	andeq	r0, r0, r2, lsl r0
   10458:	000001a4 	andeq	r0, r0, r4, lsr #3
   1045c:	000240b0 	strheq	r4, [r2], -r0
   10460:	00000004 	andeq	r0, r0, r4
   10464:	00190011 	andseq	r0, r9, r1, lsl r0
   10468:	00000106 	andeq	r0, r0, r6, lsl #2
	...
   10474:	00000012 	andeq	r0, r0, r2, lsl r0

Disassembly of section .dynstr:

00010478 <.dynstr>:
   10478:	62696c00 	rsbvs	r6, r9, #0, 24
   1047c:	63647473 	cmnvs	r4, #1929379840	; 0x73000000
   10480:	732e2b2b 			; <UNDEFINED> instruction: 0x732e2b2b
   10484:	00362e6f 	eorseq	r2, r6, pc, ror #28
   10488:	6d675f5f 	stclvs	15, cr5, [r7, #-380]!	; 0xfffffe84
   1048c:	735f6e6f 	cmpvc	pc, #1776	; 0x6f0
   10490:	74726174 	ldrbtvc	r6, [r2], #-372	; 0xfffffe8c
   10494:	5f005f5f 	svcpl	0x00005f5f
   10498:	525f764a 	subspl	r7, pc, #77594624	; 0x4a00000
   1049c:	73696765 	cmnvc	r9, #26476544	; 0x1940000
   104a0:	43726574 	cmnmi	r2, #116, 10	; 0x1d000000
   104a4:	7373616c 	cmnvc	r3, #108, 2
   104a8:	5f007365 	svcpl	0x00007365
   104ac:	5f4d5449 	svcpl	0x004d5449
   104b0:	65726564 	ldrbvs	r6, [r2, #-1380]!	; 0xfffffa9c
   104b4:	74736967 	ldrbtvc	r6, [r3], #-2407	; 0xfffff699
   104b8:	4d547265 	lfmmi	f7, 2, [r4, #-404]	; 0xfffffe6c
   104bc:	6e6f6c43 	cdpvs	12, 6, cr6, cr15, cr3, {2}
   104c0:	62615465 	rsbvs	r5, r1, #1694498816	; 0x65000000
   104c4:	5f00656c 	svcpl	0x0000656c
   104c8:	5f4d5449 	svcpl	0x004d5449
   104cc:	69676572 	stmdbvs	r7!, {r1, r4, r5, r6, r8, sl, sp, lr}^
   104d0:	72657473 	rsbvc	r7, r5, #1929379840	; 0x73000000
   104d4:	6c434d54 	mcrrvs	13, 5, r4, r3, cr4
   104d8:	54656e6f 	strbtpl	r6, [r5], #-3695	; 0xfffff191
   104dc:	656c6261 	strbvs	r6, [ip, #-609]!	; 0xfffffd9f
   104e0:	675f5f00 	ldrbvs	r5, [pc, -r0, lsl #30]
   104e4:	705f7878 	subsvc	r7, pc, r8, ror r8	; <UNPREDICTABLE>
   104e8:	6f737265 	svcvs	0x00737265
   104ec:	696c616e 	stmdbvs	ip!, {r1, r2, r3, r5, r6, r8, sp, lr}^
   104f0:	765f7974 			; <UNDEFINED> instruction: 0x765f7974
   104f4:	5f5f0030 	svcpl	0x005f0030
   104f8:	5f617863 	svcpl	0x00617863
   104fc:	5f646e65 	svcpl	0x00646e65
   10500:	61656c63 	cmnvs	r5, r3, ror #24
   10504:	0070756e 	rsbseq	r7, r0, lr, ror #10
   10508:	6762696c 	strbvs	r6, [r2, -ip, ror #18]!
   1050c:	735f6363 	cmpvc	pc, #-1946157055	; 0x8c000001
   10510:	2e6f732e 	cdpcs	3, 6, cr7, cr15, cr14, {1}
   10514:	5f5f0031 	svcpl	0x005f0031
   10518:	62616561 	rsbvs	r6, r1, #406847488	; 0x18400000
   1051c:	6e755f69 	cdpvs	15, 7, cr5, cr5, cr9, {3}
   10520:	646e6977 	strbtvs	r6, [lr], #-2423	; 0xfffff689
   10524:	7070635f 	rsbsvc	r6, r0, pc, asr r3
   10528:	3072705f 	rsbscc	r7, r2, pc, asr r0
   1052c:	615f5f00 	cmpvs	pc, r0, lsl #30
   10530:	69626165 	stmdbvs	r2!, {r0, r2, r5, r6, r8, sp, lr}^
   10534:	776e755f 			; <UNDEFINED> instruction: 0x776e755f
   10538:	5f646e69 	svcpl	0x00646e69
   1053c:	5f707063 	svcpl	0x00707063
   10540:	00317270 	eorseq	r7, r1, r0, ror r2
   10544:	65615f5f 	strbvs	r5, [r1, #-3935]!	; 0xfffff0a1
   10548:	5f696261 	svcpl	0x00696261
   1054c:	69646975 	stmdbvs	r4!, {r0, r2, r4, r5, r6, r8, fp, sp, lr}^
   10550:	696c0076 	stmdbvs	ip!, {r1, r2, r4, r5, r6}^
   10554:	732e6362 			; <UNDEFINED> instruction: 0x732e6362
   10558:	00362e6f 	eorseq	r2, r6, pc, ror #28
   1055c:	72705f5f 	rsbsvc	r5, r0, #380	; 0x17c
   10560:	66746e69 	ldrbtvs	r6, [r4], -r9, ror #28
   10564:	6b68635f 	blvs	1a292e8 <__bss_end__+0x1a0521c>
   10568:	706f6600 	rsbvc	r6, pc, r0, lsl #12
   1056c:	70006e65 	andvc	r6, r0, r5, ror #28
   10570:	7869736f 	stmdavc	r9!, {r0, r1, r2, r3, r5, r6, r8, r9, ip, sp, lr}^
   10574:	6d656d5f 	stclvs	13, cr6, [r5, #-380]!	; 0xfffffe84
   10578:	67696c61 	strbvs	r6, [r9, -r1, ror #24]!
   1057c:	616e006e 	cmnvs	lr, lr, rrx
   10580:	6c736f6e 	ldclvs	15, cr6, [r3], #-440	; 0xfffffe48
   10584:	00706565 	rsbseq	r6, r0, r5, ror #10
   10588:	74735f5f 	ldrbtvc	r5, [r3], #-3935	; 0xfffff0a1
   1058c:	5f6b6361 	svcpl	0x006b6361
   10590:	5f6b6863 	svcpl	0x006b6863
   10594:	6c696166 	stfvse	f6, [r9], #-408	; 0xfffffe68
   10598:	6f626100 	svcvs	0x00626100
   1059c:	6d007472 	cfstrsvs	mvf7, [r0, #-456]	; 0xfffffe38
   105a0:	0070616d 	rsbseq	r6, r0, sp, ror #2
   105a4:	72655f5f 	rsbvc	r5, r5, #380	; 0x17c
   105a8:	5f6f6e72 	svcpl	0x006f6e72
   105ac:	61636f6c 	cmnvs	r3, ip, ror #30
   105b0:	6e6f6974 	mcrvs	9, 3, r6, cr15, cr4, {3}
   105b4:	665f5f00 	ldrbvs	r5, [pc], -r0, lsl #30
   105b8:	6e697270 	mcrvs	2, 3, r7, cr9, cr0, {3}
   105bc:	635f6674 	cmpvs	pc, #116, 12	; 0x7400000
   105c0:	66006b68 	strvs	r6, [r0], -r8, ror #22
   105c4:	736f6c63 	cmnvc	pc, #25344	; 0x6300
   105c8:	74730065 	ldrbtvc	r0, [r3], #-101	; 0xffffff9b
   105cc:	72726564 	rsbsvc	r6, r2, #100, 10	; 0x19000000
   105d0:	6e756d00 	cdpvs	13, 7, cr6, cr5, cr0, {0}
   105d4:	0070616d 	rsbseq	r6, r0, sp, ror #2
   105d8:	75746567 	ldrbvc	r6, [r4, #-1383]!	; 0xfffffa99
   105dc:	66006469 	strvs	r6, [r0], -r9, ror #8
   105e0:	64616572 	strbtvs	r6, [r1], #-1394	; 0xfffffa8e
   105e4:	74656700 	strbtvc	r6, [r5], #-1792	; 0xfffff900
   105e8:	64697565 	strbtvs	r7, [r9], #-1381	; 0xfffffa9b
   105ec:	72747300 	rsbsvc	r7, r4, #0, 6
   105f0:	6f727265 	svcvs	0x00727265
   105f4:	5f5f0072 	svcpl	0x005f0072
   105f8:	6362696c 	cmnvs	r2, #108, 18	; 0x1b0000
   105fc:	6174735f 	cmnvs	r4, pc, asr r3
   10600:	6d5f7472 	cfldrdvs	mvd7, [pc, #-456]	; 10440 <_init-0x39c>
   10604:	006e6961 	rsbeq	r6, lr, r1, ror #18
   10608:	6c2d646c 	cfstrsvs	mvf6, [sp], #-432	; 0xfffffe50
   1060c:	78756e69 	ldmdavc	r5!, {r0, r3, r5, r6, r9, sl, fp, sp, lr}^
   10610:	6d72612d 	ldfvse	f6, [r2, #-180]!	; 0xffffff4c
   10614:	732e6668 			; <UNDEFINED> instruction: 0x732e6668
   10618:	00332e6f 	eorseq	r2, r3, pc, ror #28
   1061c:	74735f5f 	ldrbtvc	r5, [r3], #-3935	; 0xfffff0a1
   10620:	5f6b6361 	svcpl	0x006b6361
   10624:	5f6b6863 	svcpl	0x006b6863
   10628:	72617567 	rsbvc	r7, r1, #432013312	; 0x19c00000
   1062c:	43470064 	movtmi	r0, #28772	; 0x7064
   10630:	2e335f43 	cdpcs	15, 3, cr5, cr3, cr3, {2}
   10634:	58430035 	stmdapl	r3, {r0, r2, r4, r5}^
   10638:	49424158 	stmdbmi	r2, {r3, r4, r6, r8, lr}^
   1063c:	332e315f 			; <UNDEFINED> instruction: 0x332e315f
   10640:	494c4700 	stmdbmi	ip, {r8, r9, sl, lr}^
   10644:	325f4342 	subscc	r4, pc, #134217729	; 0x8000001
   10648:	Address 0x00010648 is out of bounds.


Disassembly of section .gnu.version:

0001064c <.gnu.version>:
   1064c:	00000000 	andeq	r0, r0, r0
   10650:	00000005 	andeq	r0, r0, r5
   10654:	00000005 	andeq	r0, r0, r5
   10658:	00020000 	andeq	r0, r2, r0
   1065c:	00020002 	andeq	r0, r2, r2
   10660:	00020002 	andeq	r0, r2, r2
   10664:	00020002 	andeq	r0, r2, r2
   10668:	00040002 	andeq	r0, r4, r2
   1066c:	00040002 	andeq	r0, r4, r2
   10670:	00020002 	andeq	r0, r2, r2
   10674:	00050002 	andeq	r0, r5, r2
   10678:	00020002 	andeq	r0, r2, r2
   1067c:	00020002 	andeq	r0, r2, r2
   10680:	00020002 	andeq	r0, r2, r2
   10684:	00030002 	andeq	r0, r3, r2
   10688:	Address 0x00010688 is out of bounds.


Disassembly of section .gnu.version_r:

0001068c <.gnu.version_r>:
   1068c:	00010001 	andeq	r0, r1, r1
   10690:	00000090 	muleq	r0, r0, r0
   10694:	00000010 	andeq	r0, r0, r0, lsl r0
   10698:	00000020 	andeq	r0, r0, r0, lsr #32
   1069c:	0b792655 	bleq	1e59ff8 <__bss_end__+0x1e35f2c>
   106a0:	00050000 	andeq	r0, r5, r0
   106a4:	000001b6 			; <UNDEFINED> instruction: 0x000001b6
   106a8:	00000000 	andeq	r0, r0, r0
   106ac:	00010001 	andeq	r0, r1, r1
   106b0:	00000001 	andeq	r0, r0, r1
   106b4:	00000010 	andeq	r0, r0, r0, lsl r0
   106b8:	00000020 	andeq	r0, r0, r0, lsr #32
   106bc:	056bafd3 	strbeq	sl, [fp, #-4051]!	; 0xfffff02d
   106c0:	00040000 	andeq	r0, r4, r0
   106c4:	000001be 			; <UNDEFINED> instruction: 0x000001be
   106c8:	00000000 	andeq	r0, r0, r0
   106cc:	00010001 	andeq	r0, r1, r1
   106d0:	00000190 	muleq	r0, r0, r1
   106d4:	00000010 	andeq	r0, r0, r0, lsl r0
   106d8:	00000020 	andeq	r0, r0, r0, lsr #32
   106dc:	0d696914 	stcleq	9, cr6, [r9, #-80]!	; 0xffffffb0
   106e0:	00030000 	andeq	r0, r3, r0
   106e4:	000001c9 	andeq	r0, r0, r9, asr #3
   106e8:	00000000 	andeq	r0, r0, r0
   106ec:	00010001 	andeq	r0, r1, r1
   106f0:	000000da 	ldrdeq	r0, [r0], -sl
   106f4:	00000010 	andeq	r0, r0, r0, lsl r0
   106f8:	00000000 	andeq	r0, r0, r0
   106fc:	0d696914 	stcleq	9, cr6, [r9, #-80]!	; 0xffffffb0
   10700:	00020000 	andeq	r0, r2, r0
   10704:	000001c9 	andeq	r0, r0, r9, asr #3
   10708:	00000000 	andeq	r0, r0, r0

Disassembly of section .rel.dyn:

0001070c <.rel.dyn>:
   1070c:	00024068 	andeq	r4, r2, r8, rrx
   10710:	00000515 	andeq	r0, r0, r5, lsl r5
   10714:	000240b0 	strheq	r4, [r2], -r0
   10718:	00001d14 	andeq	r1, r0, r4, lsl sp
   1071c:	000240b8 	strheq	r4, [r2], -r8
   10720:	00001414 	andeq	r1, r0, r4, lsl r4

Disassembly of section .rel.plt:

00010724 <.rel.plt>:
   10724:	0002400c 	andeq	r4, r2, ip
   10728:	00000716 	andeq	r0, r0, r6, lsl r7
   1072c:	00024010 	andeq	r4, r2, r0, lsl r0
   10730:	00001a16 	andeq	r1, r0, r6, lsl sl
   10734:	00024014 	andeq	r4, r2, r4, lsl r0
   10738:	00000b16 	andeq	r0, r0, r6, lsl fp
   1073c:	00024018 	andeq	r4, r2, r8, lsl r0
   10740:	00001e16 	andeq	r1, r0, r6, lsl lr
   10744:	0002401c 	andeq	r4, r2, ip, lsl r0
   10748:	00001b16 	andeq	r1, r0, r6, lsl fp
   1074c:	00024020 	andeq	r4, r2, r0, lsr #32
   10750:	00000c16 	andeq	r0, r0, r6, lsl ip
   10754:	00024024 	andeq	r4, r2, r4, lsr #32
   10758:	00000d16 	andeq	r0, r0, r6, lsl sp
   1075c:	00024028 	andeq	r4, r2, r8, lsr #32
   10760:	00000e16 	andeq	r0, r0, r6, lsl lr
   10764:	0002402c 	andeq	r4, r2, ip, lsr #32
   10768:	00000a16 	andeq	r0, r0, r6, lsl sl
   1076c:	00024030 	andeq	r4, r2, r0, lsr r0
   10770:	00000816 	andeq	r0, r0, r6, lsl r8
   10774:	00024034 	andeq	r4, r2, r4, lsr r0
   10778:	00001c16 	andeq	r1, r0, r6, lsl ip
   1077c:	00024038 	andeq	r4, r2, r8, lsr r0
   10780:	00000f16 	andeq	r0, r0, r6, lsl pc
   10784:	0002403c 	andeq	r4, r2, ip, lsr r0
   10788:	00001816 	andeq	r1, r0, r6, lsl r8
   1078c:	00024040 	andeq	r4, r2, r0, asr #32
   10790:	00000916 	andeq	r0, r0, r6, lsl r9
   10794:	00024044 	andeq	r4, r2, r4, asr #32
   10798:	00001516 	andeq	r1, r0, r6, lsl r5
   1079c:	00024048 	andeq	r4, r2, r8, asr #32
   107a0:	00001016 	andeq	r1, r0, r6, lsl r0
   107a4:	0002404c 	andeq	r4, r2, ip, asr #32
   107a8:	00001916 	andeq	r1, r0, r6, lsl r9
   107ac:	00024050 	andeq	r4, r2, r0, asr r0
   107b0:	00001716 	andeq	r1, r0, r6, lsl r7
   107b4:	00024054 	andeq	r4, r2, r4, asr r0
   107b8:	00001116 	andeq	r1, r0, r6, lsl r1
   107bc:	00024058 	andeq	r4, r2, r8, asr r0
   107c0:	00001616 	andeq	r1, r0, r6, lsl r6
   107c4:	0002405c 	andeq	r4, r2, ip, asr r0
   107c8:	00001216 	andeq	r1, r0, r6, lsl r2
   107cc:	00024060 	andeq	r4, r2, r0, rrx
   107d0:	00000516 	andeq	r0, r0, r6, lsl r5
   107d4:	00024064 	andeq	r4, r2, r4, rrx
   107d8:	00001316 	andeq	r1, r0, r6, lsl r3

Disassembly of section .init:

000107dc <_init>:
   107dc:	e92d4008 	push	{r3, lr}
   107e0:	eb0000e4 	bl	10b78 <call_weak_fn>
   107e4:	e8bd8008 	pop	{r3, pc}

Disassembly of section .plt:

000107e8 <posix_memalign@plt-0x14>:
   107e8:	e52de004 	push	{lr}		; (str lr, [sp, #-4]!)
   107ec:	e59fe004 	ldr	lr, [pc, #4]	; 107f8 <_init+0x1c>
   107f0:	e08fe00e 	add	lr, pc, lr
   107f4:	e5bef008 	ldr	pc, [lr, #8]!
   107f8:	00013808 	andeq	r3, r1, r8, lsl #16

000107fc <posix_memalign@plt>:
   107fc:	e28fc600 	add	ip, pc, #0, 12
   10800:	e28cca13 	add	ip, ip, #77824	; 0x13000
   10804:	e5bcf808 	ldr	pc, [ip, #2056]!	; 0x808

00010808 <strerror@plt>:
   10808:	e28fc600 	add	ip, pc, #0, 12
   1080c:	e28cca13 	add	ip, ip, #77824	; 0x13000
   10810:	e5bcf800 	ldr	pc, [ip, #2048]!	; 0x800

00010814 <__fprintf_chk@plt>:
   10814:	e28fc600 	add	ip, pc, #0, 12
   10818:	e28cca13 	add	ip, ip, #77824	; 0x13000
   1081c:	e5bcf7f8 	ldr	pc, [ip, #2040]!	; 0x7f8

00010820 <nanosleep@plt>:
   10820:	e28fc600 	add	ip, pc, #0, 12
   10824:	e28cca13 	add	ip, ip, #77824	; 0x13000
   10828:	e5bcf7f0 	ldr	pc, [ip, #2032]!	; 0x7f0

0001082c <close@plt>:
   1082c:	e28fc600 	add	ip, pc, #0, 12
   10830:	e28cca13 	add	ip, ip, #77824	; 0x13000
   10834:	e5bcf7e8 	ldr	pc, [ip, #2024]!	; 0x7e8

00010838 <fopen@plt>:
   10838:	e28fc600 	add	ip, pc, #0, 12
   1083c:	e28cca13 	add	ip, ip, #77824	; 0x13000
   10840:	e5bcf7e0 	ldr	pc, [ip, #2016]!	; 0x7e0

00010844 <abort@plt>:
   10844:	e28fc600 	add	ip, pc, #0, 12
   10848:	e28cca13 	add	ip, ip, #77824	; 0x13000
   1084c:	e5bcf7d8 	ldr	pc, [ip, #2008]!	; 0x7d8

00010850 <mmap@plt>:
   10850:	e28fc600 	add	ip, pc, #0, 12
   10854:	e28cca13 	add	ip, ip, #77824	; 0x13000
   10858:	e5bcf7d0 	ldr	pc, [ip, #2000]!	; 0x7d0

0001085c <open@plt>:
   1085c:	e28fc600 	add	ip, pc, #0, 12
   10860:	e28cca13 	add	ip, ip, #77824	; 0x13000
   10864:	e5bcf7c8 	ldr	pc, [ip, #1992]!	; 0x7c8

00010868 <fread@plt>:
   10868:	e28fc600 	add	ip, pc, #0, 12
   1086c:	e28cca13 	add	ip, ip, #77824	; 0x13000
   10870:	e5bcf7c0 	ldr	pc, [ip, #1984]!	; 0x7c0

00010874 <__stack_chk_fail@plt>:
   10874:	e28fc600 	add	ip, pc, #0, 12
   10878:	e28cca13 	add	ip, ip, #77824	; 0x13000
   1087c:	e5bcf7b8 	ldr	pc, [ip, #1976]!	; 0x7b8

00010880 <__cxa_end_cleanup@plt>:
   10880:	e28fc600 	add	ip, pc, #0, 12
   10884:	e28cca13 	add	ip, ip, #77824	; 0x13000
   10888:	e5bcf7b0 	ldr	pc, [ip, #1968]!	; 0x7b0

0001088c <sleep@plt>:
   1088c:	e28fc600 	add	ip, pc, #0, 12
   10890:	e28cca13 	add	ip, ip, #77824	; 0x13000
   10894:	e5bcf7a8 	ldr	pc, [ip, #1960]!	; 0x7a8

00010898 <getuid@plt>:
   10898:	e28fc600 	add	ip, pc, #0, 12
   1089c:	e28cca13 	add	ip, ip, #77824	; 0x13000
   108a0:	e5bcf7a0 	ldr	pc, [ip, #1952]!	; 0x7a0

000108a4 <__aeabi_uidiv@plt>:
   108a4:	e28fc600 	add	ip, pc, #0, 12
   108a8:	e28cca13 	add	ip, ip, #77824	; 0x13000
   108ac:	e5bcf798 	ldr	pc, [ip, #1944]!	; 0x798

000108b0 <geteuid@plt>:
   108b0:	e28fc600 	add	ip, pc, #0, 12
   108b4:	e28cca13 	add	ip, ip, #77824	; 0x13000
   108b8:	e5bcf790 	ldr	pc, [ip, #1936]!	; 0x790

000108bc <munmap@plt>:
   108bc:	e28fc600 	add	ip, pc, #0, 12
   108c0:	e28cca13 	add	ip, ip, #77824	; 0x13000
   108c4:	e5bcf788 	ldr	pc, [ip, #1928]!	; 0x788

000108c8 <fclose@plt>:
   108c8:	e28fc600 	add	ip, pc, #0, 12
   108cc:	e28cca13 	add	ip, ip, #77824	; 0x13000
   108d0:	e5bcf780 	ldr	pc, [ip, #1920]!	; 0x780

000108d4 <__gxx_personality_v0@plt>:
   108d4:	e28fc600 	add	ip, pc, #0, 12
   108d8:	e28cca13 	add	ip, ip, #77824	; 0x13000
   108dc:	e5bcf778 	ldr	pc, [ip, #1912]!	; 0x778

000108e0 <__errno_location@plt>:
   108e0:	e28fc600 	add	ip, pc, #0, 12
   108e4:	e28cca13 	add	ip, ip, #77824	; 0x13000
   108e8:	e5bcf770 	ldr	pc, [ip, #1904]!	; 0x770

000108ec <__libc_start_main@plt>:
   108ec:	e28fc600 	add	ip, pc, #0, 12
   108f0:	e28cca13 	add	ip, ip, #77824	; 0x13000
   108f4:	e5bcf768 	ldr	pc, [ip, #1896]!	; 0x768

000108f8 <__gmon_start__@plt>:
   108f8:	e28fc600 	add	ip, pc, #0, 12
   108fc:	e28cca13 	add	ip, ip, #77824	; 0x13000
   10900:	e5bcf760 	ldr	pc, [ip, #1888]!	; 0x760

00010904 <__printf_chk@plt>:
   10904:	4778      	bx	pc
   10906:	46c0      	nop			; (mov r8, r8)
   10908:	e28fc600 	add	ip, pc, #0, 12
   1090c:	e28cca13 	add	ip, ip, #77824	; 0x13000
   10910:	e5bcf754 	ldr	pc, [ip, #1876]!	; 0x754

Disassembly of section .text:

00010914 <main>:
   10914:	b5f0      	push	{r4, r5, r6, r7, lr}
   10916:	f244 04b0 	movw	r4, #16560	; 0x40b0
   1091a:	f2c0 0402 	movt	r4, #2
   1091e:	b08f      	sub	sp, #60	; 0x3c
   10920:	6823      	ldr	r3, [r4, #0]
   10922:	930d      	str	r3, [sp, #52]	; 0x34
   10924:	f7ff efb8 	blx	10898 <getuid@plt>
   10928:	b9b8      	cbnz	r0, 1095a <main+0x46>
   1092a:	f002 f8e7 	bl	12afc <bcm2835_init>
   1092e:	2801      	cmp	r0, #1
   10930:	d027      	beq.n	10982 <main+0x6e>
   10932:	f244 03b8 	movw	r3, #16568	; 0x40b8
   10936:	f2c0 0302 	movt	r3, #2
   1093a:	f642 52f4 	movw	r2, #11764	; 0x2df4
   1093e:	2101      	movs	r1, #1
   10940:	6818      	ldr	r0, [r3, #0]
   10942:	f2c0 0201 	movt	r2, #1
   10946:	f7ff ef66 	blx	10814 <__fprintf_chk@plt>
   1094a:	9a0d      	ldr	r2, [sp, #52]	; 0x34
   1094c:	6823      	ldr	r3, [r4, #0]
   1094e:	f06f 0001 	mvn.w	r0, #1
   10952:	429a      	cmp	r2, r3
   10954:	d113      	bne.n	1097e <main+0x6a>
   10956:	b00f      	add	sp, #60	; 0x3c
   10958:	bdf0      	pop	{r4, r5, r6, r7, pc}
   1095a:	f244 03b8 	movw	r3, #16568	; 0x40b8
   1095e:	f2c0 0302 	movt	r3, #2
   10962:	f642 52c8 	movw	r2, #11720	; 0x2dc8
   10966:	2101      	movs	r1, #1
   10968:	6818      	ldr	r0, [r3, #0]
   1096a:	f2c0 0201 	movt	r2, #1
   1096e:	f7ff ef52 	blx	10814 <__fprintf_chk@plt>
   10972:	9a0d      	ldr	r2, [sp, #52]	; 0x34
   10974:	6823      	ldr	r3, [r4, #0]
   10976:	f04f 30ff 	mov.w	r0, #4294967295
   1097a:	429a      	cmp	r2, r3
   1097c:	d0eb      	beq.n	10956 <main+0x42>
   1097e:	f7ff ef7a 	blx	10874 <__stack_chk_fail@plt>
   10982:	2140      	movs	r1, #64	; 0x40
   10984:	4668      	mov	r0, sp
   10986:	f000 f94f 	bl	10c28 <PCA9685PWMLed::PCA9685PWMLed(unsigned char)>
   1098a:	4668      	mov	r0, sp
   1098c:	f000 fa42 	bl	10e14 <PCA9685::Dump()>
   10990:	f44f 45ca 	mov.w	r5, #25856	; 0x6500
   10994:	f6c1 55cd 	movt	r5, #7629	; 0x1dcd
   10998:	2405      	movs	r4, #5
   1099a:	2201      	movs	r2, #1
   1099c:	2110      	movs	r1, #16
   1099e:	4668      	mov	r0, sp
   109a0:	f000 fb58 	bl	11054 <PCA9685::SetFullOn(unsigned char, bool)>
   109a4:	4668      	mov	r0, sp
   109a6:	f000 fa35 	bl	10e14 <PCA9685::Dump()>
   109aa:	2300      	movs	r3, #0
   109ac:	a801      	add	r0, sp, #4
   109ae:	4619      	mov	r1, r3
   109b0:	9502      	str	r5, [sp, #8]
   109b2:	9301      	str	r3, [sp, #4]
   109b4:	f7ff ef34 	blx	10820 <nanosleep@plt>
   109b8:	2201      	movs	r2, #1
   109ba:	2110      	movs	r1, #16
   109bc:	4668      	mov	r0, sp
   109be:	f000 fb2f 	bl	11020 <PCA9685::SetFullOff(unsigned char, bool)>
   109c2:	4668      	mov	r0, sp
   109c4:	f000 fa26 	bl	10e14 <PCA9685::Dump()>
   109c8:	2300      	movs	r3, #0
   109ca:	a803      	add	r0, sp, #12
   109cc:	4619      	mov	r1, r3
   109ce:	9504      	str	r5, [sp, #16]
   109d0:	9303      	str	r3, [sp, #12]
   109d2:	f7ff ef26 	blx	10820 <nanosleep@plt>
   109d6:	3c01      	subs	r4, #1
   109d8:	d1df      	bne.n	1099a <main+0x86>
   109da:	4622      	mov	r2, r4
   109dc:	2110      	movs	r1, #16
   109de:	4668      	mov	r0, sp
   109e0:	f000 f938 	bl	10c54 <PCA9685PWMLed::Set(unsigned char, unsigned short)>
   109e4:	f44f 45ca 	mov.w	r5, #25856	; 0x6500
   109e8:	f6c1 55cd 	movt	r5, #7629	; 0x1dcd
   109ec:	2405      	movs	r4, #5
   109ee:	2600      	movs	r6, #0
   109f0:	2200      	movs	r2, #0
   109f2:	4668      	mov	r0, sp
   109f4:	4611      	mov	r1, r2
   109f6:	f000 f92d 	bl	10c54 <PCA9685PWMLed::Set(unsigned char, unsigned short)>
   109fa:	4668      	mov	r0, sp
   109fc:	f000 fa0a 	bl	10e14 <PCA9685::Dump()>
   10a00:	2100      	movs	r1, #0
   10a02:	a805      	add	r0, sp, #20
   10a04:	9605      	str	r6, [sp, #20]
   10a06:	9506      	str	r5, [sp, #24]
   10a08:	f7ff ef0a 	blx	10820 <nanosleep@plt>
   10a0c:	f44f 5280 	mov.w	r2, #4096	; 0x1000
   10a10:	2100      	movs	r1, #0
   10a12:	4668      	mov	r0, sp
   10a14:	f000 f91e 	bl	10c54 <PCA9685PWMLed::Set(unsigned char, unsigned short)>
   10a18:	4668      	mov	r0, sp
   10a1a:	f000 f9fb 	bl	10e14 <PCA9685::Dump()>
   10a1e:	2100      	movs	r1, #0
   10a20:	a807      	add	r0, sp, #28
   10a22:	9607      	str	r6, [sp, #28]
   10a24:	9508      	str	r5, [sp, #32]
   10a26:	f7ff eefc 	blx	10820 <nanosleep@plt>
   10a2a:	3c01      	subs	r4, #1
   10a2c:	d1e0      	bne.n	109f0 <main+0xdc>
   10a2e:	4622      	mov	r2, r4
   10a30:	2110      	movs	r1, #16
   10a32:	4668      	mov	r0, sp
   10a34:	f000 f90e 	bl	10c54 <PCA9685PWMLed::Set(unsigned char, unsigned short)>
   10a38:	4668      	mov	r0, sp
   10a3a:	f000 f9eb 	bl	10e14 <PCA9685::Dump()>
   10a3e:	f44f 45ca 	mov.w	r5, #25856	; 0x6500
   10a42:	f6c1 55cd 	movt	r5, #7629	; 0x1dcd
   10a46:	2405      	movs	r4, #5
   10a48:	2600      	movs	r6, #0
   10a4a:	2200      	movs	r2, #0
   10a4c:	2101      	movs	r1, #1
   10a4e:	4668      	mov	r0, sp
   10a50:	f000 f900 	bl	10c54 <PCA9685PWMLed::Set(unsigned char, unsigned short)>
   10a54:	4668      	mov	r0, sp
   10a56:	f000 f9dd 	bl	10e14 <PCA9685::Dump()>
   10a5a:	2100      	movs	r1, #0
   10a5c:	a809      	add	r0, sp, #36	; 0x24
   10a5e:	9609      	str	r6, [sp, #36]	; 0x24
   10a60:	950a      	str	r5, [sp, #40]	; 0x28
   10a62:	f7ff eede 	blx	10820 <nanosleep@plt>
   10a66:	f44f 5280 	mov.w	r2, #4096	; 0x1000
   10a6a:	2101      	movs	r1, #1
   10a6c:	4668      	mov	r0, sp
   10a6e:	f000 f8f1 	bl	10c54 <PCA9685PWMLed::Set(unsigned char, unsigned short)>
   10a72:	4668      	mov	r0, sp
   10a74:	f000 f9ce 	bl	10e14 <PCA9685::Dump()>
   10a78:	2100      	movs	r1, #0
   10a7a:	a80b      	add	r0, sp, #44	; 0x2c
   10a7c:	960b      	str	r6, [sp, #44]	; 0x2c
   10a7e:	950c      	str	r5, [sp, #48]	; 0x30
   10a80:	f7ff eece 	blx	10820 <nanosleep@plt>
   10a84:	3c01      	subs	r4, #1
   10a86:	d1e0      	bne.n	10a4a <main+0x136>
   10a88:	4622      	mov	r2, r4
   10a8a:	2110      	movs	r1, #16
   10a8c:	4668      	mov	r0, sp
   10a8e:	f000 f8e1 	bl	10c54 <PCA9685PWMLed::Set(unsigned char, unsigned short)>
   10a92:	4668      	mov	r0, sp
   10a94:	f000 f9be 	bl	10e14 <PCA9685::Dump()>
   10a98:	2001      	movs	r0, #1
   10a9a:	f7ff eef8 	blx	1088c <sleep@plt>
   10a9e:	24ff      	movs	r4, #255	; 0xff
   10aa0:	b2e7      	uxtb	r7, r4
   10aa2:	2100      	movs	r1, #0
   10aa4:	4668      	mov	r0, sp
   10aa6:	f3c4 2607 	ubfx	r6, r4, #8, #8
   10aaa:	463a      	mov	r2, r7
   10aac:	f3c4 4507 	ubfx	r5, r4, #16, #8
   10ab0:	f000 f8e4 	bl	10c7c <PCA9685PWMLed::Set(unsigned char, unsigned char)>
   10ab4:	4632      	mov	r2, r6
   10ab6:	2101      	movs	r1, #1
   10ab8:	4668      	mov	r0, sp
   10aba:	f000 f8df 	bl	10c7c <PCA9685PWMLed::Set(unsigned char, unsigned char)>
   10abe:	462a      	mov	r2, r5
   10ac0:	2102      	movs	r1, #2
   10ac2:	4668      	mov	r0, sp
   10ac4:	f000 f8da 	bl	10c7c <PCA9685PWMLed::Set(unsigned char, unsigned char)>
   10ac8:	462a      	mov	r2, r5
   10aca:	2103      	movs	r1, #3
   10acc:	4668      	mov	r0, sp
   10ace:	f000 f8d5 	bl	10c7c <PCA9685PWMLed::Set(unsigned char, unsigned char)>
   10ad2:	463a      	mov	r2, r7
   10ad4:	2104      	movs	r1, #4
   10ad6:	4668      	mov	r0, sp
   10ad8:	f000 f8d0 	bl	10c7c <PCA9685PWMLed::Set(unsigned char, unsigned char)>
   10adc:	4632      	mov	r2, r6
   10ade:	2105      	movs	r1, #5
   10ae0:	4668      	mov	r0, sp
   10ae2:	f000 f8cb 	bl	10c7c <PCA9685PWMLed::Set(unsigned char, unsigned char)>
   10ae6:	4632      	mov	r2, r6
   10ae8:	2106      	movs	r1, #6
   10aea:	4668      	mov	r0, sp
   10aec:	f000 f8c6 	bl	10c7c <PCA9685PWMLed::Set(unsigned char, unsigned char)>
   10af0:	462a      	mov	r2, r5
   10af2:	2107      	movs	r1, #7
   10af4:	4668      	mov	r0, sp
   10af6:	f000 f8c1 	bl	10c7c <PCA9685PWMLed::Set(unsigned char, unsigned char)>
   10afa:	463a      	mov	r2, r7
   10afc:	2108      	movs	r1, #8
   10afe:	4668      	mov	r0, sp
   10b00:	f000 f8bc 	bl	10c7c <PCA9685PWMLed::Set(unsigned char, unsigned char)>
   10b04:	43fa      	mvns	r2, r7
   10b06:	2109      	movs	r1, #9
   10b08:	b2d2      	uxtb	r2, r2
   10b0a:	4668      	mov	r0, sp
   10b0c:	f000 f8b6 	bl	10c7c <PCA9685PWMLed::Set(unsigned char, unsigned char)>
   10b10:	43f2      	mvns	r2, r6
   10b12:	210a      	movs	r1, #10
   10b14:	b2d2      	uxtb	r2, r2
   10b16:	4668      	mov	r0, sp
   10b18:	f000 f8b0 	bl	10c7c <PCA9685PWMLed::Set(unsigned char, unsigned char)>
   10b1c:	43ea      	mvns	r2, r5
   10b1e:	210b      	movs	r1, #11
   10b20:	b2d2      	uxtb	r2, r2
   10b22:	4668      	mov	r0, sp
   10b24:	f000 f8aa 	bl	10c7c <PCA9685PWMLed::Set(unsigned char, unsigned char)>
   10b28:	0224      	lsls	r4, r4, #8
   10b2a:	4668      	mov	r0, sp
   10b2c:	bf08      	it	eq
   10b2e:	24ff      	moveq	r4, #255	; 0xff
   10b30:	f000 f970 	bl	10e14 <PCA9685::Dump()>
   10b34:	2001      	movs	r0, #1
   10b36:	f7ff eeaa 	blx	1088c <sleep@plt>
   10b3a:	e7b1      	b.n	10aa0 <main+0x18c>
   10b3c:	4668      	mov	r0, sp
   10b3e:	f000 f883 	bl	10c48 <PCA9685PWMLed::~PCA9685PWMLed()>
   10b42:	f7ff ee9e 	blx	10880 <__cxa_end_cleanup@plt>
   10b46:	bf00      	nop

00010b48 <_start>:
   10b48:	f04f 0b00 	mov.w	fp, #0
   10b4c:	f04f 0e00 	mov.w	lr, #0
   10b50:	bc02      	pop	{r1}
   10b52:	466a      	mov	r2, sp
   10b54:	b404      	push	{r2}
   10b56:	b401      	push	{r0}
   10b58:	f8df c010 	ldr.w	ip, [pc, #16]	; 10b6c <_start+0x24>
   10b5c:	f84d cd04 	str.w	ip, [sp, #-4]!
   10b60:	4803      	ldr	r0, [pc, #12]	; (10b70 <_start+0x28>)
   10b62:	4b04      	ldr	r3, [pc, #16]	; (10b74 <_start+0x2c>)
   10b64:	f7ff eec2 	blx	108ec <__libc_start_main@plt>
   10b68:	f7ff ee6c 	blx	10844 <abort@plt>
   10b6c:	00012db9 			; <UNDEFINED> instruction: 0x00012db9
   10b70:	00010915 	andeq	r0, r1, r5, lsl r9
   10b74:	00012d7d 	andeq	r2, r1, sp, ror sp

00010b78 <call_weak_fn>:
   10b78:	e59f3014 	ldr	r3, [pc, #20]	; 10b94 <call_weak_fn+0x1c>
   10b7c:	e59f2014 	ldr	r2, [pc, #20]	; 10b98 <call_weak_fn+0x20>
   10b80:	e08f3003 	add	r3, pc, r3
   10b84:	e7932002 	ldr	r2, [r3, r2]
   10b88:	e3520000 	cmp	r2, #0
   10b8c:	012fff1e 	bxeq	lr
   10b90:	eaffff58 	b	108f8 <__gmon_start__@plt>
   10b94:	00013478 	andeq	r3, r1, r8, ror r4
   10b98:	00000068 	andeq	r0, r0, r8, rrx

00010b9c <deregister_tm_clones>:
   10b9c:	4b07      	ldr	r3, [pc, #28]	; (10bbc <deregister_tm_clones+0x20>)
   10b9e:	f244 00ac 	movw	r0, #16556	; 0x40ac
   10ba2:	f2c0 0002 	movt	r0, #2
   10ba6:	1a1b      	subs	r3, r3, r0
   10ba8:	2b06      	cmp	r3, #6
   10baa:	d905      	bls.n	10bb8 <deregister_tm_clones+0x1c>
   10bac:	f240 0300 	movw	r3, #0
   10bb0:	f2c0 0300 	movt	r3, #0
   10bb4:	b103      	cbz	r3, 10bb8 <deregister_tm_clones+0x1c>
   10bb6:	4718      	bx	r3
   10bb8:	4770      	bx	lr
   10bba:	bf00      	nop
   10bbc:	000240af 	andeq	r4, r2, pc, lsr #1

00010bc0 <register_tm_clones>:
   10bc0:	f244 03ac 	movw	r3, #16556	; 0x40ac
   10bc4:	f244 00ac 	movw	r0, #16556	; 0x40ac
   10bc8:	f2c0 0302 	movt	r3, #2
   10bcc:	f2c0 0002 	movt	r0, #2
   10bd0:	1a19      	subs	r1, r3, r0
   10bd2:	1089      	asrs	r1, r1, #2
   10bd4:	eb01 71d1 	add.w	r1, r1, r1, lsr #31
   10bd8:	1049      	asrs	r1, r1, #1
   10bda:	d005      	beq.n	10be8 <register_tm_clones+0x28>
   10bdc:	f240 0300 	movw	r3, #0
   10be0:	f2c0 0300 	movt	r3, #0
   10be4:	b103      	cbz	r3, 10be8 <register_tm_clones+0x28>
   10be6:	4718      	bx	r3
   10be8:	4770      	bx	lr
   10bea:	bf00      	nop

00010bec <__do_global_dtors_aux>:
   10bec:	b510      	push	{r4, lr}
   10bee:	f244 04bc 	movw	r4, #16572	; 0x40bc
   10bf2:	f2c0 0402 	movt	r4, #2
   10bf6:	7823      	ldrb	r3, [r4, #0]
   10bf8:	b91b      	cbnz	r3, 10c02 <__do_global_dtors_aux+0x16>
   10bfa:	f7ff ffcf 	bl	10b9c <deregister_tm_clones>
   10bfe:	2301      	movs	r3, #1
   10c00:	7023      	strb	r3, [r4, #0]
   10c02:	bd10      	pop	{r4, pc}

00010c04 <frame_dummy>:
   10c04:	b508      	push	{r3, lr}
   10c06:	f643 60fc 	movw	r0, #16124	; 0x3efc
   10c0a:	f2c0 0002 	movt	r0, #2
   10c0e:	6803      	ldr	r3, [r0, #0]
   10c10:	b913      	cbnz	r3, 10c18 <frame_dummy+0x14>
   10c12:	e8bd 4008 	ldmia.w	sp!, {r3, lr}
   10c16:	e7d3      	b.n	10bc0 <register_tm_clones>
   10c18:	f240 0300 	movw	r3, #0
   10c1c:	f2c0 0300 	movt	r3, #0
   10c20:	2b00      	cmp	r3, #0
   10c22:	d0f6      	beq.n	10c12 <frame_dummy+0xe>
   10c24:	4798      	blx	r3
   10c26:	e7f4      	b.n	10c12 <frame_dummy+0xe>

00010c28 <PCA9685PWMLed::PCA9685PWMLed(unsigned char)>:
   10c28:	b510      	push	{r4, lr}
   10c2a:	4604      	mov	r4, r0
   10c2c:	f000 faf0 	bl	11210 <PCA9685::PCA9685(unsigned char)>
   10c30:	4620      	mov	r0, r4
   10c32:	2178      	movs	r1, #120	; 0x78
   10c34:	f000 f974 	bl	10f20 <PCA9685::SetFrequency(unsigned short)>
   10c38:	4620      	mov	r0, r4
   10c3a:	bd10      	pop	{r4, pc}
   10c3c:	4620      	mov	r0, r4
   10c3e:	f000 f82b 	bl	10c98 <PCA9685::~PCA9685()>
   10c42:	f7ff ee1e 	blx	10880 <__cxa_end_cleanup@plt>
   10c46:	bf00      	nop

00010c48 <PCA9685PWMLed::~PCA9685PWMLed()>:
   10c48:	b510      	push	{r4, lr}
   10c4a:	4604      	mov	r4, r0
   10c4c:	f000 f824 	bl	10c98 <PCA9685::~PCA9685()>
   10c50:	4620      	mov	r0, r4
   10c52:	bd10      	pop	{r4, pc}

00010c54 <PCA9685PWMLed::Set(unsigned char, unsigned short)>:
   10c54:	b410      	push	{r4}
   10c56:	f640 74fe 	movw	r4, #4094	; 0xffe
   10c5a:	42a2      	cmp	r2, r4
   10c5c:	d809      	bhi.n	10c72 <PCA9685PWMLed::Set(unsigned char, unsigned short)+0x1e>
   10c5e:	b11a      	cbz	r2, 10c68 <PCA9685PWMLed::Set(unsigned char, unsigned short)+0x14>
   10c60:	f85d 4b04 	ldr.w	r4, [sp], #4
   10c64:	f000 baf2 	b.w	1124c <PCA9685::Write(unsigned char, unsigned short)>
   10c68:	2201      	movs	r2, #1
   10c6a:	f85d 4b04 	ldr.w	r4, [sp], #4
   10c6e:	f000 b9d7 	b.w	11020 <PCA9685::SetFullOff(unsigned char, bool)>
   10c72:	2201      	movs	r2, #1
   10c74:	f85d 4b04 	ldr.w	r4, [sp], #4
   10c78:	f000 b9ec 	b.w	11054 <PCA9685::SetFullOn(unsigned char, bool)>

00010c7c <PCA9685PWMLed::Set(unsigned char, unsigned char)>:
   10c7c:	2aff      	cmp	r2, #255	; 0xff
   10c7e:	d008      	beq.n	10c92 <PCA9685PWMLed::Set(unsigned char, unsigned char)+0x16>
   10c80:	b122      	cbz	r2, 10c8c <PCA9685PWMLed::Set(unsigned char, unsigned char)+0x10>
   10c82:	1113      	asrs	r3, r2, #4
   10c84:	ea43 1202 	orr.w	r2, r3, r2, lsl #4
   10c88:	f000 bae0 	b.w	1124c <PCA9685::Write(unsigned char, unsigned short)>
   10c8c:	2201      	movs	r2, #1
   10c8e:	f000 b9c7 	b.w	11020 <PCA9685::SetFullOff(unsigned char, bool)>
   10c92:	2201      	movs	r2, #1
   10c94:	f000 b9de 	b.w	11054 <PCA9685::SetFullOn(unsigned char, bool)>

00010c98 <PCA9685::~PCA9685()>:
   10c98:	4770      	bx	lr
   10c9a:	bf00      	nop

00010c9c <PCA9685::CalcPresScale(unsigned short)>:
   10c9c:	2918      	cmp	r1, #24
   10c9e:	f240 53f6 	movw	r3, #1526	; 0x5f6
   10ca2:	eddf 6a0d 	vldr	s13, [pc, #52]	; 10cd8 <PCA9685::CalcPresScale(unsigned short)+0x3c>
   10ca6:	bf38      	it	cc
   10ca8:	2118      	movcc	r1, #24
   10caa:	428b      	cmp	r3, r1
   10cac:	bf28      	it	cs
   10cae:	460b      	movcs	r3, r1
   10cb0:	eeb7 7a00 	vmov.f32	s14, #112	; 0x3f800000  1.0
   10cb4:	ee07 3a90 	vmov	s15, r3
   10cb8:	eef8 7ae7 	vcvt.f32.s32	s15, s15
   10cbc:	ee77 6aa6 	vadd.f32	s13, s15, s13
   10cc0:	ee76 6ac7 	vsub.f32	s13, s13, s14
   10cc4:	ee86 7aa7 	vdiv.f32	s14, s13, s15
   10cc8:	eefc 7ac7 	vcvt.u32.f32	s15, s14
   10ccc:	ee17 0a90 	vmov	r0, s15
   10cd0:	3801      	subs	r0, #1
   10cd2:	b2c0      	uxtb	r0, r0
   10cd4:	4770      	bx	lr
   10cd6:	bf00      	nop
   10cd8:	45bebc20 	ldrmi	fp, [lr, #3104]!	; 0xc20

00010cdc <PCA9685::CalcFrequency(unsigned char)>:
   10cdc:	1c4b      	adds	r3, r1, #1
   10cde:	eddf 5a4c 	vldr	s11, [pc, #304]	; 10e10 <PCA9685::CalcFrequency(unsigned char)+0x134>
   10ce2:	b410      	push	{r4}
   10ce4:	b083      	sub	sp, #12
   10ce6:	ee07 3a90 	vmov	s15, r3
   10cea:	eeb7 6a00 	vmov.f32	s12, #112	; 0x3f800000  1.0
   10cee:	eef8 7ae7 	vcvt.f32.s32	s15, s15
   10cf2:	ee37 7aa5 	vadd.f32	s14, s15, s11
   10cf6:	ee37 7a46 	vsub.f32	s14, s14, s12
   10cfa:	eec7 6a27 	vdiv.f32	s13, s14, s15
   10cfe:	eefc 7ae6 	vcvt.u32.f32	s15, s13
   10d02:	edcd 7a01 	vstr	s15, [sp, #4]
   10d06:	f8bd 2004 	ldrh.w	r2, [sp, #4]
   10d0a:	2a18      	cmp	r2, #24
   10d0c:	d97d      	bls.n	10e0a <PCA9685::CalcFrequency(unsigned char)+0x12e>
   10d0e:	2a18      	cmp	r2, #24
   10d10:	4613      	mov	r3, r2
   10d12:	f240 50f6 	movw	r0, #1526	; 0x5f6
   10d16:	4614      	mov	r4, r2
   10d18:	bf38      	it	cc
   10d1a:	2318      	movcc	r3, #24
   10d1c:	4283      	cmp	r3, r0
   10d1e:	bf28      	it	cs
   10d20:	4603      	movcs	r3, r0
   10d22:	ee07 3a90 	vmov	s15, r3
   10d26:	eeb8 7ae7 	vcvt.f32.s32	s14, s15
   10d2a:	ee77 6a25 	vadd.f32	s13, s14, s11
   10d2e:	ee76 6ac6 	vsub.f32	s13, s13, s12
   10d32:	eec6 7a87 	vdiv.f32	s15, s13, s14
   10d36:	eefc 7ae7 	vcvt.u32.f32	s15, s15
   10d3a:	ee17 3a90 	vmov	r3, s15
   10d3e:	3b01      	subs	r3, #1
   10d40:	b2db      	uxtb	r3, r3
   10d42:	4299      	cmp	r1, r3
   10d44:	d01a      	beq.n	10d7c <PCA9685::CalcFrequency(unsigned char)+0xa0>
   10d46:	e01d      	b.n	10d84 <PCA9685::CalcFrequency(unsigned char)+0xa8>
   10d48:	2c18      	cmp	r4, #24
   10d4a:	4623      	mov	r3, r4
   10d4c:	bf38      	it	cc
   10d4e:	2318      	movcc	r3, #24
   10d50:	b29b      	uxth	r3, r3
   10d52:	4283      	cmp	r3, r0
   10d54:	bf28      	it	cs
   10d56:	4603      	movcs	r3, r0
   10d58:	ee07 3a90 	vmov	s15, r3
   10d5c:	eef8 7ae7 	vcvt.f32.s32	s15, s15
   10d60:	ee77 6aa5 	vadd.f32	s13, s15, s11
   10d64:	ee76 6ac6 	vsub.f32	s13, s13, s12
   10d68:	ee86 7aa7 	vdiv.f32	s14, s13, s15
   10d6c:	eefc 7ac7 	vcvt.u32.f32	s15, s14
   10d70:	ee17 3a90 	vmov	r3, s15
   10d74:	3b01      	subs	r3, #1
   10d76:	b2db      	uxtb	r3, r3
   10d78:	4299      	cmp	r1, r3
   10d7a:	d103      	bne.n	10d84 <PCA9685::CalcFrequency(unsigned char)+0xa8>
   10d7c:	3c01      	subs	r4, #1
   10d7e:	b2a4      	uxth	r4, r4
   10d80:	2c18      	cmp	r4, #24
   10d82:	d1e1      	bne.n	10d48 <PCA9685::CalcFrequency(unsigned char)+0x6c>
   10d84:	f240 53f5 	movw	r3, #1525	; 0x5f5
   10d88:	429a      	cmp	r2, r3
   10d8a:	d837      	bhi.n	10dfc <PCA9685::CalcFrequency(unsigned char)+0x120>
   10d8c:	2a18      	cmp	r2, #24
   10d8e:	4613      	mov	r3, r2
   10d90:	eddf 5a1f 	vldr	s11, [pc, #124]	; 10e10 <PCA9685::CalcFrequency(unsigned char)+0x134>
   10d94:	bf38      	it	cc
   10d96:	2318      	movcc	r3, #24
   10d98:	ee07 3a10 	vmov	s14, r3
   10d9c:	eeb7 6a00 	vmov.f32	s12, #112	; 0x3f800000  1.0
   10da0:	eeb8 7ac7 	vcvt.f32.s32	s14, s14
   10da4:	ee77 6a25 	vadd.f32	s13, s14, s11
   10da8:	ee76 6ac6 	vsub.f32	s13, s13, s12
   10dac:	eec6 7a87 	vdiv.f32	s15, s13, s14
   10db0:	eefc 7ae7 	vcvt.u32.f32	s15, s15
   10db4:	ee17 3a90 	vmov	r3, s15
   10db8:	3b01      	subs	r3, #1
   10dba:	b2db      	uxtb	r3, r3
   10dbc:	4299      	cmp	r1, r3
   10dbe:	bf08      	it	eq
   10dc0:	f240 50f6 	movweq	r0, #1526	; 0x5f6
   10dc4:	d016      	beq.n	10df4 <PCA9685::CalcFrequency(unsigned char)+0x118>
   10dc6:	e019      	b.n	10dfc <PCA9685::CalcFrequency(unsigned char)+0x120>
   10dc8:	2a18      	cmp	r2, #24
   10dca:	4613      	mov	r3, r2
   10dcc:	bf38      	it	cc
   10dce:	2318      	movcc	r3, #24
   10dd0:	ee07 3a10 	vmov	s14, r3
   10dd4:	eeb8 7ac7 	vcvt.f32.s32	s14, s14
   10dd8:	ee77 6a25 	vadd.f32	s13, s14, s11
   10ddc:	ee76 6ac6 	vsub.f32	s13, s13, s12
   10de0:	eec6 7a87 	vdiv.f32	s15, s13, s14
   10de4:	eefc 7ae7 	vcvt.u32.f32	s15, s15
   10de8:	ee17 3a90 	vmov	r3, s15
   10dec:	3b01      	subs	r3, #1
   10dee:	b2db      	uxtb	r3, r3
   10df0:	4299      	cmp	r1, r3
   10df2:	d103      	bne.n	10dfc <PCA9685::CalcFrequency(unsigned char)+0x120>
   10df4:	3201      	adds	r2, #1
   10df6:	b292      	uxth	r2, r2
   10df8:	4282      	cmp	r2, r0
   10dfa:	d1e5      	bne.n	10dc8 <PCA9685::CalcFrequency(unsigned char)+0xec>
   10dfc:	1910      	adds	r0, r2, r4
   10dfe:	f3c0 004f 	ubfx	r0, r0, #1, #16
   10e02:	b003      	add	sp, #12
   10e04:	f85d 4b04 	ldr.w	r4, [sp], #4
   10e08:	4770      	bx	lr
   10e0a:	4614      	mov	r4, r2
   10e0c:	e7be      	b.n	10d8c <PCA9685::CalcFrequency(unsigned char)+0xb0>
   10e0e:	bf00      	nop
   10e10:	45bebc20 	ldrmi	fp, [lr, #3104]!	; 0xc20

00010e14 <PCA9685::Dump()>:
   10e14:	4770      	bx	lr
   10e16:	bf00      	nop

00010e18 <PCA9685::I2cSetup()>:
   10e18:	b508      	push	{r3, lr}
   10e1a:	7800      	ldrb	r0, [r0, #0]
   10e1c:	f001 f97e 	bl	1211c <bcm2835_i2c_setSlaveAddress>
   10e20:	f44f 50d4 	mov.w	r0, #6784	; 0x1a80
   10e24:	e8bd 4008 	ldmia.w	sp!, {r3, lr}
   10e28:	f2c0 0006 	movt	r0, #6
   10e2c:	f001 b9ac 	b.w	12188 <bcm2835_i2c_set_baudrate>

00010e30 <PCA9685::I2cWriteReg(unsigned char, unsigned char)>:
   10e30:	b510      	push	{r4, lr}
   10e32:	f244 04b0 	movw	r4, #16560	; 0x40b0
   10e36:	f2c0 0402 	movt	r4, #2
   10e3a:	b082      	sub	sp, #8
   10e3c:	7800      	ldrb	r0, [r0, #0]
   10e3e:	6823      	ldr	r3, [r4, #0]
   10e40:	f88d 2001 	strb.w	r2, [sp, #1]
   10e44:	f88d 1000 	strb.w	r1, [sp]
   10e48:	9301      	str	r3, [sp, #4]
   10e4a:	f001 f967 	bl	1211c <bcm2835_i2c_setSlaveAddress>
   10e4e:	f44f 50d4 	mov.w	r0, #6784	; 0x1a80
   10e52:	f2c0 0006 	movt	r0, #6
   10e56:	f001 f997 	bl	12188 <bcm2835_i2c_set_baudrate>
   10e5a:	2102      	movs	r1, #2
   10e5c:	4668      	mov	r0, sp
   10e5e:	f001 f9a3 	bl	121a8 <bcm2835_i2c_write>
   10e62:	9a01      	ldr	r2, [sp, #4]
   10e64:	6823      	ldr	r3, [r4, #0]
   10e66:	429a      	cmp	r2, r3
   10e68:	d101      	bne.n	10e6e <PCA9685::I2cWriteReg(unsigned char, unsigned char)+0x3e>
   10e6a:	b002      	add	sp, #8
   10e6c:	bd10      	pop	{r4, pc}
   10e6e:	f7ff ed02 	blx	10874 <__stack_chk_fail@plt>
   10e72:	bf00      	nop

00010e74 <PCA9685::I2cReadReg(unsigned char)>:
   10e74:	b530      	push	{r4, r5, lr}
   10e76:	f244 04b0 	movw	r4, #16560	; 0x40b0
   10e7a:	f2c0 0402 	movt	r4, #2
   10e7e:	b083      	sub	sp, #12
   10e80:	ad02      	add	r5, sp, #8
   10e82:	7800      	ldrb	r0, [r0, #0]
   10e84:	6823      	ldr	r3, [r4, #0]
   10e86:	f805 1d05 	strb.w	r1, [r5, #-5]!
   10e8a:	9301      	str	r3, [sp, #4]
   10e8c:	f001 f946 	bl	1211c <bcm2835_i2c_setSlaveAddress>
   10e90:	f44f 50d4 	mov.w	r0, #6784	; 0x1a80
   10e94:	f2c0 0006 	movt	r0, #6
   10e98:	f001 f976 	bl	12188 <bcm2835_i2c_set_baudrate>
   10e9c:	2101      	movs	r1, #1
   10e9e:	4628      	mov	r0, r5
   10ea0:	f001 f982 	bl	121a8 <bcm2835_i2c_write>
   10ea4:	4628      	mov	r0, r5
   10ea6:	2101      	movs	r1, #1
   10ea8:	f001 f9fa 	bl	122a0 <bcm2835_i2c_read>
   10eac:	9a01      	ldr	r2, [sp, #4]
   10eae:	6823      	ldr	r3, [r4, #0]
   10eb0:	f89d 0003 	ldrb.w	r0, [sp, #3]
   10eb4:	429a      	cmp	r2, r3
   10eb6:	d101      	bne.n	10ebc <PCA9685::I2cReadReg(unsigned char)+0x48>
   10eb8:	b003      	add	sp, #12
   10eba:	bd30      	pop	{r4, r5, pc}
   10ebc:	f7ff ecda 	blx	10874 <__stack_chk_fail@plt>

00010ec0 <PCA9685::Sleep(bool)>:
   10ec0:	b570      	push	{r4, r5, r6, lr}
   10ec2:	460e      	mov	r6, r1
   10ec4:	2100      	movs	r1, #0
   10ec6:	4605      	mov	r5, r0
   10ec8:	f7ff ffd4 	bl	10e74 <PCA9685::I2cReadReg(unsigned char)>
   10ecc:	f000 04ef 	and.w	r4, r0, #239	; 0xef
   10ed0:	b10e      	cbz	r6, 10ed6 <PCA9685::Sleep(bool)+0x16>
   10ed2:	f044 0410 	orr.w	r4, r4, #16
   10ed6:	4628      	mov	r0, r5
   10ed8:	4622      	mov	r2, r4
   10eda:	2100      	movs	r1, #0
   10edc:	f7ff ffa8 	bl	10e30 <PCA9685::I2cWriteReg(unsigned char, unsigned char)>
   10ee0:	0663      	lsls	r3, r4, #25
   10ee2:	d100      	bne.n	10ee6 <PCA9685::Sleep(bool)+0x26>
   10ee4:	bd70      	pop	{r4, r5, r6, pc}
   10ee6:	f44f 70fa 	mov.w	r0, #500	; 0x1f4
   10eea:	2100      	movs	r1, #0
   10eec:	e8bd 4070 	ldmia.w	sp!, {r4, r5, r6, lr}
   10ef0:	f001 baa6 	b.w	12440 <bcm2835_delayMicroseconds>

00010ef4 <PCA9685::SetPreScaller(unsigned char)>:
   10ef4:	b538      	push	{r3, r4, r5, lr}
   10ef6:	460d      	mov	r5, r1
   10ef8:	2101      	movs	r1, #1
   10efa:	4604      	mov	r4, r0
   10efc:	f7ff ffe0 	bl	10ec0 <PCA9685::Sleep(bool)>
   10f00:	2d03      	cmp	r5, #3
   10f02:	462a      	mov	r2, r5
   10f04:	4620      	mov	r0, r4
   10f06:	f04f 01fe 	mov.w	r1, #254	; 0xfe
   10f0a:	bf38      	it	cc
   10f0c:	2203      	movcc	r2, #3
   10f0e:	f7ff ff8f 	bl	10e30 <PCA9685::I2cWriteReg(unsigned char, unsigned char)>
   10f12:	4620      	mov	r0, r4
   10f14:	2100      	movs	r1, #0
   10f16:	e8bd 4038 	ldmia.w	sp!, {r3, r4, r5, lr}
   10f1a:	f7ff bfd1 	b.w	10ec0 <PCA9685::Sleep(bool)>
   10f1e:	bf00      	nop

00010f20 <PCA9685::SetFrequency(unsigned short)>:
   10f20:	2918      	cmp	r1, #24
   10f22:	f240 53f6 	movw	r3, #1526	; 0x5f6
   10f26:	eddf 6a0d 	vldr	s13, [pc, #52]	; 10f5c <PCA9685::SetFrequency(unsigned short)+0x3c>
   10f2a:	bf38      	it	cc
   10f2c:	2118      	movcc	r1, #24
   10f2e:	428b      	cmp	r3, r1
   10f30:	bf28      	it	cs
   10f32:	460b      	movcs	r3, r1
   10f34:	eeb7 7a00 	vmov.f32	s14, #112	; 0x3f800000  1.0
   10f38:	ee07 3a90 	vmov	s15, r3
   10f3c:	eef8 7ae7 	vcvt.f32.s32	s15, s15
   10f40:	ee77 6aa6 	vadd.f32	s13, s15, s13
   10f44:	ee76 6ac7 	vsub.f32	s13, s13, s14
   10f48:	ee86 7aa7 	vdiv.f32	s14, s13, s15
   10f4c:	eefc 7ac7 	vcvt.u32.f32	s15, s14
   10f50:	ee17 1a90 	vmov	r1, s15
   10f54:	3901      	subs	r1, #1
   10f56:	b2c9      	uxtb	r1, r1
   10f58:	f7ff bfcc 	b.w	10ef4 <PCA9685::SetPreScaller(unsigned char)>
   10f5c:	45bebc20 	ldrmi	fp, [lr, #3104]!	; 0xc20

00010f60 <PCA9685::GetPreScaller()>:
   10f60:	21fe      	movs	r1, #254	; 0xfe
   10f62:	f7ff bf87 	b.w	10e74 <PCA9685::I2cReadReg(unsigned char)>
   10f66:	bf00      	nop

00010f68 <PCA9685::GetFrequency()>:
   10f68:	b510      	push	{r4, lr}
   10f6a:	21fe      	movs	r1, #254	; 0xfe
   10f6c:	4604      	mov	r4, r0
   10f6e:	f7ff ff81 	bl	10e74 <PCA9685::I2cReadReg(unsigned char)>
   10f72:	4601      	mov	r1, r0
   10f74:	4620      	mov	r0, r4
   10f76:	e8bd 4010 	ldmia.w	sp!, {r4, lr}
   10f7a:	f7ff beaf 	b.w	10cdc <PCA9685::CalcFrequency(unsigned char)>
   10f7e:	bf00      	nop

00010f80 <PCA9685::SetOCH(TPCA9685Och)>:
   10f80:	b538      	push	{r3, r4, r5, lr}
   10f82:	460d      	mov	r5, r1
   10f84:	2101      	movs	r1, #1
   10f86:	4604      	mov	r4, r0
   10f88:	f7ff ff74 	bl	10e74 <PCA9685::I2cReadReg(unsigned char)>
   10f8c:	2d08      	cmp	r5, #8
   10f8e:	f04f 0101 	mov.w	r1, #1
   10f92:	f000 02f7 	and.w	r2, r0, #247	; 0xf7
   10f96:	4620      	mov	r0, r4
   10f98:	bf08      	it	eq
   10f9a:	f042 0208 	orreq.w	r2, r2, #8
   10f9e:	e8bd 4038 	ldmia.w	sp!, {r3, r4, r5, lr}
   10fa2:	f7ff bf45 	b.w	10e30 <PCA9685::I2cWriteReg(unsigned char, unsigned char)>
   10fa6:	bf00      	nop

00010fa8 <PCA9685::GetOCH()>:
   10fa8:	b508      	push	{r3, lr}
   10faa:	2101      	movs	r1, #1
   10fac:	f7ff ff62 	bl	10e74 <PCA9685::I2cReadReg(unsigned char)>
   10fb0:	f000 0008 	and.w	r0, r0, #8
   10fb4:	bd08      	pop	{r3, pc}
   10fb6:	bf00      	nop

00010fb8 <PCA9685::SetInvert(bool)>:
   10fb8:	b538      	push	{r3, r4, r5, lr}
   10fba:	460d      	mov	r5, r1
   10fbc:	2101      	movs	r1, #1
   10fbe:	4604      	mov	r4, r0
   10fc0:	f7ff ff58 	bl	10e74 <PCA9685::I2cReadReg(unsigned char)>
   10fc4:	f000 02ef 	and.w	r2, r0, #239	; 0xef
   10fc8:	b10d      	cbz	r5, 10fce <PCA9685::SetInvert(bool)+0x16>
   10fca:	f042 0210 	orr.w	r2, r2, #16
   10fce:	4620      	mov	r0, r4
   10fd0:	2101      	movs	r1, #1
   10fd2:	e8bd 4038 	ldmia.w	sp!, {r3, r4, r5, lr}
   10fd6:	f7ff bf2b 	b.w	10e30 <PCA9685::I2cWriteReg(unsigned char, unsigned char)>
   10fda:	bf00      	nop

00010fdc <PCA9685::GetInvert()>:
   10fdc:	b508      	push	{r3, lr}
   10fde:	2101      	movs	r1, #1
   10fe0:	f7ff ff48 	bl	10e74 <PCA9685::I2cReadReg(unsigned char)>
   10fe4:	f3c0 1000 	ubfx	r0, r0, #4, #1
   10fe8:	bd08      	pop	{r3, pc}
   10fea:	bf00      	nop

00010fec <PCA9685::SetOutDriver(bool)>:
   10fec:	b538      	push	{r3, r4, r5, lr}
   10fee:	460d      	mov	r5, r1
   10ff0:	2101      	movs	r1, #1
   10ff2:	4604      	mov	r4, r0
   10ff4:	f7ff ff3e 	bl	10e74 <PCA9685::I2cReadReg(unsigned char)>
   10ff8:	f000 02fb 	and.w	r2, r0, #251	; 0xfb
   10ffc:	b10d      	cbz	r5, 11002 <PCA9685::SetOutDriver(bool)+0x16>
   10ffe:	f042 0204 	orr.w	r2, r2, #4
   11002:	4620      	mov	r0, r4
   11004:	2101      	movs	r1, #1
   11006:	e8bd 4038 	ldmia.w	sp!, {r3, r4, r5, lr}
   1100a:	f7ff bf11 	b.w	10e30 <PCA9685::I2cWriteReg(unsigned char, unsigned char)>
   1100e:	bf00      	nop

00011010 <PCA9685::GetOutDriver()>:
   11010:	b508      	push	{r3, lr}
   11012:	2101      	movs	r1, #1
   11014:	f7ff ff2e 	bl	10e74 <PCA9685::I2cReadReg(unsigned char)>
   11018:	f3c0 0080 	ubfx	r0, r0, #2, #1
   1101c:	bd08      	pop	{r3, pc}
   1101e:	bf00      	nop

00011020 <PCA9685::SetFullOff(unsigned char, bool)>:
   11020:	290f      	cmp	r1, #15
   11022:	b570      	push	{r4, r5, r6, lr}
   11024:	bf9a      	itte	ls
   11026:	008c      	lslls	r4, r1, #2
   11028:	3409      	addls	r4, #9
   1102a:	24fd      	movhi	r4, #253	; 0xfd
   1102c:	4616      	mov	r6, r2
   1102e:	4605      	mov	r5, r0
   11030:	bf98      	it	ls
   11032:	b2e4      	uxtbls	r4, r4
   11034:	4621      	mov	r1, r4
   11036:	f7ff ff1d 	bl	10e74 <PCA9685::I2cReadReg(unsigned char)>
   1103a:	f040 0210 	orr.w	r2, r0, #16
   1103e:	b2d2      	uxtb	r2, r2
   11040:	b90e      	cbnz	r6, 11046 <PCA9685::SetFullOff(unsigned char, bool)+0x26>
   11042:	f000 02ef 	and.w	r2, r0, #239	; 0xef
   11046:	4621      	mov	r1, r4
   11048:	4628      	mov	r0, r5
   1104a:	e8bd 4070 	ldmia.w	sp!, {r4, r5, r6, lr}
   1104e:	f7ff beef 	b.w	10e30 <PCA9685::I2cWriteReg(unsigned char, unsigned char)>
   11052:	bf00      	nop

00011054 <PCA9685::SetFullOn(unsigned char, bool)>:
   11054:	290f      	cmp	r1, #15
   11056:	b5f8      	push	{r3, r4, r5, r6, r7, lr}
   11058:	bf9a      	itte	ls
   1105a:	008c      	lslls	r4, r1, #2
   1105c:	3407      	addls	r4, #7
   1105e:	24fb      	movhi	r4, #251	; 0xfb
   11060:	460e      	mov	r6, r1
   11062:	4617      	mov	r7, r2
   11064:	bf98      	it	ls
   11066:	b2e4      	uxtbls	r4, r4
   11068:	4605      	mov	r5, r0
   1106a:	4621      	mov	r1, r4
   1106c:	f7ff ff02 	bl	10e74 <PCA9685::I2cReadReg(unsigned char)>
   11070:	b16f      	cbz	r7, 1108e <PCA9685::SetFullOn(unsigned char, bool)+0x3a>
   11072:	f040 0210 	orr.w	r2, r0, #16
   11076:	4621      	mov	r1, r4
   11078:	4628      	mov	r0, r5
   1107a:	b2d2      	uxtb	r2, r2
   1107c:	f7ff fed8 	bl	10e30 <PCA9685::I2cWriteReg(unsigned char, unsigned char)>
   11080:	4631      	mov	r1, r6
   11082:	4628      	mov	r0, r5
   11084:	2200      	movs	r2, #0
   11086:	e8bd 40f8 	ldmia.w	sp!, {r3, r4, r5, r6, r7, lr}
   1108a:	f7ff bfc9 	b.w	11020 <PCA9685::SetFullOff(unsigned char, bool)>
   1108e:	f000 02ef 	and.w	r2, r0, #239	; 0xef
   11092:	4621      	mov	r1, r4
   11094:	4628      	mov	r0, r5
   11096:	e8bd 40f8 	ldmia.w	sp!, {r3, r4, r5, r6, r7, lr}
   1109a:	f7ff bec9 	b.w	10e30 <PCA9685::I2cWriteReg(unsigned char, unsigned char)>
   1109e:	bf00      	nop

000110a0 <PCA9685::AutoIncrement(bool)>:
   110a0:	b538      	push	{r3, r4, r5, lr}
   110a2:	460d      	mov	r5, r1
   110a4:	2100      	movs	r1, #0
   110a6:	4604      	mov	r4, r0
   110a8:	f7ff fee4 	bl	10e74 <PCA9685::I2cReadReg(unsigned char)>
   110ac:	f000 02df 	and.w	r2, r0, #223	; 0xdf
   110b0:	b10d      	cbz	r5, 110b6 <PCA9685::AutoIncrement(bool)+0x16>
   110b2:	f042 0220 	orr.w	r2, r2, #32
   110b6:	4620      	mov	r0, r4
   110b8:	2100      	movs	r1, #0
   110ba:	e8bd 4038 	ldmia.w	sp!, {r3, r4, r5, lr}
   110be:	f7ff beb7 	b.w	10e30 <PCA9685::I2cWriteReg(unsigned char, unsigned char)>
   110c2:	bf00      	nop

000110c4 <PCA9685::I2cWriteReg(unsigned char, unsigned short)>:
   110c4:	b530      	push	{r4, r5, lr}
   110c6:	f244 04b0 	movw	r4, #16560	; 0x40b0
   110ca:	f2c0 0402 	movt	r4, #2
   110ce:	b083      	sub	sp, #12
   110d0:	7800      	ldrb	r0, [r0, #0]
   110d2:	1215      	asrs	r5, r2, #8
   110d4:	6823      	ldr	r3, [r4, #0]
   110d6:	f88d 2001 	strb.w	r2, [sp, #1]
   110da:	f88d 1000 	strb.w	r1, [sp]
   110de:	9301      	str	r3, [sp, #4]
   110e0:	f88d 5002 	strb.w	r5, [sp, #2]
   110e4:	f001 f81a 	bl	1211c <bcm2835_i2c_setSlaveAddress>
   110e8:	f44f 50d4 	mov.w	r0, #6784	; 0x1a80
   110ec:	f2c0 0006 	movt	r0, #6
   110f0:	f001 f84a 	bl	12188 <bcm2835_i2c_set_baudrate>
   110f4:	2103      	movs	r1, #3
   110f6:	4668      	mov	r0, sp
   110f8:	f001 f856 	bl	121a8 <bcm2835_i2c_write>
   110fc:	9a01      	ldr	r2, [sp, #4]
   110fe:	6823      	ldr	r3, [r4, #0]
   11100:	429a      	cmp	r2, r3
   11102:	d101      	bne.n	11108 <PCA9685::I2cWriteReg(unsigned char, unsigned short)+0x44>
   11104:	b003      	add	sp, #12
   11106:	bd30      	pop	{r4, r5, pc}
   11108:	f7ff ebb4 	blx	10874 <__stack_chk_fail@plt>

0001110c <PCA9685::I2cReadReg16(unsigned char)>:
   1110c:	b510      	push	{r4, lr}
   1110e:	f244 04b0 	movw	r4, #16560	; 0x40b0
   11112:	f2c0 0402 	movt	r4, #2
   11116:	b084      	sub	sp, #16
   11118:	7800      	ldrb	r0, [r0, #0]
   1111a:	2300      	movs	r3, #0
   1111c:	6822      	ldr	r2, [r4, #0]
   1111e:	f88d 3008 	strb.w	r3, [sp, #8]
   11122:	f88d 3009 	strb.w	r3, [sp, #9]
   11126:	9203      	str	r2, [sp, #12]
   11128:	f88d 1007 	strb.w	r1, [sp, #7]
   1112c:	f000 fff6 	bl	1211c <bcm2835_i2c_setSlaveAddress>
   11130:	f44f 50d4 	mov.w	r0, #6784	; 0x1a80
   11134:	f2c0 0006 	movt	r0, #6
   11138:	f001 f826 	bl	12188 <bcm2835_i2c_set_baudrate>
   1113c:	2101      	movs	r1, #1
   1113e:	f10d 0007 	add.w	r0, sp, #7
   11142:	f001 f831 	bl	121a8 <bcm2835_i2c_write>
   11146:	2102      	movs	r1, #2
   11148:	a802      	add	r0, sp, #8
   1114a:	f001 f8a9 	bl	122a0 <bcm2835_i2c_read>
   1114e:	9a03      	ldr	r2, [sp, #12]
   11150:	6823      	ldr	r3, [r4, #0]
   11152:	f89d 0009 	ldrb.w	r0, [sp, #9]
   11156:	f89d 1008 	ldrb.w	r1, [sp, #8]
   1115a:	429a      	cmp	r2, r3
   1115c:	ea41 2000 	orr.w	r0, r1, r0, lsl #8
   11160:	d101      	bne.n	11166 <PCA9685::I2cReadReg16(unsigned char)+0x5a>
   11162:	b004      	add	sp, #16
   11164:	bd10      	pop	{r4, pc}
   11166:	f7ff eb86 	blx	10874 <__stack_chk_fail@plt>
   1116a:	bf00      	nop

0001116c <PCA9685::Read(unsigned char, unsigned short*, unsigned short*)>:
   1116c:	290f      	cmp	r1, #15
   1116e:	b5f8      	push	{r3, r4, r5, r6, r7, lr}
   11170:	bf9c      	itt	ls
   11172:	008c      	lslls	r4, r1, #2
   11174:	3406      	addls	r4, #6
   11176:	4607      	mov	r7, r0
   11178:	4616      	mov	r6, r2
   1117a:	461d      	mov	r5, r3
   1117c:	bf94      	ite	ls
   1117e:	b2e4      	uxtbls	r4, r4
   11180:	24fa      	movhi	r4, #250	; 0xfa
   11182:	b11a      	cbz	r2, 1118c <PCA9685::Read(unsigned char, unsigned short*, unsigned short*)+0x20>
   11184:	4621      	mov	r1, r4
   11186:	f7ff ffc1 	bl	1110c <PCA9685::I2cReadReg16(unsigned char)>
   1118a:	8030      	strh	r0, [r6, #0]
   1118c:	b135      	cbz	r5, 1119c <PCA9685::Read(unsigned char, unsigned short*, unsigned short*)+0x30>
   1118e:	1ca1      	adds	r1, r4, #2
   11190:	4638      	mov	r0, r7
   11192:	f001 01fe 	and.w	r1, r1, #254	; 0xfe
   11196:	f7ff ffb9 	bl	1110c <PCA9685::I2cReadReg16(unsigned char)>
   1119a:	8028      	strh	r0, [r5, #0]
   1119c:	bdf8      	pop	{r3, r4, r5, r6, r7, pc}
   1119e:	bf00      	nop

000111a0 <PCA9685::Read(unsigned short*, unsigned short*)>:
   111a0:	4613      	mov	r3, r2
   111a2:	460a      	mov	r2, r1
   111a4:	2110      	movs	r1, #16
   111a6:	f7ff bfe1 	b.w	1116c <PCA9685::Read(unsigned char, unsigned short*, unsigned short*)>
   111aa:	bf00      	nop

000111ac <PCA9685::I2cWriteReg(unsigned char, unsigned short, unsigned short)>:
   111ac:	b5f0      	push	{r4, r5, r6, r7, lr}
   111ae:	f244 04b0 	movw	r4, #16560	; 0x40b0
   111b2:	f2c0 0402 	movt	r4, #2
   111b6:	b085      	sub	sp, #20
   111b8:	7800      	ldrb	r0, [r0, #0]
   111ba:	1217      	asrs	r7, r2, #8
   111bc:	6825      	ldr	r5, [r4, #0]
   111be:	121e      	asrs	r6, r3, #8
   111c0:	f88d 2005 	strb.w	r2, [sp, #5]
   111c4:	f88d 3007 	strb.w	r3, [sp, #7]
   111c8:	f88d 1004 	strb.w	r1, [sp, #4]
   111cc:	f88d 7006 	strb.w	r7, [sp, #6]
   111d0:	f88d 6008 	strb.w	r6, [sp, #8]
   111d4:	9503      	str	r5, [sp, #12]
   111d6:	f000 ffa1 	bl	1211c <bcm2835_i2c_setSlaveAddress>
   111da:	f44f 50d4 	mov.w	r0, #6784	; 0x1a80
   111de:	f2c0 0006 	movt	r0, #6
   111e2:	f000 ffd1 	bl	12188 <bcm2835_i2c_set_baudrate>
   111e6:	2105      	movs	r1, #5
   111e8:	a801      	add	r0, sp, #4
   111ea:	f000 ffdd 	bl	121a8 <bcm2835_i2c_write>
   111ee:	9a03      	ldr	r2, [sp, #12]
   111f0:	6823      	ldr	r3, [r4, #0]
   111f2:	429a      	cmp	r2, r3
   111f4:	d101      	bne.n	111fa <PCA9685::I2cWriteReg(unsigned char, unsigned short, unsigned short)+0x4e>
   111f6:	b005      	add	sp, #20
   111f8:	bdf0      	pop	{r4, r5, r6, r7, pc}
   111fa:	f7ff eb3c 	blx	10874 <__stack_chk_fail@plt>
   111fe:	bf00      	nop

00011200 <PCA9685::Write(unsigned char, unsigned short, unsigned short)>:
   11200:	290f      	cmp	r1, #15
   11202:	bf9b      	ittet	ls
   11204:	0089      	lslls	r1, r1, #2
   11206:	3106      	addls	r1, #6
   11208:	21fa      	movhi	r1, #250	; 0xfa
   1120a:	b2c9      	uxtbls	r1, r1
   1120c:	f7ff bfce 	b.w	111ac <PCA9685::I2cWriteReg(unsigned char, unsigned short, unsigned short)>

00011210 <PCA9685::PCA9685(unsigned char)>:
   11210:	b538      	push	{r3, r4, r5, lr}
   11212:	4605      	mov	r5, r0
   11214:	7001      	strb	r1, [r0, #0]
   11216:	2400      	movs	r4, #0
   11218:	f000 ff2c 	bl	12074 <bcm2835_i2c_begin>
   1121c:	4628      	mov	r0, r5
   1121e:	2101      	movs	r1, #1
   11220:	f7ff ff3e 	bl	110a0 <PCA9685::AutoIncrement(bool)>
   11224:	00a1      	lsls	r1, r4, #2
   11226:	f44f 5380 	mov.w	r3, #4096	; 0x1000
   1122a:	3106      	adds	r1, #6
   1122c:	3401      	adds	r4, #1
   1122e:	f001 01fe 	and.w	r1, r1, #254	; 0xfe
   11232:	2200      	movs	r2, #0
   11234:	4628      	mov	r0, r5
   11236:	f7ff ffb9 	bl	111ac <PCA9685::I2cWriteReg(unsigned char, unsigned short, unsigned short)>
   1123a:	2c10      	cmp	r4, #16
   1123c:	d1f2      	bne.n	11224 <PCA9685::PCA9685(unsigned char)+0x14>
   1123e:	4628      	mov	r0, r5
   11240:	2100      	movs	r1, #0
   11242:	f7ff fe3d 	bl	10ec0 <PCA9685::Sleep(bool)>
   11246:	4628      	mov	r0, r5
   11248:	bd38      	pop	{r3, r4, r5, pc}
   1124a:	bf00      	nop

0001124c <PCA9685::Write(unsigned char, unsigned short)>:
   1124c:	290f      	cmp	r1, #15
   1124e:	4613      	mov	r3, r2
   11250:	bf98      	it	ls
   11252:	0089      	lslls	r1, r1, #2
   11254:	f04f 0200 	mov.w	r2, #0
   11258:	bf96      	itet	ls
   1125a:	3106      	addls	r1, #6
   1125c:	21fa      	movhi	r1, #250	; 0xfa
   1125e:	b2c9      	uxtbls	r1, r1
   11260:	f7ff bfa4 	b.w	111ac <PCA9685::I2cWriteReg(unsigned char, unsigned short, unsigned short)>

00011264 <PCA9685::Write(unsigned short)>:
   11264:	460b      	mov	r3, r1
   11266:	2200      	movs	r2, #0
   11268:	21fa      	movs	r1, #250	; 0xfa
   1126a:	f7ff bf9f 	b.w	111ac <PCA9685::I2cWriteReg(unsigned char, unsigned short, unsigned short)>
   1126e:	bf00      	nop

00011270 <PCA9685::Write(unsigned short, unsigned short)>:
   11270:	4613      	mov	r3, r2
   11272:	460a      	mov	r2, r1
   11274:	21fa      	movs	r1, #250	; 0xfa
   11276:	f7ff bf99 	b.w	111ac <PCA9685::I2cWriteReg(unsigned char, unsigned short, unsigned short)>
   1127a:	bf00      	nop

0001127c <bcm2835_peri_read_nb.part.2>:
   1127c:	4602      	mov	r2, r0
   1127e:	f642 710c 	movw	r1, #12044	; 0x2f0c
   11282:	b508      	push	{r3, lr}
   11284:	f2c0 0101 	movt	r1, #1
   11288:	2001      	movs	r0, #1
   1128a:	f7ff eb3e 	blx	10908 <__printf_chk@plt+0x4>
   1128e:	2000      	movs	r0, #0
   11290:	bd08      	pop	{r3, pc}
   11292:	bf00      	nop

00011294 <bcm2835_peri_write_nb.part.4>:
   11294:	460b      	mov	r3, r1
   11296:	4602      	mov	r2, r0
   11298:	f642 712c 	movw	r1, #12076	; 0x2f2c
   1129c:	2001      	movs	r0, #1
   1129e:	f2c0 0101 	movt	r1, #1
   112a2:	f7ff bb2f 	b.w	10904 <__printf_chk@plt>
   112a6:	bf00      	nop

000112a8 <bcm2835_close.part.8>:
   112a8:	b510      	push	{r4, lr}
   112aa:	f244 0474 	movw	r4, #16500	; 0x4074
   112ae:	f2c0 0402 	movt	r4, #2
   112b2:	6820      	ldr	r0, [r4, #0]
   112b4:	1c43      	adds	r3, r0, #1
   112b6:	d002      	beq.n	112be <bcm2835_close.part.8+0x16>
   112b8:	6861      	ldr	r1, [r4, #4]
   112ba:	f7ff eb00 	blx	108bc <munmap@plt>
   112be:	f04f 33ff 	mov.w	r3, #4294967295
   112c2:	6023      	str	r3, [r4, #0]
   112c4:	60a3      	str	r3, [r4, #8]
   112c6:	60e3      	str	r3, [r4, #12]
   112c8:	6123      	str	r3, [r4, #16]
   112ca:	6163      	str	r3, [r4, #20]
   112cc:	61a3      	str	r3, [r4, #24]
   112ce:	61e3      	str	r3, [r4, #28]
   112d0:	6223      	str	r3, [r4, #32]
   112d2:	6263      	str	r3, [r4, #36]	; 0x24
   112d4:	62a3      	str	r3, [r4, #40]	; 0x28
   112d6:	62e3      	str	r3, [r4, #44]	; 0x2c
   112d8:	bd10      	pop	{r4, pc}
   112da:	bf00      	nop

000112dc <mapmem.constprop.9>:
   112dc:	b530      	push	{r4, r5, lr}
   112de:	b083      	sub	sp, #12
   112e0:	2301      	movs	r3, #1
   112e2:	9100      	str	r1, [sp, #0]
   112e4:	4601      	mov	r1, r0
   112e6:	9201      	str	r2, [sp, #4]
   112e8:	2000      	movs	r0, #0
   112ea:	2203      	movs	r2, #3
   112ec:	f7ff eab0 	blx	10850 <mmap@plt>
   112f0:	4604      	mov	r4, r0
   112f2:	3001      	adds	r0, #1
   112f4:	d002      	beq.n	112fc <mapmem.constprop.9+0x20>
   112f6:	4620      	mov	r0, r4
   112f8:	b003      	add	sp, #12
   112fa:	bd30      	pop	{r4, r5, pc}
   112fc:	f244 03b8 	movw	r3, #16568	; 0x40b8
   11300:	f2c0 0302 	movt	r3, #2
   11304:	681d      	ldr	r5, [r3, #0]
   11306:	f7ff eaec 	blx	108e0 <__errno_location@plt>
   1130a:	6800      	ldr	r0, [r0, #0]
   1130c:	f7ff ea7c 	blx	10808 <strerror@plt>
   11310:	2101      	movs	r1, #1
   11312:	f642 7358 	movw	r3, #12120	; 0x2f58
   11316:	f642 7260 	movw	r2, #12128	; 0x2f60
   1131a:	f2c0 0301 	movt	r3, #1
   1131e:	f2c0 0201 	movt	r2, #1
   11322:	9000      	str	r0, [sp, #0]
   11324:	4628      	mov	r0, r5
   11326:	f7ff ea76 	blx	10814 <__fprintf_chk@plt>
   1132a:	4620      	mov	r0, r4
   1132c:	b003      	add	sp, #12
   1132e:	bd30      	pop	{r4, r5, pc}

00011330 <bcm2835_regbase>:
   11330:	3801      	subs	r0, #1
   11332:	2809      	cmp	r0, #9
   11334:	d83c      	bhi.n	113b0 <bcm2835_regbase+0x80>
   11336:	e8df f000 	tbb	[pc, r0]
   1133a:	231d1705 	tstcs	sp, #1310720	; 0x140000
   1133e:	05352f29 	ldreq	r2, [r5, #-3881]!	; 0xfffff0d7
   11342:	f244110b 	vrhadd.s8	d17, d4, d11
   11346:	0374      	lsls	r4, r6, #13
   11348:	f2c0 0302 	movt	r3, #2
   1134c:	6a58      	ldr	r0, [r3, #36]	; 0x24
   1134e:	4770      	bx	lr
   11350:	f244 0374 	movw	r3, #16500	; 0x4074
   11354:	f2c0 0302 	movt	r3, #2
   11358:	6a98      	ldr	r0, [r3, #40]	; 0x28
   1135a:	4770      	bx	lr
   1135c:	f244 0374 	movw	r3, #16500	; 0x4074
   11360:	f2c0 0302 	movt	r3, #2
   11364:	6ad8      	ldr	r0, [r3, #44]	; 0x2c
   11366:	4770      	bx	lr
   11368:	f244 0374 	movw	r3, #16500	; 0x4074
   1136c:	f2c0 0302 	movt	r3, #2
   11370:	6898      	ldr	r0, [r3, #8]
   11372:	4770      	bx	lr
   11374:	f244 0374 	movw	r3, #16500	; 0x4074
   11378:	f2c0 0302 	movt	r3, #2
   1137c:	68d8      	ldr	r0, [r3, #12]
   1137e:	4770      	bx	lr
   11380:	f244 0374 	movw	r3, #16500	; 0x4074
   11384:	f2c0 0302 	movt	r3, #2
   11388:	6918      	ldr	r0, [r3, #16]
   1138a:	4770      	bx	lr
   1138c:	f244 0374 	movw	r3, #16500	; 0x4074
   11390:	f2c0 0302 	movt	r3, #2
   11394:	6958      	ldr	r0, [r3, #20]
   11396:	4770      	bx	lr
   11398:	f244 0374 	movw	r3, #16500	; 0x4074
   1139c:	f2c0 0302 	movt	r3, #2
   113a0:	6998      	ldr	r0, [r3, #24]
   113a2:	4770      	bx	lr
   113a4:	f244 0374 	movw	r3, #16500	; 0x4074
   113a8:	f2c0 0302 	movt	r3, #2
   113ac:	69d8      	ldr	r0, [r3, #28]
   113ae:	4770      	bx	lr
   113b0:	f04f 30ff 	mov.w	r0, #4294967295
   113b4:	4770      	bx	lr
   113b6:	bf00      	nop

000113b8 <bcm2835_set_debug>:
   113b8:	f244 03c0 	movw	r3, #16576	; 0x40c0
   113bc:	f2c0 0302 	movt	r3, #2
   113c0:	7018      	strb	r0, [r3, #0]
   113c2:	4770      	bx	lr

000113c4 <bcm2835_version>:
   113c4:	f242 704c 	movw	r0, #10060	; 0x274c
   113c8:	4770      	bx	lr
   113ca:	bf00      	nop

000113cc <bcm2835_peri_read>:
   113cc:	b508      	push	{r3, lr}
   113ce:	f244 03c0 	movw	r3, #16576	; 0x40c0
   113d2:	f2c0 0302 	movt	r3, #2
   113d6:	781b      	ldrb	r3, [r3, #0]
   113d8:	b92b      	cbnz	r3, 113e6 <bcm2835_peri_read+0x1a>
   113da:	f3bf 8f5b 	dmb	ish
   113de:	6800      	ldr	r0, [r0, #0]
   113e0:	f3bf 8f5b 	dmb	ish
   113e4:	bd08      	pop	{r3, pc}
   113e6:	4602      	mov	r2, r0
   113e8:	f642 7184 	movw	r1, #12164	; 0x2f84
   113ec:	2001      	movs	r0, #1
   113ee:	f2c0 0101 	movt	r1, #1
   113f2:	f7ff ea8a 	blx	10908 <__printf_chk@plt+0x4>
   113f6:	2000      	movs	r0, #0
   113f8:	bd08      	pop	{r3, pc}
   113fa:	bf00      	nop

000113fc <bcm2835_peri_read_nb>:
   113fc:	f244 03c0 	movw	r3, #16576	; 0x40c0
   11400:	f2c0 0302 	movt	r3, #2
   11404:	781b      	ldrb	r3, [r3, #0]
   11406:	b90b      	cbnz	r3, 1140c <bcm2835_peri_read_nb+0x10>
   11408:	6800      	ldr	r0, [r0, #0]
   1140a:	4770      	bx	lr
   1140c:	e736      	b.n	1127c <bcm2835_peri_read_nb.part.2>
   1140e:	bf00      	nop

00011410 <bcm2835_peri_write>:
   11410:	b410      	push	{r4}
   11412:	f244 04c0 	movw	r4, #16576	; 0x40c0
   11416:	f2c0 0402 	movt	r4, #2
   1141a:	7823      	ldrb	r3, [r4, #0]
   1141c:	b93b      	cbnz	r3, 1142e <bcm2835_peri_write+0x1e>
   1141e:	f3bf 8f5b 	dmb	ish
   11422:	6001      	str	r1, [r0, #0]
   11424:	f3bf 8f5b 	dmb	ish
   11428:	f85d 4b04 	ldr.w	r4, [sp], #4
   1142c:	4770      	bx	lr
   1142e:	460b      	mov	r3, r1
   11430:	4602      	mov	r2, r0
   11432:	f642 71a4 	movw	r1, #12196	; 0x2fa4
   11436:	2001      	movs	r0, #1
   11438:	f2c0 0101 	movt	r1, #1
   1143c:	f85d 4b04 	ldr.w	r4, [sp], #4
   11440:	f7ff ba60 	b.w	10904 <__printf_chk@plt>

00011444 <bcm2835_gpio_pud.part.5>:
   11444:	f244 0374 	movw	r3, #16500	; 0x4074
   11448:	f2c0 0302 	movt	r3, #2
   1144c:	4601      	mov	r1, r0
   1144e:	6898      	ldr	r0, [r3, #8]
   11450:	3094      	adds	r0, #148	; 0x94
   11452:	f7ff bfdd 	b.w	11410 <bcm2835_peri_write>
   11456:	bf00      	nop

00011458 <bcm2835_peri_write_nb>:
   11458:	f244 03c0 	movw	r3, #16576	; 0x40c0
   1145c:	f2c0 0302 	movt	r3, #2
   11460:	781b      	ldrb	r3, [r3, #0]
   11462:	b92b      	cbnz	r3, 11470 <bcm2835_peri_write_nb+0x18>
   11464:	b410      	push	{r4}
   11466:	4602      	mov	r2, r0
   11468:	6011      	str	r1, [r2, #0]
   1146a:	f85d 4b04 	ldr.w	r4, [sp], #4
   1146e:	4770      	bx	lr
   11470:	e710      	b.n	11294 <bcm2835_peri_write_nb.part.4>
   11472:	bf00      	nop

00011474 <bcm2835_peri_set_bits>:
   11474:	b570      	push	{r4, r5, r6, lr}
   11476:	460d      	mov	r5, r1
   11478:	4606      	mov	r6, r0
   1147a:	4614      	mov	r4, r2
   1147c:	f7ff ffa6 	bl	113cc <bcm2835_peri_read>
   11480:	4045      	eors	r5, r0
   11482:	4601      	mov	r1, r0
   11484:	402c      	ands	r4, r5
   11486:	4630      	mov	r0, r6
   11488:	4061      	eors	r1, r4
   1148a:	e8bd 4070 	ldmia.w	sp!, {r4, r5, r6, lr}
   1148e:	f7ff bfbf 	b.w	11410 <bcm2835_peri_write>
   11492:	bf00      	nop

00011494 <bcm2835_gpio_fsel>:
   11494:	b470      	push	{r4, r5, r6}
   11496:	f64c 44cd 	movw	r4, #52429	; 0xcccd
   1149a:	f6cc 44cc 	movt	r4, #52428	; 0xcccc
   1149e:	230a      	movs	r3, #10
   114a0:	2207      	movs	r2, #7
   114a2:	fba0 4504 	umull	r4, r5, r0, r4
   114a6:	f244 0474 	movw	r4, #16500	; 0x4074
   114aa:	f2c0 0402 	movt	r4, #2
   114ae:	68a6      	ldr	r6, [r4, #8]
   114b0:	08ec      	lsrs	r4, r5, #3
   114b2:	fb03 0314 	mls	r3, r3, r4, r0
   114b6:	b2e0      	uxtb	r0, r4
   114b8:	eb06 0080 	add.w	r0, r6, r0, lsl #2
   114bc:	bc70      	pop	{r4, r5, r6}
   114be:	eb03 0343 	add.w	r3, r3, r3, lsl #1
   114c2:	b2db      	uxtb	r3, r3
   114c4:	4099      	lsls	r1, r3
   114c6:	409a      	lsls	r2, r3
   114c8:	f7ff bfd4 	b.w	11474 <bcm2835_peri_set_bits>

000114cc <bcm2835_gpio_set>:
   114cc:	f244 0274 	movw	r2, #16500	; 0x4074
   114d0:	f2c0 0202 	movt	r2, #2
   114d4:	0943      	lsrs	r3, r0, #5
   114d6:	f000 011f 	and.w	r1, r0, #31
   114da:	3307      	adds	r3, #7
   114dc:	6890      	ldr	r0, [r2, #8]
   114de:	2201      	movs	r2, #1
   114e0:	fa02 f101 	lsl.w	r1, r2, r1
   114e4:	eb00 0083 	add.w	r0, r0, r3, lsl #2
   114e8:	f7ff bf92 	b.w	11410 <bcm2835_peri_write>

000114ec <bcm2835_gpio_clr>:
   114ec:	f244 0274 	movw	r2, #16500	; 0x4074
   114f0:	f2c0 0202 	movt	r2, #2
   114f4:	0943      	lsrs	r3, r0, #5
   114f6:	f000 011f 	and.w	r1, r0, #31
   114fa:	330a      	adds	r3, #10
   114fc:	6890      	ldr	r0, [r2, #8]
   114fe:	2201      	movs	r2, #1
   11500:	fa02 f101 	lsl.w	r1, r2, r1
   11504:	eb00 0083 	add.w	r0, r0, r3, lsl #2
   11508:	f7ff bf82 	b.w	11410 <bcm2835_peri_write>

0001150c <bcm2835_gpio_set_multi>:
   1150c:	f244 0374 	movw	r3, #16500	; 0x4074
   11510:	f2c0 0302 	movt	r3, #2
   11514:	4601      	mov	r1, r0
   11516:	6898      	ldr	r0, [r3, #8]
   11518:	301c      	adds	r0, #28
   1151a:	f7ff bf79 	b.w	11410 <bcm2835_peri_write>
   1151e:	bf00      	nop

00011520 <bcm2835_gpio_clr_multi>:
   11520:	f244 0374 	movw	r3, #16500	; 0x4074
   11524:	f2c0 0302 	movt	r3, #2
   11528:	4601      	mov	r1, r0
   1152a:	6898      	ldr	r0, [r3, #8]
   1152c:	3028      	adds	r0, #40	; 0x28
   1152e:	f7ff bf6f 	b.w	11410 <bcm2835_peri_write>
   11532:	bf00      	nop

00011534 <bcm2835_gpio_lev>:
   11534:	f244 0274 	movw	r2, #16500	; 0x4074
   11538:	f2c0 0202 	movt	r2, #2
   1153c:	0943      	lsrs	r3, r0, #5
   1153e:	b510      	push	{r4, lr}
   11540:	330d      	adds	r3, #13
   11542:	4604      	mov	r4, r0
   11544:	6890      	ldr	r0, [r2, #8]
   11546:	f004 041f 	and.w	r4, r4, #31
   1154a:	eb00 0083 	add.w	r0, r0, r3, lsl #2
   1154e:	f7ff ff3d 	bl	113cc <bcm2835_peri_read>
   11552:	2301      	movs	r3, #1
   11554:	fa03 f404 	lsl.w	r4, r3, r4
   11558:	4204      	tst	r4, r0
   1155a:	bf14      	ite	ne
   1155c:	4618      	movne	r0, r3
   1155e:	2000      	moveq	r0, #0
   11560:	bd10      	pop	{r4, pc}
   11562:	bf00      	nop

00011564 <bcm2835_gpio_eds>:
   11564:	f244 0274 	movw	r2, #16500	; 0x4074
   11568:	f2c0 0202 	movt	r2, #2
   1156c:	0943      	lsrs	r3, r0, #5
   1156e:	b510      	push	{r4, lr}
   11570:	3310      	adds	r3, #16
   11572:	4604      	mov	r4, r0
   11574:	6890      	ldr	r0, [r2, #8]
   11576:	f004 041f 	and.w	r4, r4, #31
   1157a:	eb00 0083 	add.w	r0, r0, r3, lsl #2
   1157e:	f7ff ff25 	bl	113cc <bcm2835_peri_read>
   11582:	2301      	movs	r3, #1
   11584:	fa03 f404 	lsl.w	r4, r3, r4
   11588:	4204      	tst	r4, r0
   1158a:	bf14      	ite	ne
   1158c:	4618      	movne	r0, r3
   1158e:	2000      	moveq	r0, #0
   11590:	bd10      	pop	{r4, pc}
   11592:	bf00      	nop

00011594 <bcm2835_gpio_eds_multi>:
   11594:	f244 0374 	movw	r3, #16500	; 0x4074
   11598:	f2c0 0302 	movt	r3, #2
   1159c:	b510      	push	{r4, lr}
   1159e:	4604      	mov	r4, r0
   115a0:	6898      	ldr	r0, [r3, #8]
   115a2:	3040      	adds	r0, #64	; 0x40
   115a4:	f7ff ff12 	bl	113cc <bcm2835_peri_read>
   115a8:	4020      	ands	r0, r4
   115aa:	bd10      	pop	{r4, pc}

000115ac <bcm2835_gpio_set_eds>:
   115ac:	f244 0274 	movw	r2, #16500	; 0x4074
   115b0:	f2c0 0202 	movt	r2, #2
   115b4:	0943      	lsrs	r3, r0, #5
   115b6:	f000 011f 	and.w	r1, r0, #31
   115ba:	3310      	adds	r3, #16
   115bc:	6890      	ldr	r0, [r2, #8]
   115be:	2201      	movs	r2, #1
   115c0:	fa02 f101 	lsl.w	r1, r2, r1
   115c4:	eb00 0083 	add.w	r0, r0, r3, lsl #2
   115c8:	f7ff bf22 	b.w	11410 <bcm2835_peri_write>

000115cc <bcm2835_gpio_set_eds_multi>:
   115cc:	f244 0374 	movw	r3, #16500	; 0x4074
   115d0:	f2c0 0302 	movt	r3, #2
   115d4:	4601      	mov	r1, r0
   115d6:	6898      	ldr	r0, [r3, #8]
   115d8:	3040      	adds	r0, #64	; 0x40
   115da:	f7ff bf19 	b.w	11410 <bcm2835_peri_write>
   115de:	bf00      	nop

000115e0 <bcm2835_gpio_ren>:
   115e0:	f244 0374 	movw	r3, #16500	; 0x4074
   115e4:	f2c0 0302 	movt	r3, #2
   115e8:	f000 011f 	and.w	r1, r0, #31
   115ec:	2201      	movs	r2, #1
   115ee:	0940      	lsrs	r0, r0, #5
   115f0:	689b      	ldr	r3, [r3, #8]
   115f2:	3013      	adds	r0, #19
   115f4:	408a      	lsls	r2, r1
   115f6:	eb03 0080 	add.w	r0, r3, r0, lsl #2
   115fa:	4611      	mov	r1, r2
   115fc:	f7ff bf3a 	b.w	11474 <bcm2835_peri_set_bits>

00011600 <bcm2835_gpio_clr_ren>:
   11600:	f244 0174 	movw	r1, #16500	; 0x4074
   11604:	f2c0 0102 	movt	r1, #2
   11608:	0943      	lsrs	r3, r0, #5
   1160a:	f000 021f 	and.w	r2, r0, #31
   1160e:	3313      	adds	r3, #19
   11610:	6888      	ldr	r0, [r1, #8]
   11612:	2101      	movs	r1, #1
   11614:	fa01 f202 	lsl.w	r2, r1, r2
   11618:	eb00 0083 	add.w	r0, r0, r3, lsl #2
   1161c:	2100      	movs	r1, #0
   1161e:	f7ff bf29 	b.w	11474 <bcm2835_peri_set_bits>
   11622:	bf00      	nop

00011624 <bcm2835_gpio_fen>:
   11624:	f244 0374 	movw	r3, #16500	; 0x4074
   11628:	f2c0 0302 	movt	r3, #2
   1162c:	f000 011f 	and.w	r1, r0, #31
   11630:	2201      	movs	r2, #1
   11632:	0940      	lsrs	r0, r0, #5
   11634:	689b      	ldr	r3, [r3, #8]
   11636:	3016      	adds	r0, #22
   11638:	408a      	lsls	r2, r1
   1163a:	eb03 0080 	add.w	r0, r3, r0, lsl #2
   1163e:	4611      	mov	r1, r2
   11640:	f7ff bf18 	b.w	11474 <bcm2835_peri_set_bits>

00011644 <bcm2835_gpio_clr_fen>:
   11644:	f244 0174 	movw	r1, #16500	; 0x4074
   11648:	f2c0 0102 	movt	r1, #2
   1164c:	0943      	lsrs	r3, r0, #5
   1164e:	f000 021f 	and.w	r2, r0, #31
   11652:	3316      	adds	r3, #22
   11654:	6888      	ldr	r0, [r1, #8]
   11656:	2101      	movs	r1, #1
   11658:	fa01 f202 	lsl.w	r2, r1, r2
   1165c:	eb00 0083 	add.w	r0, r0, r3, lsl #2
   11660:	2100      	movs	r1, #0
   11662:	f7ff bf07 	b.w	11474 <bcm2835_peri_set_bits>
   11666:	bf00      	nop

00011668 <bcm2835_gpio_hen>:
   11668:	f244 0374 	movw	r3, #16500	; 0x4074
   1166c:	f2c0 0302 	movt	r3, #2
   11670:	f000 011f 	and.w	r1, r0, #31
   11674:	2201      	movs	r2, #1
   11676:	0940      	lsrs	r0, r0, #5
   11678:	689b      	ldr	r3, [r3, #8]
   1167a:	3019      	adds	r0, #25
   1167c:	408a      	lsls	r2, r1
   1167e:	eb03 0080 	add.w	r0, r3, r0, lsl #2
   11682:	4611      	mov	r1, r2
   11684:	f7ff bef6 	b.w	11474 <bcm2835_peri_set_bits>

00011688 <bcm2835_gpio_clr_hen>:
   11688:	f244 0174 	movw	r1, #16500	; 0x4074
   1168c:	f2c0 0102 	movt	r1, #2
   11690:	0943      	lsrs	r3, r0, #5
   11692:	f000 021f 	and.w	r2, r0, #31
   11696:	3319      	adds	r3, #25
   11698:	6888      	ldr	r0, [r1, #8]
   1169a:	2101      	movs	r1, #1
   1169c:	fa01 f202 	lsl.w	r2, r1, r2
   116a0:	eb00 0083 	add.w	r0, r0, r3, lsl #2
   116a4:	2100      	movs	r1, #0
   116a6:	f7ff bee5 	b.w	11474 <bcm2835_peri_set_bits>
   116aa:	bf00      	nop

000116ac <bcm2835_gpio_len>:
   116ac:	f244 0374 	movw	r3, #16500	; 0x4074
   116b0:	f2c0 0302 	movt	r3, #2
   116b4:	f000 011f 	and.w	r1, r0, #31
   116b8:	2201      	movs	r2, #1
   116ba:	0940      	lsrs	r0, r0, #5
   116bc:	689b      	ldr	r3, [r3, #8]
   116be:	301c      	adds	r0, #28
   116c0:	408a      	lsls	r2, r1
   116c2:	eb03 0080 	add.w	r0, r3, r0, lsl #2
   116c6:	4611      	mov	r1, r2
   116c8:	f7ff bed4 	b.w	11474 <bcm2835_peri_set_bits>

000116cc <bcm2835_gpio_clr_len>:
   116cc:	f244 0174 	movw	r1, #16500	; 0x4074
   116d0:	f2c0 0102 	movt	r1, #2
   116d4:	0943      	lsrs	r3, r0, #5
   116d6:	f000 021f 	and.w	r2, r0, #31
   116da:	331c      	adds	r3, #28
   116dc:	6888      	ldr	r0, [r1, #8]
   116de:	2101      	movs	r1, #1
   116e0:	fa01 f202 	lsl.w	r2, r1, r2
   116e4:	eb00 0083 	add.w	r0, r0, r3, lsl #2
   116e8:	2100      	movs	r1, #0
   116ea:	f7ff bec3 	b.w	11474 <bcm2835_peri_set_bits>
   116ee:	bf00      	nop

000116f0 <bcm2835_gpio_aren>:
   116f0:	f244 0374 	movw	r3, #16500	; 0x4074
   116f4:	f2c0 0302 	movt	r3, #2
   116f8:	f000 011f 	and.w	r1, r0, #31
   116fc:	2201      	movs	r2, #1
   116fe:	0940      	lsrs	r0, r0, #5
   11700:	689b      	ldr	r3, [r3, #8]
   11702:	301f      	adds	r0, #31
   11704:	408a      	lsls	r2, r1
   11706:	eb03 0080 	add.w	r0, r3, r0, lsl #2
   1170a:	4611      	mov	r1, r2
   1170c:	f7ff beb2 	b.w	11474 <bcm2835_peri_set_bits>

00011710 <bcm2835_gpio_clr_aren>:
   11710:	f244 0174 	movw	r1, #16500	; 0x4074
   11714:	f2c0 0102 	movt	r1, #2
   11718:	0943      	lsrs	r3, r0, #5
   1171a:	f000 021f 	and.w	r2, r0, #31
   1171e:	331f      	adds	r3, #31
   11720:	6888      	ldr	r0, [r1, #8]
   11722:	2101      	movs	r1, #1
   11724:	fa01 f202 	lsl.w	r2, r1, r2
   11728:	eb00 0083 	add.w	r0, r0, r3, lsl #2
   1172c:	2100      	movs	r1, #0
   1172e:	f7ff bea1 	b.w	11474 <bcm2835_peri_set_bits>
   11732:	bf00      	nop

00011734 <bcm2835_gpio_afen>:
   11734:	f244 0374 	movw	r3, #16500	; 0x4074
   11738:	f2c0 0302 	movt	r3, #2
   1173c:	f000 011f 	and.w	r1, r0, #31
   11740:	2201      	movs	r2, #1
   11742:	0940      	lsrs	r0, r0, #5
   11744:	689b      	ldr	r3, [r3, #8]
   11746:	3022      	adds	r0, #34	; 0x22
   11748:	408a      	lsls	r2, r1
   1174a:	eb03 0080 	add.w	r0, r3, r0, lsl #2
   1174e:	4611      	mov	r1, r2
   11750:	f7ff be90 	b.w	11474 <bcm2835_peri_set_bits>

00011754 <bcm2835_gpio_clr_afen>:
   11754:	f244 0174 	movw	r1, #16500	; 0x4074
   11758:	f2c0 0102 	movt	r1, #2
   1175c:	0943      	lsrs	r3, r0, #5
   1175e:	f000 021f 	and.w	r2, r0, #31
   11762:	3322      	adds	r3, #34	; 0x22
   11764:	6888      	ldr	r0, [r1, #8]
   11766:	2101      	movs	r1, #1
   11768:	fa01 f202 	lsl.w	r2, r1, r2
   1176c:	eb00 0083 	add.w	r0, r0, r3, lsl #2
   11770:	2100      	movs	r1, #0
   11772:	f7ff be7f 	b.w	11474 <bcm2835_peri_set_bits>
   11776:	bf00      	nop

00011778 <bcm2835_gpio_pud>:
   11778:	f244 03c0 	movw	r3, #16576	; 0x40c0
   1177c:	f2c0 0302 	movt	r3, #2
   11780:	785a      	ldrb	r2, [r3, #1]
   11782:	b10a      	cbz	r2, 11788 <bcm2835_gpio_pud+0x10>
   11784:	7098      	strb	r0, [r3, #2]
   11786:	4770      	bx	lr
   11788:	e65c      	b.n	11444 <bcm2835_gpio_pud.part.5>
   1178a:	bf00      	nop

0001178c <bcm2835_gpio_pad>:
   1178c:	f244 0374 	movw	r3, #16500	; 0x4074
   11790:	f2c0 0302 	movt	r3, #2
   11794:	695b      	ldr	r3, [r3, #20]
   11796:	1c5a      	adds	r2, r3, #1
   11798:	d004      	beq.n	117a4 <bcm2835_gpio_pad+0x18>
   1179a:	300b      	adds	r0, #11
   1179c:	eb03 0080 	add.w	r0, r3, r0, lsl #2
   117a0:	f7ff be14 	b.w	113cc <bcm2835_peri_read>
   117a4:	2000      	movs	r0, #0
   117a6:	4770      	bx	lr

000117a8 <bcm2835_gpio_set_pad>:
   117a8:	f244 0374 	movw	r3, #16500	; 0x4074
   117ac:	f2c0 0302 	movt	r3, #2
   117b0:	695b      	ldr	r3, [r3, #20]
   117b2:	1c5a      	adds	r2, r3, #1
   117b4:	d006      	beq.n	117c4 <bcm2835_gpio_set_pad+0x1c>
   117b6:	300b      	adds	r0, #11
   117b8:	f041 41b4 	orr.w	r1, r1, #1509949440	; 0x5a000000
   117bc:	eb03 0080 	add.w	r0, r3, r0, lsl #2
   117c0:	f7ff be26 	b.w	11410 <bcm2835_peri_write>
   117c4:	4770      	bx	lr
   117c6:	bf00      	nop

000117c8 <bcm2835_delay>:
   117c8:	b5f0      	push	{r4, r5, r6, r7, lr}
   117ca:	f644 54d3 	movw	r4, #19923	; 0x4dd3
   117ce:	f2c1 0462 	movt	r4, #4194	; 0x1062
   117d2:	b085      	sub	sp, #20
   117d4:	4606      	mov	r6, r0
   117d6:	f44f 777a 	mov.w	r7, #1000	; 0x3e8
   117da:	fba0 4504 	umull	r4, r5, r0, r4
   117de:	f244 2340 	movw	r3, #16960	; 0x4240
   117e2:	f2c0 030f 	movt	r3, #15
   117e6:	f244 04b0 	movw	r4, #16560	; 0x40b0
   117ea:	f2c0 0402 	movt	r4, #2
   117ee:	2100      	movs	r1, #0
   117f0:	a801      	add	r0, sp, #4
   117f2:	09aa      	lsrs	r2, r5, #6
   117f4:	9201      	str	r2, [sp, #4]
   117f6:	6825      	ldr	r5, [r4, #0]
   117f8:	fb07 6212 	mls	r2, r7, r2, r6
   117fc:	9503      	str	r5, [sp, #12]
   117fe:	fb03 f302 	mul.w	r3, r3, r2
   11802:	9302      	str	r3, [sp, #8]
   11804:	f7ff e80c 	blx	10820 <nanosleep@plt>
   11808:	9a03      	ldr	r2, [sp, #12]
   1180a:	6823      	ldr	r3, [r4, #0]
   1180c:	429a      	cmp	r2, r3
   1180e:	d101      	bne.n	11814 <bcm2835_delay+0x4c>
   11810:	b005      	add	sp, #20
   11812:	bdf0      	pop	{r4, r5, r6, r7, pc}
   11814:	f7ff e82e 	blx	10874 <__stack_chk_fail@plt>

00011818 <bcm2835_gpio_write>:
   11818:	b909      	cbnz	r1, 1181e <bcm2835_gpio_write+0x6>
   1181a:	f7ff be67 	b.w	114ec <bcm2835_gpio_clr>
   1181e:	f7ff be55 	b.w	114cc <bcm2835_gpio_set>
   11822:	bf00      	nop

00011824 <bcm2835_gpio_write_multi>:
   11824:	f244 0374 	movw	r3, #16500	; 0x4074
   11828:	f2c0 0302 	movt	r3, #2
   1182c:	b921      	cbnz	r1, 11838 <bcm2835_gpio_write_multi+0x14>
   1182e:	4601      	mov	r1, r0
   11830:	6898      	ldr	r0, [r3, #8]
   11832:	3028      	adds	r0, #40	; 0x28
   11834:	f7ff bdec 	b.w	11410 <bcm2835_peri_write>
   11838:	4601      	mov	r1, r0
   1183a:	6898      	ldr	r0, [r3, #8]
   1183c:	301c      	adds	r0, #28
   1183e:	f7ff bde7 	b.w	11410 <bcm2835_peri_write>
   11842:	bf00      	nop

00011844 <bcm2835_gpio_write_mask>:
   11844:	b570      	push	{r4, r5, r6, lr}
   11846:	f244 0474 	movw	r4, #16500	; 0x4074
   1184a:	f2c0 0402 	movt	r4, #2
   1184e:	4606      	mov	r6, r0
   11850:	460d      	mov	r5, r1
   11852:	4031      	ands	r1, r6
   11854:	68a0      	ldr	r0, [r4, #8]
   11856:	301c      	adds	r0, #28
   11858:	f7ff fdda 	bl	11410 <bcm2835_peri_write>
   1185c:	68a0      	ldr	r0, [r4, #8]
   1185e:	ea25 0106 	bic.w	r1, r5, r6
   11862:	3028      	adds	r0, #40	; 0x28
   11864:	e8bd 4070 	ldmia.w	sp!, {r4, r5, r6, lr}
   11868:	f7ff bdd2 	b.w	11410 <bcm2835_peri_write>

0001186c <bcm2835_gpio_get_pud>:
   1186c:	f244 03c0 	movw	r3, #16576	; 0x40c0
   11870:	f2c0 0302 	movt	r3, #2
   11874:	785a      	ldrb	r2, [r3, #1]
   11876:	b90a      	cbnz	r2, 1187c <bcm2835_gpio_get_pud+0x10>
   11878:	2008      	movs	r0, #8
   1187a:	4770      	bx	lr
   1187c:	f244 0274 	movw	r2, #16500	; 0x4074
   11880:	f2c0 0202 	movt	r2, #2
   11884:	b510      	push	{r4, lr}
   11886:	4604      	mov	r4, r0
   11888:	7819      	ldrb	r1, [r3, #0]
   1188a:	0903      	lsrs	r3, r0, #4
   1188c:	6892      	ldr	r2, [r2, #8]
   1188e:	3339      	adds	r3, #57	; 0x39
   11890:	eb02 0083 	add.w	r0, r2, r3, lsl #2
   11894:	b991      	cbnz	r1, 118bc <bcm2835_gpio_get_pud+0x50>
   11896:	f852 0023 	ldr.w	r0, [r2, r3, lsl #2]
   1189a:	f004 040f 	and.w	r4, r4, #15
   1189e:	0064      	lsls	r4, r4, #1
   118a0:	fa20 f404 	lsr.w	r4, r0, r4
   118a4:	f004 0403 	and.w	r4, r4, #3
   118a8:	2c01      	cmp	r4, #1
   118aa:	d00a      	beq.n	118c2 <bcm2835_gpio_get_pud+0x56>
   118ac:	d304      	bcc.n	118b8 <bcm2835_gpio_get_pud+0x4c>
   118ae:	2c02      	cmp	r4, #2
   118b0:	bf0c      	ite	eq
   118b2:	2001      	moveq	r0, #1
   118b4:	2008      	movne	r0, #8
   118b6:	bd10      	pop	{r4, pc}
   118b8:	2000      	movs	r0, #0
   118ba:	bd10      	pop	{r4, pc}
   118bc:	f7ff fcde 	bl	1127c <bcm2835_peri_read_nb.part.2>
   118c0:	e7eb      	b.n	1189a <bcm2835_gpio_get_pud+0x2e>
   118c2:	2002      	movs	r0, #2
   118c4:	bd10      	pop	{r4, pc}
   118c6:	bf00      	nop

000118c8 <bcm2835_spi_begin>:
   118c8:	b510      	push	{r4, lr}
   118ca:	f244 0474 	movw	r4, #16500	; 0x4074
   118ce:	f2c0 0402 	movt	r4, #2
   118d2:	69a3      	ldr	r3, [r4, #24]
   118d4:	3301      	adds	r3, #1
   118d6:	d02f      	beq.n	11938 <bcm2835_spi_begin+0x70>
   118d8:	68a0      	ldr	r0, [r4, #8]
   118da:	f44f 0260 	mov.w	r2, #14680064	; 0xe00000
   118de:	f44f 0100 	mov.w	r1, #8388608	; 0x800000
   118e2:	f7ff fdc7 	bl	11474 <bcm2835_peri_set_bits>
   118e6:	68a0      	ldr	r0, [r4, #8]
   118e8:	f04f 62e0 	mov.w	r2, #117440512	; 0x7000000
   118ec:	f04f 6180 	mov.w	r1, #67108864	; 0x4000000
   118f0:	f7ff fdc0 	bl	11474 <bcm2835_peri_set_bits>
   118f4:	68a0      	ldr	r0, [r4, #8]
   118f6:	f04f 5260 	mov.w	r2, #939524096	; 0x38000000
   118fa:	f04f 5100 	mov.w	r1, #536870912	; 0x20000000
   118fe:	f7ff fdb9 	bl	11474 <bcm2835_peri_set_bits>
   11902:	68a0      	ldr	r0, [r4, #8]
   11904:	2104      	movs	r1, #4
   11906:	2207      	movs	r2, #7
   11908:	4408      	add	r0, r1
   1190a:	f7ff fdb3 	bl	11474 <bcm2835_peri_set_bits>
   1190e:	68a0      	ldr	r0, [r4, #8]
   11910:	2238      	movs	r2, #56	; 0x38
   11912:	2120      	movs	r1, #32
   11914:	3004      	adds	r0, #4
   11916:	f7ff fdad 	bl	11474 <bcm2835_peri_set_bits>
   1191a:	69a4      	ldr	r4, [r4, #24]
   1191c:	2100      	movs	r1, #0
   1191e:	4620      	mov	r0, r4
   11920:	f7ff fd76 	bl	11410 <bcm2835_peri_write>
   11924:	f244 03c0 	movw	r3, #16576	; 0x40c0
   11928:	f2c0 0302 	movt	r3, #2
   1192c:	781b      	ldrb	r3, [r3, #0]
   1192e:	b92b      	cbnz	r3, 1193c <bcm2835_spi_begin+0x74>
   11930:	2330      	movs	r3, #48	; 0x30
   11932:	2001      	movs	r0, #1
   11934:	6023      	str	r3, [r4, #0]
   11936:	bd10      	pop	{r4, pc}
   11938:	2000      	movs	r0, #0
   1193a:	bd10      	pop	{r4, pc}
   1193c:	4620      	mov	r0, r4
   1193e:	2130      	movs	r1, #48	; 0x30
   11940:	f7ff fca8 	bl	11294 <bcm2835_peri_write_nb.part.4>
   11944:	2001      	movs	r0, #1
   11946:	bd10      	pop	{r4, pc}

00011948 <bcm2835_spi_end>:
   11948:	b510      	push	{r4, lr}
   1194a:	f244 0474 	movw	r4, #16500	; 0x4074
   1194e:	f2c0 0402 	movt	r4, #2
   11952:	f44f 0260 	mov.w	r2, #14680064	; 0xe00000
   11956:	2100      	movs	r1, #0
   11958:	68a0      	ldr	r0, [r4, #8]
   1195a:	f7ff fd8b 	bl	11474 <bcm2835_peri_set_bits>
   1195e:	68a0      	ldr	r0, [r4, #8]
   11960:	f04f 62e0 	mov.w	r2, #117440512	; 0x7000000
   11964:	2100      	movs	r1, #0
   11966:	f7ff fd85 	bl	11474 <bcm2835_peri_set_bits>
   1196a:	68a0      	ldr	r0, [r4, #8]
   1196c:	f04f 5260 	mov.w	r2, #939524096	; 0x38000000
   11970:	2100      	movs	r1, #0
   11972:	f7ff fd7f 	bl	11474 <bcm2835_peri_set_bits>
   11976:	68a0      	ldr	r0, [r4, #8]
   11978:	2207      	movs	r2, #7
   1197a:	2100      	movs	r1, #0
   1197c:	3004      	adds	r0, #4
   1197e:	f7ff fd79 	bl	11474 <bcm2835_peri_set_bits>
   11982:	68a0      	ldr	r0, [r4, #8]
   11984:	2238      	movs	r2, #56	; 0x38
   11986:	2100      	movs	r1, #0
   11988:	3004      	adds	r0, #4
   1198a:	e8bd 4010 	ldmia.w	sp!, {r4, lr}
   1198e:	f7ff bd71 	b.w	11474 <bcm2835_peri_set_bits>
   11992:	bf00      	nop

00011994 <bcm2835_spi_setBitOrder>:
   11994:	f244 0374 	movw	r3, #16500	; 0x4074
   11998:	f2c0 0302 	movt	r3, #2
   1199c:	f883 0030 	strb.w	r0, [r3, #48]	; 0x30
   119a0:	4770      	bx	lr
   119a2:	bf00      	nop

000119a4 <bcm2835_spi_setClockDivider>:
   119a4:	f244 0374 	movw	r3, #16500	; 0x4074
   119a8:	f2c0 0302 	movt	r3, #2
   119ac:	4601      	mov	r1, r0
   119ae:	6998      	ldr	r0, [r3, #24]
   119b0:	3008      	adds	r0, #8
   119b2:	f7ff bd2d 	b.w	11410 <bcm2835_peri_write>
   119b6:	bf00      	nop

000119b8 <bcm2835_spi_set_speed_hz>:
   119b8:	b508      	push	{r3, lr}
   119ba:	4601      	mov	r1, r0
   119bc:	f24b 2080 	movw	r0, #45696	; 0xb280
   119c0:	f6c0 60e6 	movt	r0, #3814	; 0xee6
   119c4:	f7fe ef6e 	blx	108a4 <__aeabi_uidiv@plt>
   119c8:	f244 0374 	movw	r3, #16500	; 0x4074
   119cc:	f2c0 0302 	movt	r3, #2
   119d0:	f64f 71fe 	movw	r1, #65534	; 0xfffe
   119d4:	699b      	ldr	r3, [r3, #24]
   119d6:	4001      	ands	r1, r0
   119d8:	f103 0008 	add.w	r0, r3, #8
   119dc:	e8bd 4008 	ldmia.w	sp!, {r3, lr}
   119e0:	f7ff bd16 	b.w	11410 <bcm2835_peri_write>

000119e4 <bcm2835_spi_setDataMode>:
   119e4:	f244 0374 	movw	r3, #16500	; 0x4074
   119e8:	f2c0 0302 	movt	r3, #2
   119ec:	0081      	lsls	r1, r0, #2
   119ee:	220c      	movs	r2, #12
   119f0:	6998      	ldr	r0, [r3, #24]
   119f2:	f7ff bd3f 	b.w	11474 <bcm2835_peri_set_bits>
   119f6:	bf00      	nop

000119f8 <bcm2835_spi_transfer>:
   119f8:	b5f8      	push	{r3, r4, r5, r6, r7, lr}
   119fa:	f244 0674 	movw	r6, #16500	; 0x4074
   119fe:	f2c0 0602 	movt	r6, #2
   11a02:	2230      	movs	r2, #48	; 0x30
   11a04:	4611      	mov	r1, r2
   11a06:	4605      	mov	r5, r0
   11a08:	69b4      	ldr	r4, [r6, #24]
   11a0a:	1d27      	adds	r7, r4, #4
   11a0c:	4620      	mov	r0, r4
   11a0e:	f7ff fd31 	bl	11474 <bcm2835_peri_set_bits>
   11a12:	2280      	movs	r2, #128	; 0x80
   11a14:	4620      	mov	r0, r4
   11a16:	4611      	mov	r1, r2
   11a18:	f7ff fd2c 	bl	11474 <bcm2835_peri_set_bits>
   11a1c:	4620      	mov	r0, r4
   11a1e:	f7ff fcd5 	bl	113cc <bcm2835_peri_read>
   11a22:	0341      	lsls	r1, r0, #13
   11a24:	d5fa      	bpl.n	11a1c <bcm2835_spi_transfer+0x24>
   11a26:	f896 3030 	ldrb.w	r3, [r6, #48]	; 0x30
   11a2a:	4629      	mov	r1, r5
   11a2c:	b923      	cbnz	r3, 11a38 <bcm2835_spi_transfer+0x40>
   11a2e:	f642 630c 	movw	r3, #11788	; 0x2e0c
   11a32:	f2c0 0301 	movt	r3, #1
   11a36:	5d59      	ldrb	r1, [r3, r5]
   11a38:	f244 05c0 	movw	r5, #16576	; 0x40c0
   11a3c:	f2c0 0502 	movt	r5, #2
   11a40:	782b      	ldrb	r3, [r5, #0]
   11a42:	b9e3      	cbnz	r3, 11a7e <bcm2835_spi_transfer+0x86>
   11a44:	6061      	str	r1, [r4, #4]
   11a46:	b9ab      	cbnz	r3, 11a74 <bcm2835_spi_transfer+0x7c>
   11a48:	6820      	ldr	r0, [r4, #0]
   11a4a:	03c2      	lsls	r2, r0, #15
   11a4c:	d5fb      	bpl.n	11a46 <bcm2835_spi_transfer+0x4e>
   11a4e:	b9db      	cbnz	r3, 11a88 <bcm2835_spi_transfer+0x90>
   11a50:	6860      	ldr	r0, [r4, #4]
   11a52:	f896 3030 	ldrb.w	r3, [r6, #48]	; 0x30
   11a56:	b2c5      	uxtb	r5, r0
   11a58:	b92b      	cbnz	r3, 11a66 <bcm2835_spi_transfer+0x6e>
   11a5a:	b2c0      	uxtb	r0, r0
   11a5c:	f642 630c 	movw	r3, #11788	; 0x2e0c
   11a60:	f2c0 0301 	movt	r3, #1
   11a64:	5c1d      	ldrb	r5, [r3, r0]
   11a66:	4620      	mov	r0, r4
   11a68:	2280      	movs	r2, #128	; 0x80
   11a6a:	2100      	movs	r1, #0
   11a6c:	f7ff fd02 	bl	11474 <bcm2835_peri_set_bits>
   11a70:	4628      	mov	r0, r5
   11a72:	bdf8      	pop	{r3, r4, r5, r6, r7, pc}
   11a74:	4620      	mov	r0, r4
   11a76:	f7ff fc01 	bl	1127c <bcm2835_peri_read_nb.part.2>
   11a7a:	782b      	ldrb	r3, [r5, #0]
   11a7c:	e7e5      	b.n	11a4a <bcm2835_spi_transfer+0x52>
   11a7e:	4638      	mov	r0, r7
   11a80:	f7ff fc08 	bl	11294 <bcm2835_peri_write_nb.part.4>
   11a84:	782b      	ldrb	r3, [r5, #0]
   11a86:	e7de      	b.n	11a46 <bcm2835_spi_transfer+0x4e>
   11a88:	4638      	mov	r0, r7
   11a8a:	f7ff fbf7 	bl	1127c <bcm2835_peri_read_nb.part.2>
   11a8e:	e7e0      	b.n	11a52 <bcm2835_spi_transfer+0x5a>

00011a90 <bcm2835_spi_transfernb>:
   11a90:	e92d 4ff0 	stmdb	sp!, {r4, r5, r6, r7, r8, r9, sl, fp, lr}
   11a94:	f244 0a74 	movw	sl, #16500	; 0x4074
   11a98:	f2c0 0a02 	movt	sl, #2
   11a9c:	b085      	sub	sp, #20
   11a9e:	4617      	mov	r7, r2
   11aa0:	2230      	movs	r2, #48	; 0x30
   11aa2:	f8da 4018 	ldr.w	r4, [sl, #24]
   11aa6:	2600      	movs	r6, #0
   11aa8:	9001      	str	r0, [sp, #4]
   11aaa:	f244 08c0 	movw	r8, #16576	; 0x40c0
   11aae:	9103      	str	r1, [sp, #12]
   11ab0:	4611      	mov	r1, r2
   11ab2:	4620      	mov	r0, r4
   11ab4:	1d23      	adds	r3, r4, #4
   11ab6:	9300      	str	r3, [sp, #0]
   11ab8:	f7ff fcdc 	bl	11474 <bcm2835_peri_set_bits>
   11abc:	2280      	movs	r2, #128	; 0x80
   11abe:	4620      	mov	r0, r4
   11ac0:	4611      	mov	r1, r2
   11ac2:	f642 6b0c 	movw	fp, #11788	; 0x2e0c
   11ac6:	f7ff fcd5 	bl	11474 <bcm2835_peri_set_bits>
   11aca:	f2c0 0802 	movt	r8, #2
   11ace:	f2c0 0b01 	movt	fp, #1
   11ad2:	4635      	mov	r5, r6
   11ad4:	42be      	cmp	r6, r7
   11ad6:	bf28      	it	cs
   11ad8:	42bd      	cmpcs	r5, r7
   11ada:	d221      	bcs.n	11b20 <bcm2835_spi_transfernb+0x90>
   11adc:	9b01      	ldr	r3, [sp, #4]
   11ade:	eb03 0905 	add.w	r9, r3, r5
   11ae2:	e001      	b.n	11ae8 <bcm2835_spi_transfernb+0x58>
   11ae4:	6061      	str	r1, [r4, #4]
   11ae6:	3501      	adds	r5, #1
   11ae8:	4620      	mov	r0, r4
   11aea:	f7ff fc6f 	bl	113cc <bcm2835_peri_read>
   11aee:	42bd      	cmp	r5, r7
   11af0:	bf2c      	ite	cs
   11af2:	2200      	movcs	r2, #0
   11af4:	2201      	movcc	r2, #1
   11af6:	ea12 4390 	ands.w	r3, r2, r0, lsr #18
   11afa:	d022      	beq.n	11b42 <bcm2835_spi_transfernb+0xb2>
   11afc:	f89a 2030 	ldrb.w	r2, [sl, #48]	; 0x30
   11b00:	f819 1b01 	ldrb.w	r1, [r9], #1
   11b04:	b90a      	cbnz	r2, 11b0a <bcm2835_spi_transfernb+0x7a>
   11b06:	f81b 1001 	ldrb.w	r1, [fp, r1]
   11b0a:	f898 2000 	ldrb.w	r2, [r8]
   11b0e:	2a00      	cmp	r2, #0
   11b10:	d0e8      	beq.n	11ae4 <bcm2835_spi_transfernb+0x54>
   11b12:	9800      	ldr	r0, [sp, #0]
   11b14:	f7ff fbbe 	bl	11294 <bcm2835_peri_write_nb.part.4>
   11b18:	e7e5      	b.n	11ae6 <bcm2835_spi_transfernb+0x56>
   11b1a:	6820      	ldr	r0, [r4, #0]
   11b1c:	03c3      	lsls	r3, r0, #15
   11b1e:	d408      	bmi.n	11b32 <bcm2835_spi_transfernb+0xa2>
   11b20:	f898 3000 	ldrb.w	r3, [r8]
   11b24:	2b00      	cmp	r3, #0
   11b26:	d0f8      	beq.n	11b1a <bcm2835_spi_transfernb+0x8a>
   11b28:	4620      	mov	r0, r4
   11b2a:	f7ff fba7 	bl	1127c <bcm2835_peri_read_nb.part.2>
   11b2e:	03c3      	lsls	r3, r0, #15
   11b30:	d5f6      	bpl.n	11b20 <bcm2835_spi_transfernb+0x90>
   11b32:	4620      	mov	r0, r4
   11b34:	2280      	movs	r2, #128	; 0x80
   11b36:	2100      	movs	r1, #0
   11b38:	b005      	add	sp, #20
   11b3a:	e8bd 4ff0 	ldmia.w	sp!, {r4, r5, r6, r7, r8, r9, sl, fp, lr}
   11b3e:	f7ff bc99 	b.w	11474 <bcm2835_peri_set_bits>
   11b42:	9b03      	ldr	r3, [sp, #12]
   11b44:	9502      	str	r5, [sp, #8]
   11b46:	eb03 0906 	add.w	r9, r3, r6
   11b4a:	9d00      	ldr	r5, [sp, #0]
   11b4c:	e00a      	b.n	11b64 <bcm2835_spi_transfernb+0xd4>
   11b4e:	6860      	ldr	r0, [r4, #4]
   11b50:	f89a 2030 	ldrb.w	r2, [sl, #48]	; 0x30
   11b54:	b2c1      	uxtb	r1, r0
   11b56:	4608      	mov	r0, r1
   11b58:	b90a      	cbnz	r2, 11b5e <bcm2835_spi_transfernb+0xce>
   11b5a:	f81b 0001 	ldrb.w	r0, [fp, r1]
   11b5e:	3601      	adds	r6, #1
   11b60:	f809 0b01 	strb.w	r0, [r9], #1
   11b64:	4620      	mov	r0, r4
   11b66:	f7ff fc31 	bl	113cc <bcm2835_peri_read>
   11b6a:	42be      	cmp	r6, r7
   11b6c:	bf2c      	ite	cs
   11b6e:	2200      	movcs	r2, #0
   11b70:	2201      	movcc	r2, #1
   11b72:	ea12 4350 	ands.w	r3, r2, r0, lsr #17
   11b76:	d007      	beq.n	11b88 <bcm2835_spi_transfernb+0xf8>
   11b78:	f898 2000 	ldrb.w	r2, [r8]
   11b7c:	2a00      	cmp	r2, #0
   11b7e:	d0e6      	beq.n	11b4e <bcm2835_spi_transfernb+0xbe>
   11b80:	4628      	mov	r0, r5
   11b82:	f7ff fb7b 	bl	1127c <bcm2835_peri_read_nb.part.2>
   11b86:	e7e3      	b.n	11b50 <bcm2835_spi_transfernb+0xc0>
   11b88:	9d02      	ldr	r5, [sp, #8]
   11b8a:	e7a3      	b.n	11ad4 <bcm2835_spi_transfernb+0x44>

00011b8c <bcm2835_spi_writenb>:
   11b8c:	e92d 47f0 	stmdb	sp!, {r4, r5, r6, r7, r8, r9, sl, lr}
   11b90:	f244 0974 	movw	r9, #16500	; 0x4074
   11b94:	f2c0 0902 	movt	r9, #2
   11b98:	2230      	movs	r2, #48	; 0x30
   11b9a:	4607      	mov	r7, r0
   11b9c:	4688      	mov	r8, r1
   11b9e:	f8d9 4018 	ldr.w	r4, [r9, #24]
   11ba2:	4611      	mov	r1, r2
   11ba4:	f244 05c0 	movw	r5, #16576	; 0x40c0
   11ba8:	1d26      	adds	r6, r4, #4
   11baa:	4620      	mov	r0, r4
   11bac:	f7ff fc62 	bl	11474 <bcm2835_peri_set_bits>
   11bb0:	2280      	movs	r2, #128	; 0x80
   11bb2:	4620      	mov	r0, r4
   11bb4:	4611      	mov	r1, r2
   11bb6:	f7ff fc5d 	bl	11474 <bcm2835_peri_set_bits>
   11bba:	f1b8 0f00 	cmp.w	r8, #0
   11bbe:	d052      	beq.n	11c66 <bcm2835_spi_writenb+0xda>
   11bc0:	f642 6a0c 	movw	sl, #11788	; 0x2e0c
   11bc4:	44b8      	add	r8, r7
   11bc6:	f2c0 0502 	movt	r5, #2
   11bca:	f2c0 0a01 	movt	sl, #1
   11bce:	4620      	mov	r0, r4
   11bd0:	f7ff fbfc 	bl	113cc <bcm2835_peri_read>
   11bd4:	0340      	lsls	r0, r0, #13
   11bd6:	d5fa      	bpl.n	11bce <bcm2835_spi_writenb+0x42>
   11bd8:	f899 3030 	ldrb.w	r3, [r9, #48]	; 0x30
   11bdc:	f817 1b01 	ldrb.w	r1, [r7], #1
   11be0:	b90b      	cbnz	r3, 11be6 <bcm2835_spi_writenb+0x5a>
   11be2:	f81a 1001 	ldrb.w	r1, [sl, r1]
   11be6:	782b      	ldrb	r3, [r5, #0]
   11be8:	2b00      	cmp	r3, #0
   11bea:	d138      	bne.n	11c5e <bcm2835_spi_writenb+0xd2>
   11bec:	6061      	str	r1, [r4, #4]
   11bee:	4620      	mov	r0, r4
   11bf0:	f7ff fbec 	bl	113cc <bcm2835_peri_read>
   11bf4:	0381      	lsls	r1, r0, #14
   11bf6:	d507      	bpl.n	11c08 <bcm2835_spi_writenb+0x7c>
   11bf8:	782b      	ldrb	r3, [r5, #0]
   11bfa:	bb03      	cbnz	r3, 11c3e <bcm2835_spi_writenb+0xb2>
   11bfc:	4620      	mov	r0, r4
   11bfe:	6863      	ldr	r3, [r4, #4]
   11c00:	f7ff fbe4 	bl	113cc <bcm2835_peri_read>
   11c04:	0381      	lsls	r1, r0, #14
   11c06:	d4f7      	bmi.n	11bf8 <bcm2835_spi_writenb+0x6c>
   11c08:	4547      	cmp	r7, r8
   11c0a:	d1e0      	bne.n	11bce <bcm2835_spi_writenb+0x42>
   11c0c:	782b      	ldrb	r3, [r5, #0]
   11c0e:	b9d3      	cbnz	r3, 11c46 <bcm2835_spi_writenb+0xba>
   11c10:	6820      	ldr	r0, [r4, #0]
   11c12:	03c3      	lsls	r3, r0, #15
   11c14:	d41c      	bmi.n	11c50 <bcm2835_spi_writenb+0xc4>
   11c16:	4620      	mov	r0, r4
   11c18:	f7ff fbd8 	bl	113cc <bcm2835_peri_read>
   11c1c:	0382      	lsls	r2, r0, #14
   11c1e:	d5f5      	bpl.n	11c0c <bcm2835_spi_writenb+0x80>
   11c20:	782b      	ldrb	r3, [r5, #0]
   11c22:	b943      	cbnz	r3, 11c36 <bcm2835_spi_writenb+0xaa>
   11c24:	4620      	mov	r0, r4
   11c26:	6863      	ldr	r3, [r4, #4]
   11c28:	f7ff fbd0 	bl	113cc <bcm2835_peri_read>
   11c2c:	0382      	lsls	r2, r0, #14
   11c2e:	d5ed      	bpl.n	11c0c <bcm2835_spi_writenb+0x80>
   11c30:	782b      	ldrb	r3, [r5, #0]
   11c32:	2b00      	cmp	r3, #0
   11c34:	d0f6      	beq.n	11c24 <bcm2835_spi_writenb+0x98>
   11c36:	4630      	mov	r0, r6
   11c38:	f7ff fb20 	bl	1127c <bcm2835_peri_read_nb.part.2>
   11c3c:	e7eb      	b.n	11c16 <bcm2835_spi_writenb+0x8a>
   11c3e:	4630      	mov	r0, r6
   11c40:	f7ff fb1c 	bl	1127c <bcm2835_peri_read_nb.part.2>
   11c44:	e7d3      	b.n	11bee <bcm2835_spi_writenb+0x62>
   11c46:	4620      	mov	r0, r4
   11c48:	f7ff fb18 	bl	1127c <bcm2835_peri_read_nb.part.2>
   11c4c:	03c3      	lsls	r3, r0, #15
   11c4e:	d5e2      	bpl.n	11c16 <bcm2835_spi_writenb+0x8a>
   11c50:	4620      	mov	r0, r4
   11c52:	2280      	movs	r2, #128	; 0x80
   11c54:	2100      	movs	r1, #0
   11c56:	e8bd 47f0 	ldmia.w	sp!, {r4, r5, r6, r7, r8, r9, sl, lr}
   11c5a:	f7ff bc0b 	b.w	11474 <bcm2835_peri_set_bits>
   11c5e:	4630      	mov	r0, r6
   11c60:	f7ff fb18 	bl	11294 <bcm2835_peri_write_nb.part.4>
   11c64:	e7c3      	b.n	11bee <bcm2835_spi_writenb+0x62>
   11c66:	f2c0 0502 	movt	r5, #2
   11c6a:	e7cf      	b.n	11c0c <bcm2835_spi_writenb+0x80>

00011c6c <bcm2835_spi_transfern>:
   11c6c:	460a      	mov	r2, r1
   11c6e:	4601      	mov	r1, r0
   11c70:	f7ff bf0e 	b.w	11a90 <bcm2835_spi_transfernb>

00011c74 <bcm2835_spi_chipSelect>:
   11c74:	f244 0374 	movw	r3, #16500	; 0x4074
   11c78:	f2c0 0302 	movt	r3, #2
   11c7c:	4601      	mov	r1, r0
   11c7e:	2203      	movs	r2, #3
   11c80:	6998      	ldr	r0, [r3, #24]
   11c82:	f7ff bbf7 	b.w	11474 <bcm2835_peri_set_bits>
   11c86:	bf00      	nop

00011c88 <bcm2835_spi_setChipSelectPolarity>:
   11c88:	3015      	adds	r0, #21
   11c8a:	f244 0374 	movw	r3, #16500	; 0x4074
   11c8e:	f2c0 0302 	movt	r3, #2
   11c92:	2201      	movs	r2, #1
   11c94:	b2c0      	uxtb	r0, r0
   11c96:	4081      	lsls	r1, r0
   11c98:	4082      	lsls	r2, r0
   11c9a:	6998      	ldr	r0, [r3, #24]
   11c9c:	f7ff bbea 	b.w	11474 <bcm2835_peri_set_bits>

00011ca0 <bcm2835_spi_write>:
   11ca0:	b5f8      	push	{r3, r4, r5, r6, r7, lr}
   11ca2:	f244 0374 	movw	r3, #16500	; 0x4074
   11ca6:	f2c0 0302 	movt	r3, #2
   11caa:	2230      	movs	r2, #48	; 0x30
   11cac:	4611      	mov	r1, r2
   11cae:	4606      	mov	r6, r0
   11cb0:	699c      	ldr	r4, [r3, #24]
   11cb2:	4620      	mov	r0, r4
   11cb4:	f7ff fbde 	bl	11474 <bcm2835_peri_set_bits>
   11cb8:	2280      	movs	r2, #128	; 0x80
   11cba:	4620      	mov	r0, r4
   11cbc:	4611      	mov	r1, r2
   11cbe:	f7ff fbd9 	bl	11474 <bcm2835_peri_set_bits>
   11cc2:	4620      	mov	r0, r4
   11cc4:	f7ff fb82 	bl	113cc <bcm2835_peri_read>
   11cc8:	0342      	lsls	r2, r0, #13
   11cca:	d5fa      	bpl.n	11cc2 <bcm2835_spi_write+0x22>
   11ccc:	f244 05c0 	movw	r5, #16576	; 0x40c0
   11cd0:	f2c0 0502 	movt	r5, #2
   11cd4:	0a31      	lsrs	r1, r6, #8
   11cd6:	782b      	ldrb	r3, [r5, #0]
   11cd8:	b9b3      	cbnz	r3, 11d08 <bcm2835_spi_write+0x68>
   11cda:	6061      	str	r1, [r4, #4]
   11cdc:	b2f1      	uxtb	r1, r6
   11cde:	2300      	movs	r3, #0
   11ce0:	6061      	str	r1, [r4, #4]
   11ce2:	b92b      	cbnz	r3, 11cf0 <bcm2835_spi_write+0x50>
   11ce4:	6820      	ldr	r0, [r4, #0]
   11ce6:	03c3      	lsls	r3, r0, #15
   11ce8:	d407      	bmi.n	11cfa <bcm2835_spi_write+0x5a>
   11cea:	782b      	ldrb	r3, [r5, #0]
   11cec:	2b00      	cmp	r3, #0
   11cee:	d0f9      	beq.n	11ce4 <bcm2835_spi_write+0x44>
   11cf0:	4620      	mov	r0, r4
   11cf2:	f7ff fac3 	bl	1127c <bcm2835_peri_read_nb.part.2>
   11cf6:	03c3      	lsls	r3, r0, #15
   11cf8:	d5f7      	bpl.n	11cea <bcm2835_spi_write+0x4a>
   11cfa:	4620      	mov	r0, r4
   11cfc:	2280      	movs	r2, #128	; 0x80
   11cfe:	2100      	movs	r1, #0
   11d00:	e8bd 40f8 	ldmia.w	sp!, {r3, r4, r5, r6, r7, lr}
   11d04:	f7ff bbb6 	b.w	11474 <bcm2835_peri_set_bits>
   11d08:	1d27      	adds	r7, r4, #4
   11d0a:	4638      	mov	r0, r7
   11d0c:	f7ff fac2 	bl	11294 <bcm2835_peri_write_nb.part.4>
   11d10:	782b      	ldrb	r3, [r5, #0]
   11d12:	b2f1      	uxtb	r1, r6
   11d14:	2b00      	cmp	r3, #0
   11d16:	d0e2      	beq.n	11cde <bcm2835_spi_write+0x3e>
   11d18:	4638      	mov	r0, r7
   11d1a:	f7ff fabb 	bl	11294 <bcm2835_peri_write_nb.part.4>
   11d1e:	782b      	ldrb	r3, [r5, #0]
   11d20:	e7df      	b.n	11ce2 <bcm2835_spi_write+0x42>
   11d22:	bf00      	nop

00011d24 <bcm2835_aux_spi_begin>:
   11d24:	b5f8      	push	{r3, r4, r5, r6, r7, lr}
   11d26:	f244 0474 	movw	r4, #16500	; 0x4074
   11d2a:	f2c0 0402 	movt	r4, #2
   11d2e:	6ae5      	ldr	r5, [r4, #44]	; 0x2c
   11d30:	6aa0      	ldr	r0, [r4, #40]	; 0x28
   11d32:	1c6b      	adds	r3, r5, #1
   11d34:	d032      	beq.n	11d9c <bcm2835_aux_spi_begin+0x78>
   11d36:	1d06      	adds	r6, r0, #4
   11d38:	68a0      	ldr	r0, [r4, #8]
   11d3a:	f44f 12e0 	mov.w	r2, #1835008	; 0x1c0000
   11d3e:	f44f 2140 	mov.w	r1, #786432	; 0xc0000
   11d42:	3004      	adds	r0, #4
   11d44:	1d2f      	adds	r7, r5, #4
   11d46:	f7ff fb95 	bl	11474 <bcm2835_peri_set_bits>
   11d4a:	68a0      	ldr	r0, [r4, #8]
   11d4c:	f04f 5260 	mov.w	r2, #939524096	; 0x38000000
   11d50:	f04f 51c0 	mov.w	r1, #402653184	; 0x18000000
   11d54:	3004      	adds	r0, #4
   11d56:	f7ff fb8d 	bl	11474 <bcm2835_peri_set_bits>
   11d5a:	68a0      	ldr	r0, [r4, #8]
   11d5c:	2207      	movs	r2, #7
   11d5e:	2103      	movs	r1, #3
   11d60:	3008      	adds	r0, #8
   11d62:	f7ff fb87 	bl	11474 <bcm2835_peri_set_bits>
   11d66:	68a0      	ldr	r0, [r4, #8]
   11d68:	2238      	movs	r2, #56	; 0x38
   11d6a:	2118      	movs	r1, #24
   11d6c:	3008      	adds	r0, #8
   11d6e:	f7ff fb81 	bl	11474 <bcm2835_peri_set_bits>
   11d72:	f244 03c0 	movw	r3, #16576	; 0x40c0
   11d76:	f2c0 0302 	movt	r3, #2
   11d7a:	4630      	mov	r0, r6
   11d7c:	2102      	movs	r1, #2
   11d7e:	227c      	movs	r2, #124	; 0x7c
   11d80:	605a      	str	r2, [r3, #4]
   11d82:	f7ff fb45 	bl	11410 <bcm2835_peri_write>
   11d86:	4638      	mov	r0, r7
   11d88:	2100      	movs	r1, #0
   11d8a:	f7ff fb41 	bl	11410 <bcm2835_peri_write>
   11d8e:	4628      	mov	r0, r5
   11d90:	f44f 7100 	mov.w	r1, #512	; 0x200
   11d94:	f7ff fb3c 	bl	11410 <bcm2835_peri_write>
   11d98:	2001      	movs	r0, #1
   11d9a:	bdf8      	pop	{r3, r4, r5, r6, r7, pc}
   11d9c:	2000      	movs	r0, #0
   11d9e:	bdf8      	pop	{r3, r4, r5, r6, r7, pc}

00011da0 <bcm2835_aux_spi_end>:
   11da0:	b510      	push	{r4, lr}
   11da2:	f244 0474 	movw	r4, #16500	; 0x4074
   11da6:	f2c0 0402 	movt	r4, #2
   11daa:	f44f 12e0 	mov.w	r2, #1835008	; 0x1c0000
   11dae:	2100      	movs	r1, #0
   11db0:	68a0      	ldr	r0, [r4, #8]
   11db2:	3004      	adds	r0, #4
   11db4:	f7ff fb5e 	bl	11474 <bcm2835_peri_set_bits>
   11db8:	68a0      	ldr	r0, [r4, #8]
   11dba:	f04f 5260 	mov.w	r2, #939524096	; 0x38000000
   11dbe:	2100      	movs	r1, #0
   11dc0:	3004      	adds	r0, #4
   11dc2:	f7ff fb57 	bl	11474 <bcm2835_peri_set_bits>
   11dc6:	68a0      	ldr	r0, [r4, #8]
   11dc8:	2207      	movs	r2, #7
   11dca:	2100      	movs	r1, #0
   11dcc:	3008      	adds	r0, #8
   11dce:	f7ff fb51 	bl	11474 <bcm2835_peri_set_bits>
   11dd2:	68a0      	ldr	r0, [r4, #8]
   11dd4:	2238      	movs	r2, #56	; 0x38
   11dd6:	2100      	movs	r1, #0
   11dd8:	3008      	adds	r0, #8
   11dda:	e8bd 4010 	ldmia.w	sp!, {r4, lr}
   11dde:	f7ff bb49 	b.w	11474 <bcm2835_peri_set_bits>
   11de2:	bf00      	nop

00011de4 <bcm2835_aux_spi_CalcClockDivider>:
   11de4:	b508      	push	{r3, lr}
   11de6:	f247 7323 	movw	r3, #30499	; 0x7723
   11dea:	4298      	cmp	r0, r3
   11dec:	d907      	bls.n	11dfe <bcm2835_aux_spi_CalcClockDivider+0x1a>
   11dee:	f645 1340 	movw	r3, #22848	; 0x5940
   11df2:	f2c0 7373 	movt	r3, #1907	; 0x773
   11df6:	4298      	cmp	r0, r3
   11df8:	d904      	bls.n	11e04 <bcm2835_aux_spi_CalcClockDivider+0x20>
   11dfa:	2000      	movs	r0, #0
   11dfc:	bd08      	pop	{r3, pc}
   11dfe:	f640 70ff 	movw	r0, #4095	; 0xfff
   11e02:	bd08      	pop	{r3, pc}
   11e04:	4418      	add	r0, r3
   11e06:	f44f 419b 	mov.w	r1, #19840	; 0x4d80
   11e0a:	f2cf 1119 	movt	r1, #61721	; 0xf119
   11e0e:	0040      	lsls	r0, r0, #1
   11e10:	4401      	add	r1, r0
   11e12:	3801      	subs	r0, #1
   11e14:	f7fe ed46 	blx	108a4 <__aeabi_uidiv@plt>
   11e18:	f640 73ff 	movw	r3, #4095	; 0xfff
   11e1c:	3801      	subs	r0, #1
   11e1e:	b280      	uxth	r0, r0
   11e20:	4298      	cmp	r0, r3
   11e22:	bf28      	it	cs
   11e24:	4618      	movcs	r0, r3
   11e26:	bd08      	pop	{r3, pc}

00011e28 <bcm2835_aux_spi_setClockDivider>:
   11e28:	f244 03c0 	movw	r3, #16576	; 0x40c0
   11e2c:	f2c0 0302 	movt	r3, #2
   11e30:	6058      	str	r0, [r3, #4]
   11e32:	4770      	bx	lr

00011e34 <bcm2835_aux_spi_write>:
   11e34:	b5f8      	push	{r3, r4, r5, r6, r7, lr}
   11e36:	f244 0274 	movw	r2, #16500	; 0x4074
   11e3a:	f244 03c0 	movw	r3, #16576	; 0x40c0
   11e3e:	f2c0 0202 	movt	r2, #2
   11e42:	f2c0 0302 	movt	r3, #2
   11e46:	f44f 6105 	mov.w	r1, #2128	; 0x850
   11e4a:	6ad5      	ldr	r5, [r2, #44]	; 0x2c
   11e4c:	f2c0 0106 	movt	r1, #6
   11e50:	685b      	ldr	r3, [r3, #4]
   11e52:	4607      	mov	r7, r0
   11e54:	f105 0408 	add.w	r4, r5, #8
   11e58:	f105 0620 	add.w	r6, r5, #32
   11e5c:	4628      	mov	r0, r5
   11e5e:	ea41 5103 	orr.w	r1, r1, r3, lsl #20
   11e62:	f7ff fad5 	bl	11410 <bcm2835_peri_write>
   11e66:	1d28      	adds	r0, r5, #4
   11e68:	2102      	movs	r1, #2
   11e6a:	f7ff fad1 	bl	11410 <bcm2835_peri_write>
   11e6e:	4620      	mov	r0, r4
   11e70:	f7ff faac 	bl	113cc <bcm2835_peri_read>
   11e74:	0543      	lsls	r3, r0, #21
   11e76:	d4fa      	bmi.n	11e6e <bcm2835_aux_spi_write+0x3a>
   11e78:	0439      	lsls	r1, r7, #16
   11e7a:	4630      	mov	r0, r6
   11e7c:	e8bd 40f8 	ldmia.w	sp!, {r3, r4, r5, r6, r7, lr}
   11e80:	f7ff bac6 	b.w	11410 <bcm2835_peri_write>

00011e84 <bcm2835_aux_spi_writenb>:
   11e84:	e92d 43f8 	stmdb	sp!, {r3, r4, r5, r6, r7, r8, r9, lr}
   11e88:	f244 0274 	movw	r2, #16500	; 0x4074
   11e8c:	f244 03c0 	movw	r3, #16576	; 0x40c0
   11e90:	f2c0 0202 	movt	r2, #2
   11e94:	f2c0 0302 	movt	r3, #2
   11e98:	f644 0740 	movw	r7, #18496	; 0x4840
   11e9c:	f8d2 902c 	ldr.w	r9, [r2, #44]	; 0x2c
   11ea0:	f2c0 0706 	movt	r7, #6
   11ea4:	685b      	ldr	r3, [r3, #4]
   11ea6:	460e      	mov	r6, r1
   11ea8:	4604      	mov	r4, r0
   11eaa:	f109 0508 	add.w	r5, r9, #8
   11eae:	4648      	mov	r0, r9
   11eb0:	f109 0830 	add.w	r8, r9, #48	; 0x30
   11eb4:	ea47 5103 	orr.w	r1, r7, r3, lsl #20
   11eb8:	f109 0720 	add.w	r7, r9, #32
   11ebc:	f7ff faa8 	bl	11410 <bcm2835_peri_write>
   11ec0:	f109 0004 	add.w	r0, r9, #4
   11ec4:	2102      	movs	r1, #2
   11ec6:	f7ff faa3 	bl	11410 <bcm2835_peri_write>
   11eca:	b35e      	cbz	r6, 11f24 <bcm2835_aux_spi_writenb+0xa0>
   11ecc:	4628      	mov	r0, r5
   11ece:	f7ff fa7d 	bl	113cc <bcm2835_peri_read>
   11ed2:	f410 6080 	ands.w	r0, r0, #1024	; 0x400
   11ed6:	d1f9      	bne.n	11ecc <bcm2835_aux_spi_writenb+0x48>
   11ed8:	2e03      	cmp	r6, #3
   11eda:	46b6      	mov	lr, r6
   11edc:	f04f 0310 	mov.w	r3, #16
   11ee0:	bf28      	it	cs
   11ee2:	f04f 0e03 	movcs.w	lr, #3
   11ee6:	ea4f 01ce 	mov.w	r1, lr, lsl #3
   11eea:	1a59      	subs	r1, r3, r1
   11eec:	4622      	mov	r2, r4
   11eee:	b114      	cbz	r4, 11ef6 <bcm2835_aux_spi_writenb+0x72>
   11ef0:	7822      	ldrb	r2, [r4, #0]
   11ef2:	3401      	adds	r4, #1
   11ef4:	409a      	lsls	r2, r3
   11ef6:	3b08      	subs	r3, #8
   11ef8:	4310      	orrs	r0, r2
   11efa:	428b      	cmp	r3, r1
   11efc:	d1f6      	bne.n	11eec <bcm2835_aux_spi_writenb+0x68>
   11efe:	ebb6 060e 	subs.w	r6, r6, lr
   11f02:	ea40 61ce 	orr.w	r1, r0, lr, lsl #27
   11f06:	bf14      	ite	ne
   11f08:	4640      	movne	r0, r8
   11f0a:	4638      	moveq	r0, r7
   11f0c:	f7ff fa80 	bl	11410 <bcm2835_peri_write>
   11f10:	4628      	mov	r0, r5
   11f12:	f7ff fa5b 	bl	113cc <bcm2835_peri_read>
   11f16:	0643      	lsls	r3, r0, #25
   11f18:	d4fa      	bmi.n	11f10 <bcm2835_aux_spi_writenb+0x8c>
   11f1a:	4638      	mov	r0, r7
   11f1c:	f7ff fa56 	bl	113cc <bcm2835_peri_read>
   11f20:	2e00      	cmp	r6, #0
   11f22:	d1d3      	bne.n	11ecc <bcm2835_aux_spi_writenb+0x48>
   11f24:	e8bd 83f8 	ldmia.w	sp!, {r3, r4, r5, r6, r7, r8, r9, pc}

00011f28 <bcm2835_aux_spi_transfernb>:
   11f28:	e92d 4ff8 	stmdb	sp!, {r3, r4, r5, r6, r7, r8, r9, sl, fp, lr}
   11f2c:	f244 0474 	movw	r4, #16500	; 0x4074
   11f30:	f244 03c0 	movw	r3, #16576	; 0x40c0
   11f34:	f2c0 0402 	movt	r4, #2
   11f38:	f2c0 0302 	movt	r3, #2
   11f3c:	f644 0540 	movw	r5, #18496	; 0x4840
   11f40:	6ae4      	ldr	r4, [r4, #44]	; 0x2c
   11f42:	f2c0 0506 	movt	r5, #6
   11f46:	685b      	ldr	r3, [r3, #4]
   11f48:	4689      	mov	r9, r1
   11f4a:	4683      	mov	fp, r0
   11f4c:	4616      	mov	r6, r2
   11f4e:	4620      	mov	r0, r4
   11f50:	f104 0708 	add.w	r7, r4, #8
   11f54:	ea45 5103 	orr.w	r1, r5, r3, lsl #20
   11f58:	f104 0a30 	add.w	sl, r4, #48	; 0x30
   11f5c:	f7ff fa58 	bl	11410 <bcm2835_peri_write>
   11f60:	1d20      	adds	r0, r4, #4
   11f62:	2102      	movs	r1, #2
   11f64:	f104 0820 	add.w	r8, r4, #32
   11f68:	f7ff fa52 	bl	11410 <bcm2835_peri_write>
   11f6c:	4634      	mov	r4, r6
   11f6e:	464d      	mov	r5, r9
   11f70:	ea56 0304 	orrs.w	r3, r6, r4
   11f74:	d078      	beq.n	12068 <bcm2835_aux_spi_transfernb+0x140>
   11f76:	4638      	mov	r0, r7
   11f78:	f7ff fa28 	bl	113cc <bcm2835_peri_read>
   11f7c:	f410 6080 	ands.w	r0, r0, #1024	; 0x400
   11f80:	d13e      	bne.n	12000 <bcm2835_aux_spi_transfernb+0xd8>
   11f82:	2e00      	cmp	r6, #0
   11f84:	d03c      	beq.n	12000 <bcm2835_aux_spi_transfernb+0xd8>
   11f86:	2e03      	cmp	r6, #3
   11f88:	46b6      	mov	lr, r6
   11f8a:	f04f 0310 	mov.w	r3, #16
   11f8e:	bf28      	it	cs
   11f90:	f04f 0e03 	movcs.w	lr, #3
   11f94:	ea4f 01ce 	mov.w	r1, lr, lsl #3
   11f98:	1a59      	subs	r1, r3, r1
   11f9a:	465a      	mov	r2, fp
   11f9c:	f1bb 0f00 	cmp.w	fp, #0
   11fa0:	d004      	beq.n	11fac <bcm2835_aux_spi_transfernb+0x84>
   11fa2:	f89b 2000 	ldrb.w	r2, [fp]
   11fa6:	f10b 0b01 	add.w	fp, fp, #1
   11faa:	409a      	lsls	r2, r3
   11fac:	3b08      	subs	r3, #8
   11fae:	4310      	orrs	r0, r2
   11fb0:	428b      	cmp	r3, r1
   11fb2:	d1f2      	bne.n	11f9a <bcm2835_aux_spi_transfernb+0x72>
   11fb4:	ebb6 060e 	subs.w	r6, r6, lr
   11fb8:	ea40 61ce 	orr.w	r1, r0, lr, lsl #27
   11fbc:	bf14      	ite	ne
   11fbe:	4650      	movne	r0, sl
   11fc0:	4640      	moveq	r0, r8
   11fc2:	f7ff fa25 	bl	11410 <bcm2835_peri_write>
   11fc6:	e7d6      	b.n	11f76 <bcm2835_aux_spi_transfernb+0x4e>
   11fc8:	2c00      	cmp	r4, #0
   11fca:	d043      	beq.n	12054 <bcm2835_aux_spi_transfernb+0x12c>
   11fcc:	f7ff f9fe 	bl	113cc <bcm2835_peri_read>
   11fd0:	2c03      	cmp	r4, #3
   11fd2:	4623      	mov	r3, r4
   11fd4:	bf28      	it	cs
   11fd6:	2303      	movcs	r3, #3
   11fd8:	f1b9 0f00 	cmp.w	r9, #0
   11fdc:	d00f      	beq.n	11ffe <bcm2835_aux_spi_transfernb+0xd6>
   11fde:	2b02      	cmp	r3, #2
   11fe0:	ea4f 2110 	mov.w	r1, r0, lsr #8
   11fe4:	d007      	beq.n	11ff6 <bcm2835_aux_spi_transfernb+0xce>
   11fe6:	2b03      	cmp	r3, #3
   11fe8:	ea4f 4e10 	mov.w	lr, r0, lsr #16
   11fec:	462a      	mov	r2, r5
   11fee:	d104      	bne.n	11ffa <bcm2835_aux_spi_transfernb+0xd2>
   11ff0:	f885 e000 	strb.w	lr, [r5]
   11ff4:	3501      	adds	r5, #1
   11ff6:	1c6a      	adds	r2, r5, #1
   11ff8:	7029      	strb	r1, [r5, #0]
   11ffa:	1c55      	adds	r5, r2, #1
   11ffc:	7010      	strb	r0, [r2, #0]
   11ffe:	1ae4      	subs	r4, r4, r3
   12000:	4638      	mov	r0, r7
   12002:	f7ff f9e3 	bl	113cc <bcm2835_peri_read>
   12006:	f010 0f80 	tst.w	r0, #128	; 0x80
   1200a:	4640      	mov	r0, r8
   1200c:	d0dc      	beq.n	11fc8 <bcm2835_aux_spi_transfernb+0xa0>
   1200e:	4638      	mov	r0, r7
   12010:	f7ff f9dc 	bl	113cc <bcm2835_peri_read>
   12014:	f010 0f40 	tst.w	r0, #64	; 0x40
   12018:	4640      	mov	r0, r8
   1201a:	d1a9      	bne.n	11f70 <bcm2835_aux_spi_transfernb+0x48>
   1201c:	2c00      	cmp	r4, #0
   1201e:	d0a7      	beq.n	11f70 <bcm2835_aux_spi_transfernb+0x48>
   12020:	f7ff f9d4 	bl	113cc <bcm2835_peri_read>
   12024:	2c03      	cmp	r4, #3
   12026:	4623      	mov	r3, r4
   12028:	bf28      	it	cs
   1202a:	2303      	movcs	r3, #3
   1202c:	f1b9 0f00 	cmp.w	r9, #0
   12030:	d00f      	beq.n	12052 <bcm2835_aux_spi_transfernb+0x12a>
   12032:	2b02      	cmp	r3, #2
   12034:	ea4f 2110 	mov.w	r1, r0, lsr #8
   12038:	d007      	beq.n	1204a <bcm2835_aux_spi_transfernb+0x122>
   1203a:	2b03      	cmp	r3, #3
   1203c:	ea4f 4e10 	mov.w	lr, r0, lsr #16
   12040:	462a      	mov	r2, r5
   12042:	d104      	bne.n	1204e <bcm2835_aux_spi_transfernb+0x126>
   12044:	f885 e000 	strb.w	lr, [r5]
   12048:	3501      	adds	r5, #1
   1204a:	1c6a      	adds	r2, r5, #1
   1204c:	7029      	strb	r1, [r5, #0]
   1204e:	1c55      	adds	r5, r2, #1
   12050:	7010      	strb	r0, [r2, #0]
   12052:	1ae4      	subs	r4, r4, r3
   12054:	4638      	mov	r0, r7
   12056:	f7ff f9b9 	bl	113cc <bcm2835_peri_read>
   1205a:	f010 0f40 	tst.w	r0, #64	; 0x40
   1205e:	4640      	mov	r0, r8
   12060:	d0dc      	beq.n	1201c <bcm2835_aux_spi_transfernb+0xf4>
   12062:	ea56 0304 	orrs.w	r3, r6, r4
   12066:	d186      	bne.n	11f76 <bcm2835_aux_spi_transfernb+0x4e>
   12068:	e8bd 8ff8 	ldmia.w	sp!, {r3, r4, r5, r6, r7, r8, r9, sl, fp, pc}

0001206c <bcm2835_aux_spi_transfern>:
   1206c:	460a      	mov	r2, r1
   1206e:	4601      	mov	r1, r0
   12070:	f7ff bf5a 	b.w	11f28 <bcm2835_aux_spi_transfernb>

00012074 <bcm2835_i2c_begin>:
   12074:	b538      	push	{r3, r4, r5, lr}
   12076:	f244 0474 	movw	r4, #16500	; 0x4074
   1207a:	f2c0 0402 	movt	r4, #2
   1207e:	69e3      	ldr	r3, [r4, #28]
   12080:	3301      	adds	r3, #1
   12082:	d030      	beq.n	120e6 <bcm2835_i2c_begin+0x72>
   12084:	6a25      	ldr	r5, [r4, #32]
   12086:	1c6b      	adds	r3, r5, #1
   12088:	d02d      	beq.n	120e6 <bcm2835_i2c_begin+0x72>
   1208a:	68a0      	ldr	r0, [r4, #8]
   1208c:	f44f 72e0 	mov.w	r2, #448	; 0x1c0
   12090:	f44f 7180 	mov.w	r1, #256	; 0x100
   12094:	f7ff f9ee 	bl	11474 <bcm2835_peri_set_bits>
   12098:	68a0      	ldr	r0, [r4, #8]
   1209a:	f44f 6260 	mov.w	r2, #3584	; 0xe00
   1209e:	f44f 6100 	mov.w	r1, #2048	; 0x800
   120a2:	f7ff f9e7 	bl	11474 <bcm2835_peri_set_bits>
   120a6:	f105 0014 	add.w	r0, r5, #20
   120aa:	f7ff f98f 	bl	113cc <bcm2835_peri_read>
   120ae:	eddf 5a0f 	vldr	s11, [pc, #60]	; 120ec <bcm2835_i2c_begin+0x78>
   120b2:	f244 03c0 	movw	r3, #16576	; 0x40c0
   120b6:	f2c0 0302 	movt	r3, #2
   120ba:	2201      	movs	r2, #1
   120bc:	ed9f 6a0c 	vldr	s12, [pc, #48]	; 120f0 <bcm2835_i2c_begin+0x7c>
   120c0:	eef2 6a02 	vmov.f32	s13, #34	; 0x41100000  9.0
   120c4:	b280      	uxth	r0, r0
   120c6:	ee07 0a90 	vmov	s15, r0
   120ca:	4610      	mov	r0, r2
   120cc:	eeb8 7a67 	vcvt.f32.u32	s14, s15
   120d0:	eec7 7a25 	vdiv.f32	s15, s14, s11
   120d4:	ee67 7a86 	vmul.f32	s15, s15, s12
   120d8:	ee67 7aa6 	vmul.f32	s15, s15, s13
   120dc:	eefd 7ae7 	vcvt.s32.f32	s15, s15
   120e0:	edc3 7a02 	vstr	s15, [r3, #8]
   120e4:	bd38      	pop	{r3, r4, r5, pc}
   120e6:	2200      	movs	r2, #0
   120e8:	4610      	mov	r0, r2
   120ea:	bd38      	pop	{r3, r4, r5, pc}
   120ec:	4d6e6b28 	vstmdbmi	lr!, {d22-<overflow reg d41>}
   120f0:	49742400 	ldmdbmi	r4!, {sl, sp}^

000120f4 <bcm2835_i2c_end>:
   120f4:	b510      	push	{r4, lr}
   120f6:	f244 0474 	movw	r4, #16500	; 0x4074
   120fa:	f2c0 0402 	movt	r4, #2
   120fe:	f44f 72e0 	mov.w	r2, #448	; 0x1c0
   12102:	2100      	movs	r1, #0
   12104:	68a0      	ldr	r0, [r4, #8]
   12106:	f7ff f9b5 	bl	11474 <bcm2835_peri_set_bits>
   1210a:	68a0      	ldr	r0, [r4, #8]
   1210c:	f44f 6260 	mov.w	r2, #3584	; 0xe00
   12110:	2100      	movs	r1, #0
   12112:	e8bd 4010 	ldmia.w	sp!, {r4, lr}
   12116:	f7ff b9ad 	b.w	11474 <bcm2835_peri_set_bits>
   1211a:	bf00      	nop

0001211c <bcm2835_i2c_setSlaveAddress>:
   1211c:	f244 0374 	movw	r3, #16500	; 0x4074
   12120:	f2c0 0302 	movt	r3, #2
   12124:	4601      	mov	r1, r0
   12126:	6a18      	ldr	r0, [r3, #32]
   12128:	300c      	adds	r0, #12
   1212a:	f7ff b971 	b.w	11410 <bcm2835_peri_write>
   1212e:	bf00      	nop

00012130 <bcm2835_i2c_setClockDivider>:
   12130:	b500      	push	{lr}
   12132:	f244 0374 	movw	r3, #16500	; 0x4074
   12136:	b083      	sub	sp, #12
   12138:	f2c0 0302 	movt	r3, #2
   1213c:	9001      	str	r0, [sp, #4]
   1213e:	6a18      	ldr	r0, [r3, #32]
   12140:	9901      	ldr	r1, [sp, #4]
   12142:	3014      	adds	r0, #20
   12144:	f7ff f964 	bl	11410 <bcm2835_peri_write>
   12148:	eddd 7a01 	vldr	s15, [sp, #4]
   1214c:	f244 03c0 	movw	r3, #16576	; 0x40c0
   12150:	f2c0 0302 	movt	r3, #2
   12154:	ed9f 6a0a 	vldr	s12, [pc, #40]	; 12180 <bcm2835_i2c_setClockDivider+0x50>
   12158:	eeb8 7a67 	vcvt.f32.u32	s14, s15
   1215c:	eddf 6a09 	vldr	s13, [pc, #36]	; 12184 <bcm2835_i2c_setClockDivider+0x54>
   12160:	eec7 7a06 	vdiv.f32	s15, s14, s12
   12164:	ee67 7aa6 	vmul.f32	s15, s15, s13
   12168:	eeb2 7a02 	vmov.f32	s14, #34	; 0x41100000  9.0
   1216c:	ee67 7a87 	vmul.f32	s15, s15, s14
   12170:	eefd 7ae7 	vcvt.s32.f32	s15, s15
   12174:	edc3 7a02 	vstr	s15, [r3, #8]
   12178:	b003      	add	sp, #12
   1217a:	f85d fb04 	ldr.w	pc, [sp], #4
   1217e:	bf00      	nop
   12180:	4d6e6b28 	vstmdbmi	lr!, {d22-<overflow reg d41>}
   12184:	49742400 	ldmdbmi	r4!, {sl, sp}^

00012188 <bcm2835_i2c_set_baudrate>:
   12188:	b508      	push	{r3, lr}
   1218a:	4601      	mov	r1, r0
   1218c:	f24b 2080 	movw	r0, #45696	; 0xb280
   12190:	f6c0 60e6 	movt	r0, #3814	; 0xee6
   12194:	f7fe eb86 	blx	108a4 <__aeabi_uidiv@plt>
   12198:	f64f 73fe 	movw	r3, #65534	; 0xfffe
   1219c:	4018      	ands	r0, r3
   1219e:	e8bd 4008 	ldmia.w	sp!, {r3, lr}
   121a2:	f7ff bfc5 	b.w	12130 <bcm2835_i2c_setClockDivider>
   121a6:	bf00      	nop

000121a8 <bcm2835_i2c_write>:
   121a8:	e92d 4ff8 	stmdb	sp!, {r3, r4, r5, r6, r7, r8, r9, sl, fp, lr}
   121ac:	f244 0374 	movw	r3, #16500	; 0x4074
   121b0:	f2c0 0302 	movt	r3, #2
   121b4:	2220      	movs	r2, #32
   121b6:	460c      	mov	r4, r1
   121b8:	4682      	mov	sl, r0
   121ba:	f8d3 9020 	ldr.w	r9, [r3, #32]
   121be:	4611      	mov	r1, r2
   121c0:	f109 0704 	add.w	r7, r9, #4
   121c4:	f109 0810 	add.w	r8, r9, #16
   121c8:	4648      	mov	r0, r9
   121ca:	f7ff f953 	bl	11474 <bcm2835_peri_set_bits>
   121ce:	4638      	mov	r0, r7
   121d0:	f240 3102 	movw	r1, #770	; 0x302
   121d4:	f7ff f91c 	bl	11410 <bcm2835_peri_write>
   121d8:	4621      	mov	r1, r4
   121da:	f109 0008 	add.w	r0, r9, #8
   121de:	f7ff f917 	bl	11410 <bcm2835_peri_write>
   121e2:	b1fc      	cbz	r4, 12224 <bcm2835_i2c_write+0x7c>
   121e4:	f244 0bc0 	movw	fp, #16576	; 0x40c0
   121e8:	f10a 36ff 	add.w	r6, sl, #4294967295
   121ec:	f2c0 0b02 	movt	fp, #2
   121f0:	2500      	movs	r5, #0
   121f2:	e00d      	b.n	12210 <bcm2835_i2c_write+0x68>
   121f4:	f8c9 1010 	str.w	r1, [r9, #16]
   121f8:	3c01      	subs	r4, #1
   121fa:	f105 0501 	add.w	r5, r5, #1
   121fe:	bf14      	ite	ne
   12200:	2301      	movne	r3, #1
   12202:	2300      	moveq	r3, #0
   12204:	2d0f      	cmp	r5, #15
   12206:	bf8c      	ite	hi
   12208:	2300      	movhi	r3, #0
   1220a:	f003 0301 	andls.w	r3, r3, #1
   1220e:	b153      	cbz	r3, 12226 <bcm2835_i2c_write+0x7e>
   12210:	f89b 3000 	ldrb.w	r3, [fp]
   12214:	f816 1f01 	ldrb.w	r1, [r6, #1]!
   12218:	2b00      	cmp	r3, #0
   1221a:	d0eb      	beq.n	121f4 <bcm2835_i2c_write+0x4c>
   1221c:	4640      	mov	r0, r8
   1221e:	f7ff f839 	bl	11294 <bcm2835_peri_write_nb.part.4>
   12222:	e7e9      	b.n	121f8 <bcm2835_i2c_write+0x50>
   12224:	4625      	mov	r5, r4
   12226:	f248 0180 	movw	r1, #32896	; 0x8080
   1222a:	4648      	mov	r0, r9
   1222c:	f7ff f8f0 	bl	11410 <bcm2835_peri_write>
   12230:	4638      	mov	r0, r7
   12232:	f7ff f8cb 	bl	113cc <bcm2835_peri_read>
   12236:	0781      	lsls	r1, r0, #30
   12238:	d416      	bmi.n	12268 <bcm2835_i2c_write+0xc0>
   1223a:	2c00      	cmp	r4, #0
   1223c:	d0f8      	beq.n	12230 <bcm2835_i2c_write+0x88>
   1223e:	eb0a 0605 	add.w	r6, sl, r5
   12242:	4638      	mov	r0, r7
   12244:	f7ff f8c2 	bl	113cc <bcm2835_peri_read>
   12248:	f010 0f10 	tst.w	r0, #16
   1224c:	4640      	mov	r0, r8
   1224e:	d0ef      	beq.n	12230 <bcm2835_i2c_write+0x88>
   12250:	f816 1b01 	ldrb.w	r1, [r6], #1
   12254:	3501      	adds	r5, #1
   12256:	f7ff f8db 	bl	11410 <bcm2835_peri_write>
   1225a:	3c01      	subs	r4, #1
   1225c:	d1f1      	bne.n	12242 <bcm2835_i2c_write+0x9a>
   1225e:	4638      	mov	r0, r7
   12260:	f7ff f8b4 	bl	113cc <bcm2835_peri_read>
   12264:	0781      	lsls	r1, r0, #30
   12266:	d5e8      	bpl.n	1223a <bcm2835_i2c_write+0x92>
   12268:	4638      	mov	r0, r7
   1226a:	f7ff f8af 	bl	113cc <bcm2835_peri_read>
   1226e:	05c2      	lsls	r2, r0, #23
   12270:	bf48      	it	mi
   12272:	2401      	movmi	r4, #1
   12274:	d507      	bpl.n	12286 <bcm2835_i2c_write+0xde>
   12276:	2202      	movs	r2, #2
   12278:	4648      	mov	r0, r9
   1227a:	4611      	mov	r1, r2
   1227c:	f7ff f8fa 	bl	11474 <bcm2835_peri_set_bits>
   12280:	4620      	mov	r0, r4
   12282:	e8bd 8ff8 	ldmia.w	sp!, {r3, r4, r5, r6, r7, r8, r9, sl, fp, pc}
   12286:	4638      	mov	r0, r7
   12288:	f7ff f8a0 	bl	113cc <bcm2835_peri_read>
   1228c:	0583      	lsls	r3, r0, #22
   1228e:	bf48      	it	mi
   12290:	2402      	movmi	r4, #2
   12292:	d4f0      	bmi.n	12276 <bcm2835_i2c_write+0xce>
   12294:	2c00      	cmp	r4, #0
   12296:	bf0c      	ite	eq
   12298:	2400      	moveq	r4, #0
   1229a:	2404      	movne	r4, #4
   1229c:	e7eb      	b.n	12276 <bcm2835_i2c_write+0xce>
   1229e:	bf00      	nop

000122a0 <bcm2835_i2c_read>:
   122a0:	e92d 4ff8 	stmdb	sp!, {r3, r4, r5, r6, r7, r8, r9, sl, fp, lr}
   122a4:	f244 0374 	movw	r3, #16500	; 0x4074
   122a8:	f2c0 0302 	movt	r3, #2
   122ac:	2220      	movs	r2, #32
   122ae:	f244 07c0 	movw	r7, #16576	; 0x40c0
   122b2:	f2c0 0702 	movt	r7, #2
   122b6:	6a1e      	ldr	r6, [r3, #32]
   122b8:	4682      	mov	sl, r0
   122ba:	460c      	mov	r4, r1
   122bc:	4611      	mov	r1, r2
   122be:	f106 0910 	add.w	r9, r6, #16
   122c2:	f106 0804 	add.w	r8, r6, #4
   122c6:	4630      	mov	r0, r6
   122c8:	f7ff f8d4 	bl	11474 <bcm2835_peri_set_bits>
   122cc:	783b      	ldrb	r3, [r7, #0]
   122ce:	2b00      	cmp	r3, #0
   122d0:	d16c      	bne.n	123ac <bcm2835_i2c_read+0x10c>
   122d2:	f240 3302 	movw	r3, #770	; 0x302
   122d6:	6073      	str	r3, [r6, #4]
   122d8:	60b4      	str	r4, [r6, #8]
   122da:	f248 0381 	movw	r3, #32897	; 0x8081
   122de:	6033      	str	r3, [r6, #0]
   122e0:	2300      	movs	r3, #0
   122e2:	2500      	movs	r5, #0
   122e4:	bb1b      	cbnz	r3, 1232e <bcm2835_i2c_read+0x8e>
   122e6:	6870      	ldr	r0, [r6, #4]
   122e8:	0780      	lsls	r0, r0, #30
   122ea:	d425      	bmi.n	12338 <bcm2835_i2c_read+0x98>
   122ec:	783b      	ldrb	r3, [r7, #0]
   122ee:	2c00      	cmp	r4, #0
   122f0:	d0f8      	beq.n	122e4 <bcm2835_i2c_read+0x44>
   122f2:	eb0a 0b05 	add.w	fp, sl, r5
   122f6:	b963      	cbnz	r3, 12312 <bcm2835_i2c_read+0x72>
   122f8:	6873      	ldr	r3, [r6, #4]
   122fa:	069b      	lsls	r3, r3, #26
   122fc:	d5f3      	bpl.n	122e6 <bcm2835_i2c_read+0x46>
   122fe:	6930      	ldr	r0, [r6, #16]
   12300:	2300      	movs	r3, #0
   12302:	3c01      	subs	r4, #1
   12304:	f105 0501 	add.w	r5, r5, #1
   12308:	f80b 0b01 	strb.w	r0, [fp], #1
   1230c:	d0ea      	beq.n	122e4 <bcm2835_i2c_read+0x44>
   1230e:	2b00      	cmp	r3, #0
   12310:	d0f2      	beq.n	122f8 <bcm2835_i2c_read+0x58>
   12312:	4640      	mov	r0, r8
   12314:	f7fe ffb2 	bl	1127c <bcm2835_peri_read_nb.part.2>
   12318:	783b      	ldrb	r3, [r7, #0]
   1231a:	f010 0f20 	tst.w	r0, #32
   1231e:	4648      	mov	r0, r9
   12320:	d0e0      	beq.n	122e4 <bcm2835_i2c_read+0x44>
   12322:	2b00      	cmp	r3, #0
   12324:	d0eb      	beq.n	122fe <bcm2835_i2c_read+0x5e>
   12326:	f7fe ffa9 	bl	1127c <bcm2835_peri_read_nb.part.2>
   1232a:	783b      	ldrb	r3, [r7, #0]
   1232c:	e7e9      	b.n	12302 <bcm2835_i2c_read+0x62>
   1232e:	4640      	mov	r0, r8
   12330:	f7fe ffa4 	bl	1127c <bcm2835_peri_read_nb.part.2>
   12334:	0780      	lsls	r0, r0, #30
   12336:	d5d9      	bpl.n	122ec <bcm2835_i2c_read+0x4c>
   12338:	4455      	add	r5, sl
   1233a:	b944      	cbnz	r4, 1234e <bcm2835_i2c_read+0xae>
   1233c:	e01a      	b.n	12374 <bcm2835_i2c_read+0xd4>
   1233e:	6873      	ldr	r3, [r6, #4]
   12340:	0699      	lsls	r1, r3, #26
   12342:	d518      	bpl.n	12376 <bcm2835_i2c_read+0xd6>
   12344:	6930      	ldr	r0, [r6, #16]
   12346:	3c01      	subs	r4, #1
   12348:	f805 0b01 	strb.w	r0, [r5], #1
   1234c:	d012      	beq.n	12374 <bcm2835_i2c_read+0xd4>
   1234e:	783b      	ldrb	r3, [r7, #0]
   12350:	2b00      	cmp	r3, #0
   12352:	d0f4      	beq.n	1233e <bcm2835_i2c_read+0x9e>
   12354:	4640      	mov	r0, r8
   12356:	f7fe ff91 	bl	1127c <bcm2835_peri_read_nb.part.2>
   1235a:	f010 0f20 	tst.w	r0, #32
   1235e:	4648      	mov	r0, r9
   12360:	d009      	beq.n	12376 <bcm2835_i2c_read+0xd6>
   12362:	783b      	ldrb	r3, [r7, #0]
   12364:	2b00      	cmp	r3, #0
   12366:	d0ed      	beq.n	12344 <bcm2835_i2c_read+0xa4>
   12368:	f7fe ff88 	bl	1127c <bcm2835_peri_read_nb.part.2>
   1236c:	3c01      	subs	r4, #1
   1236e:	f805 0b01 	strb.w	r0, [r5], #1
   12372:	d1ec      	bne.n	1234e <bcm2835_i2c_read+0xae>
   12374:	2400      	movs	r4, #0
   12376:	4640      	mov	r0, r8
   12378:	f7ff f828 	bl	113cc <bcm2835_peri_read>
   1237c:	05c2      	lsls	r2, r0, #23
   1237e:	bf48      	it	mi
   12380:	2401      	movmi	r4, #1
   12382:	d507      	bpl.n	12394 <bcm2835_i2c_read+0xf4>
   12384:	2202      	movs	r2, #2
   12386:	4630      	mov	r0, r6
   12388:	4611      	mov	r1, r2
   1238a:	f7ff f873 	bl	11474 <bcm2835_peri_set_bits>
   1238e:	4620      	mov	r0, r4
   12390:	e8bd 8ff8 	ldmia.w	sp!, {r3, r4, r5, r6, r7, r8, r9, sl, fp, pc}
   12394:	4640      	mov	r0, r8
   12396:	f7ff f819 	bl	113cc <bcm2835_peri_read>
   1239a:	0583      	lsls	r3, r0, #22
   1239c:	bf48      	it	mi
   1239e:	2402      	movmi	r4, #2
   123a0:	d4f0      	bmi.n	12384 <bcm2835_i2c_read+0xe4>
   123a2:	2c00      	cmp	r4, #0
   123a4:	bf14      	ite	ne
   123a6:	2404      	movne	r4, #4
   123a8:	2400      	moveq	r4, #0
   123aa:	e7eb      	b.n	12384 <bcm2835_i2c_read+0xe4>
   123ac:	f240 3102 	movw	r1, #770	; 0x302
   123b0:	4640      	mov	r0, r8
   123b2:	f7fe ff6f 	bl	11294 <bcm2835_peri_write_nb.part.4>
   123b6:	783b      	ldrb	r3, [r7, #0]
   123b8:	2b00      	cmp	r3, #0
   123ba:	d08d      	beq.n	122d8 <bcm2835_i2c_read+0x38>
   123bc:	4621      	mov	r1, r4
   123be:	f106 0008 	add.w	r0, r6, #8
   123c2:	f7fe ff67 	bl	11294 <bcm2835_peri_write_nb.part.4>
   123c6:	783b      	ldrb	r3, [r7, #0]
   123c8:	2b00      	cmp	r3, #0
   123ca:	d086      	beq.n	122da <bcm2835_i2c_read+0x3a>
   123cc:	f248 0181 	movw	r1, #32897	; 0x8081
   123d0:	4630      	mov	r0, r6
   123d2:	f7fe ff5f 	bl	11294 <bcm2835_peri_write_nb.part.4>
   123d6:	783b      	ldrb	r3, [r7, #0]
   123d8:	e783      	b.n	122e2 <bcm2835_i2c_read+0x42>
   123da:	bf00      	nop

000123dc <bcm2835_st_read>:
   123dc:	b5f8      	push	{r3, r4, r5, r6, r7, lr}
   123de:	f244 0474 	movw	r4, #16500	; 0x4074
   123e2:	f2c0 0402 	movt	r4, #2
   123e6:	6a60      	ldr	r0, [r4, #36]	; 0x24
   123e8:	1c43      	adds	r3, r0, #1
   123ea:	d025      	beq.n	12438 <bcm2835_st_read+0x5c>
   123ec:	3008      	adds	r0, #8
   123ee:	2700      	movs	r7, #0
   123f0:	f7fe ffec 	bl	113cc <bcm2835_peri_read>
   123f4:	4606      	mov	r6, r0
   123f6:	6a60      	ldr	r0, [r4, #36]	; 0x24
   123f8:	3004      	adds	r0, #4
   123fa:	f7fe ffe7 	bl	113cc <bcm2835_peri_read>
   123fe:	4605      	mov	r5, r0
   12400:	6a60      	ldr	r0, [r4, #36]	; 0x24
   12402:	3008      	adds	r0, #8
   12404:	f7fe ffe2 	bl	113cc <bcm2835_peri_read>
   12408:	2100      	movs	r1, #0
   1240a:	428f      	cmp	r7, r1
   1240c:	4603      	mov	r3, r0
   1240e:	4630      	mov	r0, r6
   12410:	bf08      	it	eq
   12412:	4283      	cmpeq	r3, r0
   12414:	461e      	mov	r6, r3
   12416:	d00a      	beq.n	1242e <bcm2835_st_read+0x52>
   12418:	6a60      	ldr	r0, [r4, #36]	; 0x24
   1241a:	2400      	movs	r4, #0
   1241c:	3004      	adds	r0, #4
   1241e:	f7fe ffd5 	bl	113cc <bcm2835_peri_read>
   12422:	1822      	adds	r2, r4, r0
   12424:	f146 0300 	adc.w	r3, r6, #0
   12428:	4610      	mov	r0, r2
   1242a:	4619      	mov	r1, r3
   1242c:	bdf8      	pop	{r3, r4, r5, r6, r7, pc}
   1242e:	2000      	movs	r0, #0
   12430:	1940      	adds	r0, r0, r5
   12432:	f143 0100 	adc.w	r1, r3, #0
   12436:	bdf8      	pop	{r3, r4, r5, r6, r7, pc}
   12438:	2000      	movs	r0, #0
   1243a:	2100      	movs	r1, #0
   1243c:	bdf8      	pop	{r3, r4, r5, r6, r7, pc}
   1243e:	bf00      	nop

00012440 <bcm2835_delayMicroseconds>:
   12440:	e92d 43f0 	stmdb	sp!, {r4, r5, r6, r7, r8, r9, lr}
   12444:	f244 03c0 	movw	r3, #16576	; 0x40c0
   12448:	f244 06b0 	movw	r6, #16560	; 0x40b0
   1244c:	f2c0 0302 	movt	r3, #2
   12450:	f2c0 0602 	movt	r6, #2
   12454:	b085      	sub	sp, #20
   12456:	781f      	ldrb	r7, [r3, #0]
   12458:	4604      	mov	r4, r0
   1245a:	6832      	ldr	r2, [r6, #0]
   1245c:	460d      	mov	r5, r1
   1245e:	9203      	str	r2, [sp, #12]
   12460:	b17f      	cbz	r7, 12482 <bcm2835_delayMicroseconds+0x42>
   12462:	4602      	mov	r2, r0
   12464:	460b      	mov	r3, r1
   12466:	2001      	movs	r0, #1
   12468:	f642 71d0 	movw	r1, #12240	; 0x2fd0
   1246c:	f2c0 0101 	movt	r1, #1
   12470:	f7fe ea4a 	blx	10908 <__printf_chk@plt+0x4>
   12474:	9a03      	ldr	r2, [sp, #12]
   12476:	6833      	ldr	r3, [r6, #0]
   12478:	429a      	cmp	r2, r3
   1247a:	d135      	bne.n	124e8 <bcm2835_delayMicroseconds+0xa8>
   1247c:	b005      	add	sp, #20
   1247e:	e8bd 83f0 	ldmia.w	sp!, {r4, r5, r6, r7, r8, r9, pc}
   12482:	f7ff ffab 	bl	123dc <bcm2835_st_read>
   12486:	4680      	mov	r8, r0
   12488:	4689      	mov	r9, r1
   1248a:	ea58 0309 	orrs.w	r3, r8, r9
   1248e:	d011      	beq.n	124b4 <bcm2835_delayMicroseconds+0x74>
   12490:	2300      	movs	r3, #0
   12492:	42ab      	cmp	r3, r5
   12494:	f44f 72e1 	mov.w	r2, #450	; 0x1c2
   12498:	bf08      	it	eq
   1249a:	42a2      	cmpeq	r2, r4
   1249c:	d315      	bcc.n	124ca <bcm2835_delayMicroseconds+0x8a>
   1249e:	eb14 0408 	adds.w	r4, r4, r8
   124a2:	eb45 0509 	adc.w	r5, r5, r9
   124a6:	f7ff ff99 	bl	123dc <bcm2835_st_read>
   124aa:	42a9      	cmp	r1, r5
   124ac:	bf08      	it	eq
   124ae:	42a0      	cmpeq	r0, r4
   124b0:	d3f9      	bcc.n	124a6 <bcm2835_delayMicroseconds+0x66>
   124b2:	e7df      	b.n	12474 <bcm2835_delayMicroseconds+0x34>
   124b4:	f44f 727a 	mov.w	r2, #1000	; 0x3e8
   124b8:	4639      	mov	r1, r7
   124ba:	fb02 f404 	mul.w	r4, r2, r4
   124be:	a801      	add	r0, sp, #4
   124c0:	9701      	str	r7, [sp, #4]
   124c2:	9402      	str	r4, [sp, #8]
   124c4:	f7fe e9ac 	blx	10820 <nanosleep@plt>
   124c8:	e7d4      	b.n	12474 <bcm2835_delayMicroseconds+0x34>
   124ca:	f44f 737a 	mov.w	r3, #1000	; 0x3e8
   124ce:	4639      	mov	r1, r7
   124d0:	fb03 f304 	mul.w	r3, r3, r4
   124d4:	a801      	add	r0, sp, #4
   124d6:	9701      	str	r7, [sp, #4]
   124d8:	f5a3 3343 	sub.w	r3, r3, #199680	; 0x30c00
   124dc:	f5a3 73a0 	sub.w	r3, r3, #320	; 0x140
   124e0:	9302      	str	r3, [sp, #8]
   124e2:	f7fe e99e 	blx	10820 <nanosleep@plt>
   124e6:	e7da      	b.n	1249e <bcm2835_delayMicroseconds+0x5e>
   124e8:	f7fe e9c4 	blx	10874 <__stack_chk_fail@plt>

000124ec <bcm2835_gpio_set_pud>:
   124ec:	e92d 43f8 	stmdb	sp!, {r3, r4, r5, r6, r7, r8, r9, lr}
   124f0:	f244 04c0 	movw	r4, #16576	; 0x40c0
   124f4:	f2c0 0402 	movt	r4, #2
   124f8:	4605      	mov	r5, r0
   124fa:	7866      	ldrb	r6, [r4, #1]
   124fc:	b32e      	cbz	r6, 1254a <bcm2835_gpio_set_pud+0x5e>
   124fe:	f000 000f 	and.w	r0, r0, #15
   12502:	2901      	cmp	r1, #1
   12504:	ea4f 0740 	mov.w	r7, r0, lsl #1
   12508:	d041      	beq.n	1258e <bcm2835_gpio_set_pud+0xa2>
   1250a:	d344      	bcc.n	12596 <bcm2835_gpio_set_pud+0xaa>
   1250c:	2902      	cmp	r1, #2
   1250e:	bf04      	itt	eq
   12510:	2101      	moveq	r1, #1
   12512:	fa01 f607 	lsleq.w	r6, r1, r7
   12516:	d130      	bne.n	1257a <bcm2835_gpio_set_pud+0x8e>
   12518:	f244 0374 	movw	r3, #16500	; 0x4074
   1251c:	f2c0 0302 	movt	r3, #2
   12520:	092d      	lsrs	r5, r5, #4
   12522:	7822      	ldrb	r2, [r4, #0]
   12524:	3539      	adds	r5, #57	; 0x39
   12526:	f8d3 8008 	ldr.w	r8, [r3, #8]
   1252a:	eb08 0985 	add.w	r9, r8, r5, lsl #2
   1252e:	bba2      	cbnz	r2, 1259a <bcm2835_gpio_set_pud+0xae>
   12530:	2303      	movs	r3, #3
   12532:	f858 0025 	ldr.w	r0, [r8, r5, lsl #2]
   12536:	fa03 f107 	lsl.w	r1, r3, r7
   1253a:	ea20 0001 	bic.w	r0, r0, r1
   1253e:	ea46 0100 	orr.w	r1, r6, r0
   12542:	f848 1025 	str.w	r1, [r8, r5, lsl #2]
   12546:	e8bd 83f8 	ldmia.w	sp!, {r3, r4, r5, r6, r7, r8, r9, pc}
   1254a:	4608      	mov	r0, r1
   1254c:	f7fe ff7a 	bl	11444 <bcm2835_gpio_pud.part.5>
   12550:	200a      	movs	r0, #10
   12552:	2100      	movs	r1, #0
   12554:	f7ff ff74 	bl	12440 <bcm2835_delayMicroseconds>
   12558:	2101      	movs	r1, #1
   1255a:	4628      	mov	r0, r5
   1255c:	f000 f82e 	bl	125bc <bcm2835_gpio_pudclk>
   12560:	200a      	movs	r0, #10
   12562:	2100      	movs	r1, #0
   12564:	f7ff ff6c 	bl	12440 <bcm2835_delayMicroseconds>
   12568:	7860      	ldrb	r0, [r4, #1]
   1256a:	b140      	cbz	r0, 1257e <bcm2835_gpio_set_pud+0x92>
   1256c:	70a6      	strb	r6, [r4, #2]
   1256e:	4628      	mov	r0, r5
   12570:	2100      	movs	r1, #0
   12572:	e8bd 43f8 	ldmia.w	sp!, {r3, r4, r5, r6, r7, r8, r9, lr}
   12576:	f000 b821 	b.w	125bc <bcm2835_gpio_pudclk>
   1257a:	e8bd 83f8 	ldmia.w	sp!, {r3, r4, r5, r6, r7, r8, r9, pc}
   1257e:	f7fe ff61 	bl	11444 <bcm2835_gpio_pud.part.5>
   12582:	4628      	mov	r0, r5
   12584:	2100      	movs	r1, #0
   12586:	e8bd 43f8 	ldmia.w	sp!, {r3, r4, r5, r6, r7, r8, r9, lr}
   1258a:	f000 b817 	b.w	125bc <bcm2835_gpio_pudclk>
   1258e:	2102      	movs	r1, #2
   12590:	fa01 f607 	lsl.w	r6, r1, r7
   12594:	e7c0      	b.n	12518 <bcm2835_gpio_set_pud+0x2c>
   12596:	2600      	movs	r6, #0
   12598:	e7be      	b.n	12518 <bcm2835_gpio_set_pud+0x2c>
   1259a:	4648      	mov	r0, r9
   1259c:	f7fe fe6e 	bl	1127c <bcm2835_peri_read_nb.part.2>
   125a0:	2103      	movs	r1, #3
   125a2:	7823      	ldrb	r3, [r4, #0]
   125a4:	40b9      	lsls	r1, r7
   125a6:	ea20 0001 	bic.w	r0, r0, r1
   125aa:	ea46 0100 	orr.w	r1, r6, r0
   125ae:	2b00      	cmp	r3, #0
   125b0:	d0c7      	beq.n	12542 <bcm2835_gpio_set_pud+0x56>
   125b2:	4648      	mov	r0, r9
   125b4:	e8bd 43f8 	ldmia.w	sp!, {r3, r4, r5, r6, r7, r8, r9, lr}
   125b8:	f7fe be6c 	b.w	11294 <bcm2835_peri_write_nb.part.4>

000125bc <bcm2835_gpio_pudclk>:
   125bc:	f244 03c0 	movw	r3, #16576	; 0x40c0
   125c0:	f2c0 0302 	movt	r3, #2
   125c4:	b410      	push	{r4}
   125c6:	785c      	ldrb	r4, [r3, #1]
   125c8:	b11c      	cbz	r4, 125d2 <bcm2835_gpio_pudclk+0x16>
   125ca:	b9b9      	cbnz	r1, 125fc <bcm2835_gpio_pudclk+0x40>
   125cc:	f85d 4b04 	ldr.w	r4, [sp], #4
   125d0:	4770      	bx	lr
   125d2:	4602      	mov	r2, r0
   125d4:	f244 0074 	movw	r0, #16500	; 0x4074
   125d8:	f2c0 0002 	movt	r0, #2
   125dc:	0953      	lsrs	r3, r2, #5
   125de:	3100      	adds	r1, #0
   125e0:	f103 0326 	add.w	r3, r3, #38	; 0x26
   125e4:	6880      	ldr	r0, [r0, #8]
   125e6:	f002 021f 	and.w	r2, r2, #31
   125ea:	bf18      	it	ne
   125ec:	2101      	movne	r1, #1
   125ee:	f85d 4b04 	ldr.w	r4, [sp], #4
   125f2:	4091      	lsls	r1, r2
   125f4:	eb00 0083 	add.w	r0, r0, r3, lsl #2
   125f8:	f7fe bf0a 	b.w	11410 <bcm2835_peri_write>
   125fc:	7899      	ldrb	r1, [r3, #2]
   125fe:	f85d 4b04 	ldr.w	r4, [sp], #4
   12602:	f7ff bf73 	b.w	124ec <bcm2835_gpio_set_pud>
   12606:	bf00      	nop

00012608 <bcm2835_i2c_read_register_rs>:
   12608:	f244 0374 	movw	r3, #16500	; 0x4074
   1260c:	f2c0 0302 	movt	r3, #2
   12610:	e92d 47f0 	stmdb	sp!, {r4, r5, r6, r7, r8, r9, sl, lr}
   12614:	4614      	mov	r4, r2
   12616:	f8d3 a020 	ldr.w	sl, [r3, #32]
   1261a:	2220      	movs	r2, #32
   1261c:	4606      	mov	r6, r0
   1261e:	4689      	mov	r9, r1
   12620:	f10a 0704 	add.w	r7, sl, #4
   12624:	4611      	mov	r1, r2
   12626:	4650      	mov	r0, sl
   12628:	f10a 0508 	add.w	r5, sl, #8
   1262c:	f7fe ff22 	bl	11474 <bcm2835_peri_set_bits>
   12630:	4638      	mov	r0, r7
   12632:	f240 3102 	movw	r1, #770	; 0x302
   12636:	f10a 0810 	add.w	r8, sl, #16
   1263a:	f7fe fee9 	bl	11410 <bcm2835_peri_write>
   1263e:	4628      	mov	r0, r5
   12640:	2101      	movs	r1, #1
   12642:	f7fe fee5 	bl	11410 <bcm2835_peri_write>
   12646:	4650      	mov	r0, sl
   12648:	f44f 4100 	mov.w	r1, #32768	; 0x8000
   1264c:	f7fe fee0 	bl	11410 <bcm2835_peri_write>
   12650:	7831      	ldrb	r1, [r6, #0]
   12652:	4640      	mov	r0, r8
   12654:	f7fe fedc 	bl	11410 <bcm2835_peri_write>
   12658:	4650      	mov	r0, sl
   1265a:	f248 0180 	movw	r1, #32896	; 0x8080
   1265e:	f7fe fed7 	bl	11410 <bcm2835_peri_write>
   12662:	e003      	b.n	1266c <bcm2835_i2c_read_register_rs+0x64>
   12664:	f7fe feb2 	bl	113cc <bcm2835_peri_read>
   12668:	0780      	lsls	r0, r0, #30
   1266a:	d406      	bmi.n	1267a <bcm2835_i2c_read_register_rs+0x72>
   1266c:	4638      	mov	r0, r7
   1266e:	f7fe fead 	bl	113cc <bcm2835_peri_read>
   12672:	f010 0f01 	tst.w	r0, #1
   12676:	4638      	mov	r0, r7
   12678:	d0f4      	beq.n	12664 <bcm2835_i2c_read_register_rs+0x5c>
   1267a:	4628      	mov	r0, r5
   1267c:	4621      	mov	r1, r4
   1267e:	f7fe fec7 	bl	11410 <bcm2835_peri_write>
   12682:	f248 0181 	movw	r1, #32897	; 0x8081
   12686:	4650      	mov	r0, sl
   12688:	2500      	movs	r5, #0
   1268a:	f7fe fec1 	bl	11410 <bcm2835_peri_write>
   1268e:	f244 03c0 	movw	r3, #16576	; 0x40c0
   12692:	f2c0 0302 	movt	r3, #2
   12696:	6898      	ldr	r0, [r3, #8]
   12698:	eb00 0040 	add.w	r0, r0, r0, lsl #1
   1269c:	17c1      	asrs	r1, r0, #31
   1269e:	f7ff fecf 	bl	12440 <bcm2835_delayMicroseconds>
   126a2:	4638      	mov	r0, r7
   126a4:	f7fe fe92 	bl	113cc <bcm2835_peri_read>
   126a8:	0781      	lsls	r1, r0, #30
   126aa:	d417      	bmi.n	126dc <bcm2835_i2c_read_register_rs+0xd4>
   126ac:	2c00      	cmp	r4, #0
   126ae:	d0f8      	beq.n	126a2 <bcm2835_i2c_read_register_rs+0x9a>
   126b0:	eb09 0605 	add.w	r6, r9, r5
   126b4:	4638      	mov	r0, r7
   126b6:	f7fe fe89 	bl	113cc <bcm2835_peri_read>
   126ba:	f010 0f20 	tst.w	r0, #32
   126be:	4640      	mov	r0, r8
   126c0:	d0ef      	beq.n	126a2 <bcm2835_i2c_read_register_rs+0x9a>
   126c2:	f7fe fe83 	bl	113cc <bcm2835_peri_read>
   126c6:	3c01      	subs	r4, #1
   126c8:	f105 0501 	add.w	r5, r5, #1
   126cc:	f806 0b01 	strb.w	r0, [r6], #1
   126d0:	d1f0      	bne.n	126b4 <bcm2835_i2c_read_register_rs+0xac>
   126d2:	4638      	mov	r0, r7
   126d4:	f7fe fe7a 	bl	113cc <bcm2835_peri_read>
   126d8:	0781      	lsls	r1, r0, #30
   126da:	d5e7      	bpl.n	126ac <bcm2835_i2c_read_register_rs+0xa4>
   126dc:	444d      	add	r5, r9
   126de:	b934      	cbnz	r4, 126ee <bcm2835_i2c_read_register_rs+0xe6>
   126e0:	e01b      	b.n	1271a <bcm2835_i2c_read_register_rs+0x112>
   126e2:	f7fe fe73 	bl	113cc <bcm2835_peri_read>
   126e6:	3c01      	subs	r4, #1
   126e8:	f805 0b01 	strb.w	r0, [r5], #1
   126ec:	d015      	beq.n	1271a <bcm2835_i2c_read_register_rs+0x112>
   126ee:	4638      	mov	r0, r7
   126f0:	f7fe fe6c 	bl	113cc <bcm2835_peri_read>
   126f4:	f010 0f20 	tst.w	r0, #32
   126f8:	4640      	mov	r0, r8
   126fa:	d1f2      	bne.n	126e2 <bcm2835_i2c_read_register_rs+0xda>
   126fc:	4638      	mov	r0, r7
   126fe:	f7fe fe65 	bl	113cc <bcm2835_peri_read>
   12702:	05c2      	lsls	r2, r0, #23
   12704:	bf48      	it	mi
   12706:	2401      	movmi	r4, #1
   12708:	d509      	bpl.n	1271e <bcm2835_i2c_read_register_rs+0x116>
   1270a:	2202      	movs	r2, #2
   1270c:	4650      	mov	r0, sl
   1270e:	4611      	mov	r1, r2
   12710:	f7fe feb0 	bl	11474 <bcm2835_peri_set_bits>
   12714:	4620      	mov	r0, r4
   12716:	e8bd 87f0 	ldmia.w	sp!, {r4, r5, r6, r7, r8, r9, sl, pc}
   1271a:	2400      	movs	r4, #0
   1271c:	e7ee      	b.n	126fc <bcm2835_i2c_read_register_rs+0xf4>
   1271e:	4638      	mov	r0, r7
   12720:	f7fe fe54 	bl	113cc <bcm2835_peri_read>
   12724:	0583      	lsls	r3, r0, #22
   12726:	bf48      	it	mi
   12728:	2402      	movmi	r4, #2
   1272a:	d4ee      	bmi.n	1270a <bcm2835_i2c_read_register_rs+0x102>
   1272c:	2c00      	cmp	r4, #0
   1272e:	bf0c      	ite	eq
   12730:	2400      	moveq	r4, #0
   12732:	2404      	movne	r4, #4
   12734:	e7e9      	b.n	1270a <bcm2835_i2c_read_register_rs+0x102>
   12736:	bf00      	nop

00012738 <bcm2835_i2c_write_read_rs>:
   12738:	e92d 4ff0 	stmdb	sp!, {r4, r5, r6, r7, r8, r9, sl, fp, lr}
   1273c:	f244 0474 	movw	r4, #16500	; 0x4074
   12740:	f2c0 0402 	movt	r4, #2
   12744:	b083      	sub	sp, #12
   12746:	4693      	mov	fp, r2
   12748:	2220      	movs	r2, #32
   1274a:	f8d4 9020 	ldr.w	r9, [r4, #32]
   1274e:	461c      	mov	r4, r3
   12750:	4680      	mov	r8, r0
   12752:	460e      	mov	r6, r1
   12754:	f109 0308 	add.w	r3, r9, #8
   12758:	f109 0704 	add.w	r7, r9, #4
   1275c:	4611      	mov	r1, r2
   1275e:	4648      	mov	r0, r9
   12760:	461d      	mov	r5, r3
   12762:	9301      	str	r3, [sp, #4]
   12764:	f7fe fe86 	bl	11474 <bcm2835_peri_set_bits>
   12768:	4638      	mov	r0, r7
   1276a:	f240 3102 	movw	r1, #770	; 0x302
   1276e:	f109 0a10 	add.w	sl, r9, #16
   12772:	f7fe fe4d 	bl	11410 <bcm2835_peri_write>
   12776:	4628      	mov	r0, r5
   12778:	4631      	mov	r1, r6
   1277a:	2500      	movs	r5, #0
   1277c:	f7fe fe48 	bl	11410 <bcm2835_peri_write>
   12780:	f108 32ff 	add.w	r2, r8, #4294967295
   12784:	f244 08c0 	movw	r8, #16576	; 0x40c0
   12788:	f2c0 0802 	movt	r8, #2
   1278c:	b956      	cbnz	r6, 127a4 <bcm2835_i2c_write_read_rs+0x6c>
   1278e:	e015      	b.n	127bc <bcm2835_i2c_write_read_rs+0x84>
   12790:	f8c9 1010 	str.w	r1, [r9, #16]
   12794:	3501      	adds	r5, #1
   12796:	1b71      	subs	r1, r6, r5
   12798:	bf18      	it	ne
   1279a:	2101      	movne	r1, #1
   1279c:	2d0f      	cmp	r5, #15
   1279e:	bf88      	it	hi
   127a0:	2100      	movhi	r1, #0
   127a2:	b179      	cbz	r1, 127c4 <bcm2835_i2c_write_read_rs+0x8c>
   127a4:	f898 0000 	ldrb.w	r0, [r8]
   127a8:	f812 1f01 	ldrb.w	r1, [r2, #1]!
   127ac:	2800      	cmp	r0, #0
   127ae:	d0ef      	beq.n	12790 <bcm2835_i2c_write_read_rs+0x58>
   127b0:	4650      	mov	r0, sl
   127b2:	9200      	str	r2, [sp, #0]
   127b4:	f7fe fd6e 	bl	11294 <bcm2835_peri_write_nb.part.4>
   127b8:	9a00      	ldr	r2, [sp, #0]
   127ba:	e7eb      	b.n	12794 <bcm2835_i2c_write_read_rs+0x5c>
   127bc:	f244 08c0 	movw	r8, #16576	; 0x40c0
   127c0:	f2c0 0802 	movt	r8, #2
   127c4:	f248 0180 	movw	r1, #32896	; 0x8080
   127c8:	4648      	mov	r0, r9
   127ca:	f7fe fe21 	bl	11410 <bcm2835_peri_write>
   127ce:	e003      	b.n	127d8 <bcm2835_i2c_write_read_rs+0xa0>
   127d0:	f8d9 0004 	ldr.w	r0, [r9, #4]
   127d4:	0783      	lsls	r3, r0, #30
   127d6:	d40d      	bmi.n	127f4 <bcm2835_i2c_write_read_rs+0xbc>
   127d8:	4638      	mov	r0, r7
   127da:	f7fe fdf7 	bl	113cc <bcm2835_peri_read>
   127de:	07c5      	lsls	r5, r0, #31
   127e0:	d408      	bmi.n	127f4 <bcm2835_i2c_write_read_rs+0xbc>
   127e2:	f898 3000 	ldrb.w	r3, [r8]
   127e6:	2b00      	cmp	r3, #0
   127e8:	d0f2      	beq.n	127d0 <bcm2835_i2c_write_read_rs+0x98>
   127ea:	4638      	mov	r0, r7
   127ec:	f7fe fd46 	bl	1127c <bcm2835_peri_read_nb.part.2>
   127f0:	0783      	lsls	r3, r0, #30
   127f2:	d5f1      	bpl.n	127d8 <bcm2835_i2c_write_read_rs+0xa0>
   127f4:	9801      	ldr	r0, [sp, #4]
   127f6:	4621      	mov	r1, r4
   127f8:	f7fe fe0a 	bl	11410 <bcm2835_peri_write>
   127fc:	f248 0181 	movw	r1, #32897	; 0x8081
   12800:	4648      	mov	r0, r9
   12802:	2500      	movs	r5, #0
   12804:	f7fe fe04 	bl	11410 <bcm2835_peri_write>
   12808:	f8d8 0008 	ldr.w	r0, [r8, #8]
   1280c:	4629      	mov	r1, r5
   1280e:	fb06 0000 	mla	r0, r6, r0, r0
   12812:	f7ff fe15 	bl	12440 <bcm2835_delayMicroseconds>
   12816:	f898 3000 	ldrb.w	r3, [r8]
   1281a:	b9eb      	cbnz	r3, 12858 <bcm2835_i2c_write_read_rs+0x120>
   1281c:	f8d9 0004 	ldr.w	r0, [r9, #4]
   12820:	0781      	lsls	r1, r0, #30
   12822:	d41e      	bmi.n	12862 <bcm2835_i2c_write_read_rs+0x12a>
   12824:	2c00      	cmp	r4, #0
   12826:	d0f6      	beq.n	12816 <bcm2835_i2c_write_read_rs+0xde>
   12828:	eb0b 0605 	add.w	r6, fp, r5
   1282c:	e007      	b.n	1283e <bcm2835_i2c_write_read_rs+0x106>
   1282e:	f8d9 0010 	ldr.w	r0, [r9, #16]
   12832:	3c01      	subs	r4, #1
   12834:	f105 0501 	add.w	r5, r5, #1
   12838:	f806 0b01 	strb.w	r0, [r6], #1
   1283c:	d0eb      	beq.n	12816 <bcm2835_i2c_write_read_rs+0xde>
   1283e:	4638      	mov	r0, r7
   12840:	f7fe fdc4 	bl	113cc <bcm2835_peri_read>
   12844:	0680      	lsls	r0, r0, #26
   12846:	d5e6      	bpl.n	12816 <bcm2835_i2c_write_read_rs+0xde>
   12848:	f898 3000 	ldrb.w	r3, [r8]
   1284c:	2b00      	cmp	r3, #0
   1284e:	d0ee      	beq.n	1282e <bcm2835_i2c_write_read_rs+0xf6>
   12850:	4650      	mov	r0, sl
   12852:	f7fe fd13 	bl	1127c <bcm2835_peri_read_nb.part.2>
   12856:	e7ec      	b.n	12832 <bcm2835_i2c_write_read_rs+0xfa>
   12858:	4638      	mov	r0, r7
   1285a:	f7fe fd0f 	bl	1127c <bcm2835_peri_read_nb.part.2>
   1285e:	0781      	lsls	r1, r0, #30
   12860:	d5e0      	bpl.n	12824 <bcm2835_i2c_write_read_rs+0xec>
   12862:	445d      	add	r5, fp
   12864:	b934      	cbnz	r4, 12874 <bcm2835_i2c_write_read_rs+0x13c>
   12866:	e01c      	b.n	128a2 <bcm2835_i2c_write_read_rs+0x16a>
   12868:	f7fe fdb0 	bl	113cc <bcm2835_peri_read>
   1286c:	3c01      	subs	r4, #1
   1286e:	f805 0b01 	strb.w	r0, [r5], #1
   12872:	d016      	beq.n	128a2 <bcm2835_i2c_write_read_rs+0x16a>
   12874:	4638      	mov	r0, r7
   12876:	f7fe fda9 	bl	113cc <bcm2835_peri_read>
   1287a:	f010 0f20 	tst.w	r0, #32
   1287e:	4650      	mov	r0, sl
   12880:	d1f2      	bne.n	12868 <bcm2835_i2c_write_read_rs+0x130>
   12882:	4638      	mov	r0, r7
   12884:	f7fe fda2 	bl	113cc <bcm2835_peri_read>
   12888:	05c2      	lsls	r2, r0, #23
   1288a:	bf48      	it	mi
   1288c:	2401      	movmi	r4, #1
   1288e:	d50a      	bpl.n	128a6 <bcm2835_i2c_write_read_rs+0x16e>
   12890:	2202      	movs	r2, #2
   12892:	4648      	mov	r0, r9
   12894:	4611      	mov	r1, r2
   12896:	f7fe fded 	bl	11474 <bcm2835_peri_set_bits>
   1289a:	4620      	mov	r0, r4
   1289c:	b003      	add	sp, #12
   1289e:	e8bd 8ff0 	ldmia.w	sp!, {r4, r5, r6, r7, r8, r9, sl, fp, pc}
   128a2:	2400      	movs	r4, #0
   128a4:	e7ed      	b.n	12882 <bcm2835_i2c_write_read_rs+0x14a>
   128a6:	4638      	mov	r0, r7
   128a8:	f7fe fd90 	bl	113cc <bcm2835_peri_read>
   128ac:	0583      	lsls	r3, r0, #22
   128ae:	bf48      	it	mi
   128b0:	2402      	movmi	r4, #2
   128b2:	d4ed      	bmi.n	12890 <bcm2835_i2c_write_read_rs+0x158>
   128b4:	2c00      	cmp	r4, #0
   128b6:	bf0c      	ite	eq
   128b8:	2400      	moveq	r4, #0
   128ba:	2404      	movne	r4, #4
   128bc:	e7e8      	b.n	12890 <bcm2835_i2c_write_read_rs+0x158>
   128be:	bf00      	nop

000128c0 <bcm2835_st_delay>:
   128c0:	b538      	push	{r3, r4, r5, lr}
   128c2:	1884      	adds	r4, r0, r2
   128c4:	eb41 0503 	adc.w	r5, r1, r3
   128c8:	f7ff fd88 	bl	123dc <bcm2835_st_read>
   128cc:	42a9      	cmp	r1, r5
   128ce:	bf08      	it	eq
   128d0:	42a0      	cmpeq	r0, r4
   128d2:	d3f9      	bcc.n	128c8 <bcm2835_st_delay+0x8>
   128d4:	bd38      	pop	{r3, r4, r5, pc}
   128d6:	bf00      	nop

000128d8 <bcm2835_pwm_set_clock>:
   128d8:	e92d 41f0 	stmdb	sp!, {r4, r5, r6, r7, r8, lr}
   128dc:	f244 0474 	movw	r4, #16500	; 0x4074
   128e0:	f2c0 0402 	movt	r4, #2
   128e4:	f244 07b0 	movw	r7, #16560	; 0x40b0
   128e8:	f2c0 0702 	movt	r7, #2
   128ec:	4602      	mov	r2, r0
   128ee:	6920      	ldr	r0, [r4, #16]
   128f0:	b084      	sub	sp, #16
   128f2:	683b      	ldr	r3, [r7, #0]
   128f4:	1c41      	adds	r1, r0, #1
   128f6:	9303      	str	r3, [sp, #12]
   128f8:	d036      	beq.n	12968 <bcm2835_pwm_set_clock+0x90>
   128fa:	68e3      	ldr	r3, [r4, #12]
   128fc:	3301      	adds	r3, #1
   128fe:	d033      	beq.n	12968 <bcm2835_pwm_set_clock+0x90>
   12900:	2500      	movs	r5, #0
   12902:	30a0      	adds	r0, #160	; 0xa0
   12904:	2101      	movs	r1, #1
   12906:	f6c5 2100 	movt	r1, #23040	; 0x5a00
   1290a:	f3c2 080b 	ubfx	r8, r2, #0, #12
   1290e:	f7fe fd7f 	bl	11410 <bcm2835_peri_write>
   12912:	4629      	mov	r1, r5
   12914:	a801      	add	r0, sp, #4
   12916:	9501      	str	r5, [sp, #4]
   12918:	f44f 43ef 	mov.w	r3, #30592	; 0x7780
   1291c:	462e      	mov	r6, r5
   1291e:	f2c0 638e 	movt	r3, #1678	; 0x68e
   12922:	f244 2540 	movw	r5, #16960	; 0x4240
   12926:	9302      	str	r3, [sp, #8]
   12928:	f2c0 050f 	movt	r5, #15
   1292c:	f7fd ef78 	blx	10820 <nanosleep@plt>
   12930:	e005      	b.n	1293e <bcm2835_pwm_set_clock+0x66>
   12932:	2100      	movs	r1, #0
   12934:	a801      	add	r0, sp, #4
   12936:	9601      	str	r6, [sp, #4]
   12938:	9502      	str	r5, [sp, #8]
   1293a:	f7fd ef72 	blx	10820 <nanosleep@plt>
   1293e:	6920      	ldr	r0, [r4, #16]
   12940:	30a0      	adds	r0, #160	; 0xa0
   12942:	f7fe fd43 	bl	113cc <bcm2835_peri_read>
   12946:	0603      	lsls	r3, r0, #24
   12948:	d4f3      	bmi.n	12932 <bcm2835_pwm_set_clock+0x5a>
   1294a:	6920      	ldr	r0, [r4, #16]
   1294c:	ea4f 3108 	mov.w	r1, r8, lsl #12
   12950:	f041 41b4 	orr.w	r1, r1, #1509949440	; 0x5a000000
   12954:	30a4      	adds	r0, #164	; 0xa4
   12956:	f7fe fd5b 	bl	11410 <bcm2835_peri_write>
   1295a:	6920      	ldr	r0, [r4, #16]
   1295c:	2111      	movs	r1, #17
   1295e:	f6c5 2100 	movt	r1, #23040	; 0x5a00
   12962:	30a0      	adds	r0, #160	; 0xa0
   12964:	f7fe fd54 	bl	11410 <bcm2835_peri_write>
   12968:	9a03      	ldr	r2, [sp, #12]
   1296a:	683b      	ldr	r3, [r7, #0]
   1296c:	429a      	cmp	r2, r3
   1296e:	d102      	bne.n	12976 <bcm2835_pwm_set_clock+0x9e>
   12970:	b004      	add	sp, #16
   12972:	e8bd 81f0 	ldmia.w	sp!, {r4, r5, r6, r7, r8, pc}
   12976:	f7fd ef7e 	blx	10874 <__stack_chk_fail@plt>
   1297a:	bf00      	nop

0001297c <bcm2835_pwm_set_mode>:
   1297c:	b5f8      	push	{r3, r4, r5, r6, r7, lr}
   1297e:	f244 0474 	movw	r4, #16500	; 0x4074
   12982:	f2c0 0402 	movt	r4, #2
   12986:	6923      	ldr	r3, [r4, #16]
   12988:	3301      	adds	r3, #1
   1298a:	d013      	beq.n	129b4 <bcm2835_pwm_set_mode+0x38>
   1298c:	68e3      	ldr	r3, [r4, #12]
   1298e:	1c5d      	adds	r5, r3, #1
   12990:	d010      	beq.n	129b4 <bcm2835_pwm_set_mode+0x38>
   12992:	4605      	mov	r5, r0
   12994:	4618      	mov	r0, r3
   12996:	4616      	mov	r6, r2
   12998:	460f      	mov	r7, r1
   1299a:	f7fe fd17 	bl	113cc <bcm2835_peri_read>
   1299e:	b155      	cbz	r5, 129b6 <bcm2835_pwm_set_mode+0x3a>
   129a0:	2d01      	cmp	r5, #1
   129a2:	d01c      	beq.n	129de <bcm2835_pwm_set_mode+0x62>
   129a4:	f244 03c0 	movw	r3, #16576	; 0x40c0
   129a8:	f2c0 0302 	movt	r3, #2
   129ac:	68e2      	ldr	r2, [r4, #12]
   129ae:	781b      	ldrb	r3, [r3, #0]
   129b0:	b97b      	cbnz	r3, 129d2 <bcm2835_pwm_set_mode+0x56>
   129b2:	6010      	str	r0, [r2, #0]
   129b4:	bdf8      	pop	{r3, r4, r5, r6, r7, pc}
   129b6:	b12f      	cbz	r7, 129c4 <bcm2835_pwm_set_mode+0x48>
   129b8:	f040 0080 	orr.w	r0, r0, #128	; 0x80
   129bc:	b136      	cbz	r6, 129cc <bcm2835_pwm_set_mode+0x50>
   129be:	f040 0001 	orr.w	r0, r0, #1
   129c2:	e7ef      	b.n	129a4 <bcm2835_pwm_set_mode+0x28>
   129c4:	f020 0080 	bic.w	r0, r0, #128	; 0x80
   129c8:	2e00      	cmp	r6, #0
   129ca:	d1f8      	bne.n	129be <bcm2835_pwm_set_mode+0x42>
   129cc:	f020 0001 	bic.w	r0, r0, #1
   129d0:	e7e8      	b.n	129a4 <bcm2835_pwm_set_mode+0x28>
   129d2:	4601      	mov	r1, r0
   129d4:	4610      	mov	r0, r2
   129d6:	e8bd 40f8 	ldmia.w	sp!, {r3, r4, r5, r6, r7, lr}
   129da:	f7fe bc5b 	b.w	11294 <bcm2835_peri_write_nb.part.4>
   129de:	b12f      	cbz	r7, 129ec <bcm2835_pwm_set_mode+0x70>
   129e0:	f440 4000 	orr.w	r0, r0, #32768	; 0x8000
   129e4:	b12e      	cbz	r6, 129f2 <bcm2835_pwm_set_mode+0x76>
   129e6:	f440 7080 	orr.w	r0, r0, #256	; 0x100
   129ea:	e7db      	b.n	129a4 <bcm2835_pwm_set_mode+0x28>
   129ec:	f420 4000 	bic.w	r0, r0, #32768	; 0x8000
   129f0:	e7f8      	b.n	129e4 <bcm2835_pwm_set_mode+0x68>
   129f2:	f420 7080 	bic.w	r0, r0, #256	; 0x100
   129f6:	e7d5      	b.n	129a4 <bcm2835_pwm_set_mode+0x28>

000129f8 <bcm2835_pwm_set_range>:
   129f8:	f244 0374 	movw	r3, #16500	; 0x4074
   129fc:	f2c0 0302 	movt	r3, #2
   12a00:	691a      	ldr	r2, [r3, #16]
   12a02:	3201      	adds	r2, #1
   12a04:	d00d      	beq.n	12a22 <bcm2835_pwm_set_range+0x2a>
   12a06:	68db      	ldr	r3, [r3, #12]
   12a08:	1c5a      	adds	r2, r3, #1
   12a0a:	d00a      	beq.n	12a22 <bcm2835_pwm_set_range+0x2a>
   12a0c:	b410      	push	{r4}
   12a0e:	b948      	cbnz	r0, 12a24 <bcm2835_pwm_set_range+0x2c>
   12a10:	f244 02c0 	movw	r2, #16576	; 0x40c0
   12a14:	f2c0 0202 	movt	r2, #2
   12a18:	7812      	ldrb	r2, [r2, #0]
   12a1a:	b982      	cbnz	r2, 12a3e <bcm2835_pwm_set_range+0x46>
   12a1c:	f85d 4b04 	ldr.w	r4, [sp], #4
   12a20:	6119      	str	r1, [r3, #16]
   12a22:	4770      	bx	lr
   12a24:	2801      	cmp	r0, #1
   12a26:	d002      	beq.n	12a2e <bcm2835_pwm_set_range+0x36>
   12a28:	f85d 4b04 	ldr.w	r4, [sp], #4
   12a2c:	4770      	bx	lr
   12a2e:	f244 02c0 	movw	r2, #16576	; 0x40c0
   12a32:	f2c0 0202 	movt	r2, #2
   12a36:	7812      	ldrb	r2, [r2, #0]
   12a38:	b93a      	cbnz	r2, 12a4a <bcm2835_pwm_set_range+0x52>
   12a3a:	6219      	str	r1, [r3, #32]
   12a3c:	e7f4      	b.n	12a28 <bcm2835_pwm_set_range+0x30>
   12a3e:	f103 0010 	add.w	r0, r3, #16
   12a42:	f85d 4b04 	ldr.w	r4, [sp], #4
   12a46:	f7fe bc25 	b.w	11294 <bcm2835_peri_write_nb.part.4>
   12a4a:	f103 0020 	add.w	r0, r3, #32
   12a4e:	f85d 4b04 	ldr.w	r4, [sp], #4
   12a52:	f7fe bc1f 	b.w	11294 <bcm2835_peri_write_nb.part.4>
   12a56:	bf00      	nop

00012a58 <bcm2835_pwm_set_data>:
   12a58:	f244 0374 	movw	r3, #16500	; 0x4074
   12a5c:	f2c0 0302 	movt	r3, #2
   12a60:	691a      	ldr	r2, [r3, #16]
   12a62:	3201      	adds	r2, #1
   12a64:	d00d      	beq.n	12a82 <bcm2835_pwm_set_data+0x2a>
   12a66:	68db      	ldr	r3, [r3, #12]
   12a68:	1c5a      	adds	r2, r3, #1
   12a6a:	d00a      	beq.n	12a82 <bcm2835_pwm_set_data+0x2a>
   12a6c:	b410      	push	{r4}
   12a6e:	b948      	cbnz	r0, 12a84 <bcm2835_pwm_set_data+0x2c>
   12a70:	f244 02c0 	movw	r2, #16576	; 0x40c0
   12a74:	f2c0 0202 	movt	r2, #2
   12a78:	7812      	ldrb	r2, [r2, #0]
   12a7a:	b982      	cbnz	r2, 12a9e <bcm2835_pwm_set_data+0x46>
   12a7c:	f85d 4b04 	ldr.w	r4, [sp], #4
   12a80:	6159      	str	r1, [r3, #20]
   12a82:	4770      	bx	lr
   12a84:	2801      	cmp	r0, #1
   12a86:	d002      	beq.n	12a8e <bcm2835_pwm_set_data+0x36>
   12a88:	f85d 4b04 	ldr.w	r4, [sp], #4
   12a8c:	4770      	bx	lr
   12a8e:	f244 02c0 	movw	r2, #16576	; 0x40c0
   12a92:	f2c0 0202 	movt	r2, #2
   12a96:	7812      	ldrb	r2, [r2, #0]
   12a98:	b93a      	cbnz	r2, 12aaa <bcm2835_pwm_set_data+0x52>
   12a9a:	6259      	str	r1, [r3, #36]	; 0x24
   12a9c:	e7f4      	b.n	12a88 <bcm2835_pwm_set_data+0x30>
   12a9e:	f103 0014 	add.w	r0, r3, #20
   12aa2:	f85d 4b04 	ldr.w	r4, [sp], #4
   12aa6:	f7fe bbf5 	b.w	11294 <bcm2835_peri_write_nb.part.4>
   12aaa:	f103 0024 	add.w	r0, r3, #36	; 0x24
   12aae:	f85d 4b04 	ldr.w	r4, [sp], #4
   12ab2:	f7fe bbef 	b.w	11294 <bcm2835_peri_write_nb.part.4>
   12ab6:	bf00      	nop

00012ab8 <malloc_aligned>:
   12ab8:	b570      	push	{r4, r5, r6, lr}
   12aba:	f244 04b0 	movw	r4, #16560	; 0x40b0
   12abe:	f2c0 0402 	movt	r4, #2
   12ac2:	b082      	sub	sp, #8
   12ac4:	4606      	mov	r6, r0
   12ac6:	6823      	ldr	r3, [r4, #0]
   12ac8:	9301      	str	r3, [sp, #4]
   12aca:	f7fd ef0a 	blx	108e0 <__errno_location@plt>
   12ace:	4632      	mov	r2, r6
   12ad0:	f44f 5180 	mov.w	r1, #4096	; 0x1000
   12ad4:	4605      	mov	r5, r0
   12ad6:	4668      	mov	r0, sp
   12ad8:	f7fd ee90 	blx	107fc <posix_memalign@plt>
   12adc:	b940      	cbnz	r0, 12af0 <malloc_aligned+0x38>
   12ade:	9b00      	ldr	r3, [sp, #0]
   12ae0:	6028      	str	r0, [r5, #0]
   12ae2:	4618      	mov	r0, r3
   12ae4:	9a01      	ldr	r2, [sp, #4]
   12ae6:	6823      	ldr	r3, [r4, #0]
   12ae8:	429a      	cmp	r2, r3
   12aea:	d104      	bne.n	12af6 <malloc_aligned+0x3e>
   12aec:	b002      	add	sp, #8
   12aee:	bd70      	pop	{r4, r5, r6, pc}
   12af0:	6028      	str	r0, [r5, #0]
   12af2:	2000      	movs	r0, #0
   12af4:	e7f6      	b.n	12ae4 <malloc_aligned+0x2c>
   12af6:	f7fd eebe 	blx	10874 <__stack_chk_fail@plt>
   12afa:	bf00      	nop

00012afc <bcm2835_init>:
   12afc:	b5f0      	push	{r4, r5, r6, r7, lr}
   12afe:	f244 04b0 	movw	r4, #16560	; 0x40b0
   12b02:	f244 05c0 	movw	r5, #16576	; 0x40c0
   12b06:	f2c0 0402 	movt	r4, #2
   12b0a:	f2c0 0502 	movt	r5, #2
   12b0e:	b087      	sub	sp, #28
   12b10:	6822      	ldr	r2, [r4, #0]
   12b12:	782b      	ldrb	r3, [r5, #0]
   12b14:	9205      	str	r2, [sp, #20]
   12b16:	2b00      	cmp	r3, #0
   12b18:	d03e      	beq.n	12b98 <bcm2835_init+0x9c>
   12b1a:	f244 0374 	movw	r3, #16500	; 0x4074
   12b1e:	f2c0 0302 	movt	r3, #2
   12b22:	2001      	movs	r0, #1
   12b24:	f04f 5200 	mov.w	r2, #536870912	; 0x20000000
   12b28:	2100      	movs	r1, #0
   12b2a:	601a      	str	r2, [r3, #0]
   12b2c:	f2c2 0110 	movt	r1, #8208	; 0x2010
   12b30:	f44f 5280 	mov.w	r2, #4096	; 0x1000
   12b34:	6159      	str	r1, [r3, #20]
   12b36:	f2c2 0210 	movt	r2, #8208	; 0x2010
   12b3a:	2100      	movs	r1, #0
   12b3c:	611a      	str	r2, [r3, #16]
   12b3e:	f2c2 0120 	movt	r1, #8224	; 0x2020
   12b42:	f44f 4240 	mov.w	r2, #49152	; 0xc000
   12b46:	6099      	str	r1, [r3, #8]
   12b48:	f2c2 0220 	movt	r2, #8224	; 0x2020
   12b4c:	f44f 4180 	mov.w	r1, #16384	; 0x4000
   12b50:	60da      	str	r2, [r3, #12]
   12b52:	f2c2 0120 	movt	r1, #8224	; 0x2020
   12b56:	f44f 42a0 	mov.w	r2, #20480	; 0x5000
   12b5a:	6199      	str	r1, [r3, #24]
   12b5c:	f2c2 0220 	movt	r2, #8224	; 0x2020
   12b60:	f44f 4180 	mov.w	r1, #16384	; 0x4000
   12b64:	61da      	str	r2, [r3, #28]
   12b66:	f2c2 0180 	movt	r1, #8320	; 0x2080
   12b6a:	f44f 5240 	mov.w	r2, #12288	; 0x3000
   12b6e:	6219      	str	r1, [r3, #32]
   12b70:	f2c2 0200 	movt	r2, #8192	; 0x2000
   12b74:	f44f 41a0 	mov.w	r1, #20480	; 0x5000
   12b78:	625a      	str	r2, [r3, #36]	; 0x24
   12b7a:	f2c2 0121 	movt	r1, #8225	; 0x2021
   12b7e:	f44f 42a1 	mov.w	r2, #20608	; 0x5080
   12b82:	6299      	str	r1, [r3, #40]	; 0x28
   12b84:	f2c2 0221 	movt	r2, #8225	; 0x2021
   12b88:	62da      	str	r2, [r3, #44]	; 0x2c
   12b8a:	9a05      	ldr	r2, [sp, #20]
   12b8c:	6823      	ldr	r3, [r4, #0]
   12b8e:	429a      	cmp	r2, r3
   12b90:	f040 80e5 	bne.w	12d5e <bcm2835_init+0x262>
   12b94:	b007      	add	sp, #28
   12b96:	bdf0      	pop	{r4, r5, r6, r7, pc}
   12b98:	f642 71f0 	movw	r1, #12272	; 0x2ff0
   12b9c:	f642 70f4 	movw	r0, #12276	; 0x2ff4
   12ba0:	f2c0 0101 	movt	r1, #1
   12ba4:	f2c0 0001 	movt	r0, #1
   12ba8:	f7fd ee46 	blx	10838 <fopen@plt>
   12bac:	4606      	mov	r6, r0
   12bae:	b1b8      	cbz	r0, 12be0 <bcm2835_init+0xe4>
   12bb0:	4603      	mov	r3, r0
   12bb2:	2210      	movs	r2, #16
   12bb4:	2101      	movs	r1, #1
   12bb6:	a801      	add	r0, sp, #4
   12bb8:	f7fd ee56 	blx	10868 <fread@plt>
   12bbc:	2807      	cmp	r0, #7
   12bbe:	d90c      	bls.n	12bda <bcm2835_init+0xde>
   12bc0:	9b02      	ldr	r3, [sp, #8]
   12bc2:	9a03      	ldr	r2, [sp, #12]
   12bc4:	ba1b      	rev	r3, r3
   12bc6:	ba12      	rev	r2, r2
   12bc8:	b913      	cbnz	r3, 12bd0 <bcm2835_init+0xd4>
   12bca:	9904      	ldr	r1, [sp, #16]
   12bcc:	4613      	mov	r3, r2
   12bce:	ba0a      	rev	r2, r1
   12bd0:	f89d 1004 	ldrb.w	r1, [sp, #4]
   12bd4:	297e      	cmp	r1, #126	; 0x7e
   12bd6:	f000 8092 	beq.w	12cfe <bcm2835_init+0x202>
   12bda:	4630      	mov	r0, r6
   12bdc:	f7fd ee74 	blx	108c8 <fclose@plt>
   12be0:	f7fd ee66 	blx	108b0 <geteuid@plt>
   12be4:	f241 0102 	movw	r1, #4098	; 0x1002
   12be8:	2800      	cmp	r0, #0
   12bea:	d139      	bne.n	12c60 <bcm2835_init+0x164>
   12bec:	f243 0014 	movw	r0, #12308	; 0x3014
   12bf0:	f2c0 0110 	movt	r1, #16
   12bf4:	f2c0 0001 	movt	r0, #1
   12bf8:	f7fd ee30 	blx	1085c <open@plt>
   12bfc:	1e07      	subs	r7, r0, #0
   12bfe:	db6a      	blt.n	12cd6 <bcm2835_init+0x1da>
   12c00:	f244 0674 	movw	r6, #16500	; 0x4074
   12c04:	f2c0 0602 	movt	r6, #2
   12c08:	4639      	mov	r1, r7
   12c0a:	6b72      	ldr	r2, [r6, #52]	; 0x34
   12c0c:	6870      	ldr	r0, [r6, #4]
   12c0e:	f7fe fb65 	bl	112dc <mapmem.constprop.9>
   12c12:	1c42      	adds	r2, r0, #1
   12c14:	6030      	str	r0, [r6, #0]
   12c16:	f000 809e 	beq.w	12d56 <bcm2835_init+0x25a>
   12c1a:	f500 1180 	add.w	r1, r0, #1048576	; 0x100000
   12c1e:	f500 1201 	add.w	r2, r0, #2113536	; 0x204000
   12c22:	f500 1305 	add.w	r3, r0, #2179072	; 0x214000
   12c26:	f500 0500 	add.w	r5, r0, #8388608	; 0x800000
   12c2a:	6171      	str	r1, [r6, #20]
   12c2c:	f505 4580 	add.w	r5, r5, #16384	; 0x4000
   12c30:	f501 5180 	add.w	r1, r1, #4096	; 0x1000
   12c34:	61b2      	str	r2, [r6, #24]
   12c36:	6131      	str	r1, [r6, #16]
   12c38:	f502 5280 	add.w	r2, r2, #4096	; 0x1000
   12c3c:	6235      	str	r5, [r6, #32]
   12c3e:	61f2      	str	r2, [r6, #28]
   12c40:	f503 5280 	add.w	r2, r3, #4096	; 0x1000
   12c44:	f503 5384 	add.w	r3, r3, #4224	; 0x1080
   12c48:	62b2      	str	r2, [r6, #40]	; 0x28
   12c4a:	62f3      	str	r3, [r6, #44]	; 0x2c
   12c4c:	f500 1200 	add.w	r2, r0, #2097152	; 0x200000
   12c50:	f500 1303 	add.w	r3, r0, #2146304	; 0x20c000
   12c54:	60b2      	str	r2, [r6, #8]
   12c56:	f500 5040 	add.w	r0, r0, #12288	; 0x3000
   12c5a:	60f3      	str	r3, [r6, #12]
   12c5c:	6270      	str	r0, [r6, #36]	; 0x24
   12c5e:	e019      	b.n	12c94 <bcm2835_init+0x198>
   12c60:	f243 004c 	movw	r0, #12364	; 0x304c
   12c64:	f2c0 0110 	movt	r1, #16
   12c68:	f2c0 0001 	movt	r0, #1
   12c6c:	f7fd edf6 	blx	1085c <open@plt>
   12c70:	1e07      	subs	r7, r0, #0
   12c72:	db14      	blt.n	12c9e <bcm2835_init+0x1a2>
   12c74:	f244 0674 	movw	r6, #16500	; 0x4074
   12c78:	f2c0 0602 	movt	r6, #2
   12c7c:	2300      	movs	r3, #0
   12c7e:	4639      	mov	r1, r7
   12c80:	461a      	mov	r2, r3
   12c82:	6870      	ldr	r0, [r6, #4]
   12c84:	6373      	str	r3, [r6, #52]	; 0x34
   12c86:	f7fe fb29 	bl	112dc <mapmem.constprop.9>
   12c8a:	1c43      	adds	r3, r0, #1
   12c8c:	6030      	str	r0, [r6, #0]
   12c8e:	bf18      	it	ne
   12c90:	60b0      	strne	r0, [r6, #8]
   12c92:	d060      	beq.n	12d56 <bcm2835_init+0x25a>
   12c94:	4638      	mov	r0, r7
   12c96:	f7fd edca 	blx	1082c <close@plt>
   12c9a:	2001      	movs	r0, #1
   12c9c:	e775      	b.n	12b8a <bcm2835_init+0x8e>
   12c9e:	f244 03b8 	movw	r3, #16568	; 0x40b8
   12ca2:	f2c0 0302 	movt	r3, #2
   12ca6:	681e      	ldr	r6, [r3, #0]
   12ca8:	f7fd ee1a 	blx	108e0 <__errno_location@plt>
   12cac:	6800      	ldr	r0, [r0, #0]
   12cae:	f7fd edac 	blx	10808 <strerror@plt>
   12cb2:	f243 025c 	movw	r2, #12380	; 0x305c
   12cb6:	2101      	movs	r1, #1
   12cb8:	f2c0 0201 	movt	r2, #1
   12cbc:	4603      	mov	r3, r0
   12cbe:	4630      	mov	r0, r6
   12cc0:	f7fd eda8 	blx	10814 <__fprintf_chk@plt>
   12cc4:	782d      	ldrb	r5, [r5, #0]
   12cc6:	2000      	movs	r0, #0
   12cc8:	2d00      	cmp	r5, #0
   12cca:	f47f af5e 	bne.w	12b8a <bcm2835_init+0x8e>
   12cce:	f7fe faeb 	bl	112a8 <bcm2835_close.part.8>
   12cd2:	4628      	mov	r0, r5
   12cd4:	e759      	b.n	12b8a <bcm2835_init+0x8e>
   12cd6:	f244 03b8 	movw	r3, #16568	; 0x40b8
   12cda:	f2c0 0302 	movt	r3, #2
   12cde:	681e      	ldr	r6, [r3, #0]
   12ce0:	f7fd edfe 	blx	108e0 <__errno_location@plt>
   12ce4:	6800      	ldr	r0, [r0, #0]
   12ce6:	f7fd ed90 	blx	10808 <strerror@plt>
   12cea:	f243 0220 	movw	r2, #12320	; 0x3020
   12cee:	2101      	movs	r1, #1
   12cf0:	f2c0 0201 	movt	r2, #1
   12cf4:	4603      	mov	r3, r0
   12cf6:	4630      	mov	r0, r6
   12cf8:	f7fd ed8c 	blx	10814 <__fprintf_chk@plt>
   12cfc:	e7e2      	b.n	12cc4 <bcm2835_init+0x1c8>
   12cfe:	f89d 1005 	ldrb.w	r1, [sp, #5]
   12d02:	2900      	cmp	r1, #0
   12d04:	f47f af69 	bne.w	12bda <bcm2835_init+0xde>
   12d08:	f89d 1006 	ldrb.w	r1, [sp, #6]
   12d0c:	2900      	cmp	r1, #0
   12d0e:	f47f af64 	bne.w	12bda <bcm2835_init+0xde>
   12d12:	f89d 1007 	ldrb.w	r1, [sp, #7]
   12d16:	2900      	cmp	r1, #0
   12d18:	f47f af5f 	bne.w	12bda <bcm2835_init+0xde>
   12d1c:	f1b3 5f7c 	cmp.w	r3, #1056964608	; 0x3f000000
   12d20:	bf18      	it	ne
   12d22:	f1b3 5f00 	cmpne.w	r3, #536870912	; 0x20000000
   12d26:	bf0c      	ite	eq
   12d28:	2101      	moveq	r1, #1
   12d2a:	2100      	movne	r1, #0
   12d2c:	f1b3 4f7e 	cmp.w	r3, #4261412864	; 0xfe000000
   12d30:	bf08      	it	eq
   12d32:	f041 0101 	orreq.w	r1, r1, #1
   12d36:	2900      	cmp	r1, #0
   12d38:	f43f af4f 	beq.w	12bda <bcm2835_init+0xde>
   12d3c:	f1b3 4f7e 	cmp.w	r3, #4261412864	; 0xfe000000
   12d40:	f244 0174 	movw	r1, #16500	; 0x4074
   12d44:	f2c0 0102 	movt	r1, #2
   12d48:	634b      	str	r3, [r1, #52]	; 0x34
   12d4a:	bf08      	it	eq
   12d4c:	2301      	moveq	r3, #1
   12d4e:	604a      	str	r2, [r1, #4]
   12d50:	bf08      	it	eq
   12d52:	706b      	strbeq	r3, [r5, #1]
   12d54:	e741      	b.n	12bda <bcm2835_init+0xde>
   12d56:	4638      	mov	r0, r7
   12d58:	f7fd ed68 	blx	1082c <close@plt>
   12d5c:	e7b2      	b.n	12cc4 <bcm2835_init+0x1c8>
   12d5e:	f7fd ed8a 	blx	10874 <__stack_chk_fail@plt>
   12d62:	bf00      	nop

00012d64 <bcm2835_close>:
   12d64:	b508      	push	{r3, lr}
   12d66:	f244 03c0 	movw	r3, #16576	; 0x40c0
   12d6a:	f2c0 0302 	movt	r3, #2
   12d6e:	781b      	ldrb	r3, [r3, #0]
   12d70:	b90b      	cbnz	r3, 12d76 <bcm2835_close+0x12>
   12d72:	f7fe fa99 	bl	112a8 <bcm2835_close.part.8>
   12d76:	2001      	movs	r0, #1
   12d78:	bd08      	pop	{r3, pc}
   12d7a:	bf00      	nop

00012d7c <__libc_csu_init>:
   12d7c:	e92d 43f8 	stmdb	sp!, {r3, r4, r5, r6, r7, r8, r9, lr}
   12d80:	4607      	mov	r7, r0
   12d82:	4e0b      	ldr	r6, [pc, #44]	; (12db0 <__libc_csu_init+0x34>)
   12d84:	4688      	mov	r8, r1
   12d86:	4d0b      	ldr	r5, [pc, #44]	; (12db4 <__libc_csu_init+0x38>)
   12d88:	4691      	mov	r9, r2
   12d8a:	447e      	add	r6, pc
   12d8c:	f7fd ed26 	blx	107dc <_init>
   12d90:	447d      	add	r5, pc
   12d92:	1b76      	subs	r6, r6, r5
   12d94:	10b6      	asrs	r6, r6, #2
   12d96:	d009      	beq.n	12dac <__libc_csu_init+0x30>
   12d98:	2400      	movs	r4, #0
   12d9a:	3401      	adds	r4, #1
   12d9c:	f855 3b04 	ldr.w	r3, [r5], #4
   12da0:	464a      	mov	r2, r9
   12da2:	4641      	mov	r1, r8
   12da4:	4638      	mov	r0, r7
   12da6:	4798      	blx	r3
   12da8:	42b4      	cmp	r4, r6
   12daa:	d1f6      	bne.n	12d9a <__libc_csu_init+0x1e>
   12dac:	e8bd 83f8 	ldmia.w	sp!, {r3, r4, r5, r6, r7, r8, r9, pc}
   12db0:	0001116a 	andeq	r1, r1, sl, ror #2
   12db4:	00011160 	andeq	r1, r1, r0, ror #2

00012db8 <__libc_csu_fini>:
   12db8:	4770      	bx	lr
   12dba:	bf00      	nop

Disassembly of section .fini:

00012dbc <_fini>:
   12dbc:	e92d4008 	push	{r3, lr}
   12dc0:	e8bd8008 	pop	{r3, pc}

Disassembly of section .rodata:

00012dc4 <_IO_stdin_used>:
   12dc4:	00020001 	andeq	r0, r2, r1
   12dc8:	676f7250 			; <UNDEFINED> instruction: 0x676f7250
   12dcc:	206d6172 	rsbcs	r6, sp, r2, ror r1
   12dd0:	6e207369 	cdpvs	3, 2, cr7, cr0, cr9, {3}
   12dd4:	7320746f 			; <UNDEFINED> instruction: 0x7320746f
   12dd8:	74726174 	ldrbtvc	r6, [r2], #-372	; 0xfffffe8c
   12ddc:	61206465 			; <UNDEFINED> instruction: 0x61206465
   12de0:	72272073 	eorvc	r2, r7, #115	; 0x73
   12de4:	27746f6f 	ldrbcs	r6, [r4, -pc, ror #30]!
   12de8:	75732820 	ldrbvc	r2, [r3, #-2080]!	; 0xfffff7e0
   12dec:	0a296f64 	beq	a6eb84 <__bss_end__+0xa4aab8>
   12df0:	00000000 	andeq	r0, r0, r0
   12df4:	326d6362 	rsbcc	r6, sp, #-2013265919	; 0x88000001
   12df8:	5f353338 	svcpl	0x00353338
   12dfc:	74696e69 	strbtvc	r6, [r9], #-3689	; 0xfffff197
   12e00:	66202928 	strtvs	r2, [r0], -r8, lsr #18
   12e04:	656c6961 	strbvs	r6, [ip, #-2401]!	; 0xfffff69f
   12e08:	00000a64 	andeq	r0, r0, r4, ror #20

00012e0c <bcm2835_byte_reverse_table>:
   12e0c:	c0408000 	subgt	r8, r0, r0
   12e10:	e060a020 	rsb	sl, r0, r0, lsr #32
   12e14:	d0509010 	subsle	r9, r0, r0, lsl r0
   12e18:	f070b030 			; <UNDEFINED> instruction: 0xf070b030
   12e1c:	c8488808 	stmdagt	r8, {r3, fp, pc}^
   12e20:	e868a828 	stmda	r8!, {r3, r5, fp, sp, pc}^
   12e24:	d8589818 	ldmdale	r8, {r3, r4, fp, ip, pc}^
   12e28:	f878b838 			; <UNDEFINED> instruction: 0xf878b838
   12e2c:	c4448404 	strbgt	r8, [r4], #-1028	; 0xfffffbfc
   12e30:	e464a424 	strbt	sl, [r4], #-1060	; 0xfffffbdc
   12e34:	d4549414 	ldrble	r9, [r4], #-1044	; 0xfffffbec
   12e38:	f474b434 			; <UNDEFINED> instruction: 0xf474b434
   12e3c:	cc4c8c0c 	mcrrgt	12, 0, r8, ip, cr12
   12e40:	ec6cac2c 	stcl	12, cr10, [ip], #-176	; 0xffffff50
   12e44:	dc5c9c1c 	mrrcle	12, 1, r9, ip, cr12
   12e48:	fc7cbc3c 	ldc2l	12, cr11, [ip], #-240	; 0xffffff10
   12e4c:	c2428202 	subgt	r8, r2, #536870912	; 0x20000000
   12e50:	e262a222 	rsb	sl, r2, #536870914	; 0x20000002
   12e54:	d2529212 	subsle	r9, r2, #536870913	; 0x20000001
   12e58:	f272b232 	vqsub.s64	d27, d2, d18
   12e5c:	ca4a8a0a 	bgt	12b568c <__bss_end__+0x12915c0>
   12e60:	ea6aaa2a 	b	1abd710 <__bss_end__+0x1a99644>
   12e64:	da5a9a1a 	ble	16b96d4 <__bss_end__+0x1695608>
   12e68:	fa7aba3a 	blx	1ec1758 <__bss_end__+0x1e9d68c>
   12e6c:	c6468606 	strbgt	r8, [r6], -r6, lsl #12
   12e70:	e666a626 	strbt	sl, [r6], -r6, lsr #12
   12e74:	d6569616 			; <UNDEFINED> instruction: 0xd6569616
   12e78:	f676b636 			; <UNDEFINED> instruction: 0xf676b636
   12e7c:	ce4e8e0e 	cdpgt	14, 4, cr8, cr14, cr14, {0}
   12e80:	ee6eae2e 	cdp	14, 6, cr10, cr14, cr14, {1}
   12e84:	de5e9e1e 	mrcle	14, 2, r9, cr14, cr14, {0}
   12e88:	fe7ebe3e 	mrc2	14, 3, fp, cr14, cr14, {1}
   12e8c:	c1418101 	cmpgt	r1, r1, lsl #2
   12e90:	e161a121 	cmn	r1, r1, lsr #2
   12e94:	d1519111 	cmple	r1, r1, lsl r1
   12e98:	f171b131 			; <UNDEFINED> instruction: 0xf171b131
   12e9c:	c9498909 	stmdbgt	r9, {r0, r3, r8, fp, pc}^
   12ea0:	e969a929 	stmdb	r9!, {r0, r3, r5, r8, fp, sp, pc}^
   12ea4:	d9599919 	ldmdble	r9, {r0, r3, r4, r8, fp, ip, pc}^
   12ea8:	f979b939 			; <UNDEFINED> instruction: 0xf979b939
   12eac:	c5458505 	strbgt	r8, [r5, #-1285]	; 0xfffffafb
   12eb0:	e565a525 	strb	sl, [r5, #-1317]!	; 0xfffffadb
   12eb4:	d5559515 	ldrble	r9, [r5, #-1301]	; 0xfffffaeb
   12eb8:	f575b535 			; <UNDEFINED> instruction: 0xf575b535
   12ebc:	cd4d8d0d 	stclgt	13, cr8, [sp, #-52]	; 0xffffffcc
   12ec0:	ed6dad2d 	stcl	13, cr10, [sp, #-180]!	; 0xffffff4c
   12ec4:	dd5d9d1d 	ldclle	13, cr9, [sp, #-116]	; 0xffffff8c
   12ec8:	fd7dbd3d 	ldc2l	13, cr11, [sp, #-244]!	; 0xffffff0c
   12ecc:	c3438303 	movtgt	r8, #13059	; 0x3303
   12ed0:	e363a323 	cmn	r3, #-1946157056	; 0x8c000000
   12ed4:	d3539313 	cmple	r3, #1275068416	; 0x4c000000
   12ed8:	f373b333 	vcge.u<illegal width 64>	d27, d3, d19
   12edc:	cb4b8b0b 	blgt	12f5b10 <__bss_end__+0x12d1a44>
   12ee0:	eb6bab2b 	bl	1afdb94 <__bss_end__+0x1ad9ac8>
   12ee4:	db5b9b1b 	blle	16f9b58 <__bss_end__+0x16d5a8c>
   12ee8:	fb7bbb3b 	blx	1f01bde <__bss_end__+0x1eddb12>
   12eec:	c7478707 	strbgt	r8, [r7, -r7, lsl #14]
   12ef0:	e767a727 	strb	sl, [r7, -r7, lsr #14]!
   12ef4:	d7579717 	smmlale	r7, r7, r7, r9
   12ef8:	f777b737 			; <UNDEFINED> instruction: 0xf777b737
   12efc:	cf4f8f0f 	svcgt	0x004f8f0f
   12f00:	ef6faf2f 	svc	0x006faf2f
   12f04:	df5f9f1f 	svcle	0x005f9f1f
   12f08:	ff7fbf3f 			; <UNDEFINED> instruction: 0xff7fbf3f
   12f0c:	326d6362 	rsbcc	r6, sp, #-2013265919	; 0x88000001
   12f10:	5f353338 	svcpl	0x00353338
   12f14:	69726570 	ldmdbvs	r2!, {r4, r5, r6, r8, sl, sp, lr}^
   12f18:	6165725f 	cmnvs	r5, pc, asr r2
   12f1c:	626e5f64 	rsbvs	r5, lr, #100, 30	; 0x190
   12f20:	61702020 	cmnvs	r0, r0, lsr #32
   12f24:	20726464 	rsbscs	r6, r2, r4, ror #8
   12f28:	000a7025 	andeq	r7, sl, r5, lsr #32
   12f2c:	326d6362 	rsbcc	r6, sp, #-2013265919	; 0x88000001
   12f30:	5f353338 	svcpl	0x00353338
   12f34:	69726570 	ldmdbvs	r2!, {r4, r5, r6, r8, sl, sp, lr}^
   12f38:	6972775f 	ldmdbvs	r2!, {r0, r1, r2, r3, r4, r6, r8, r9, sl, ip, sp, lr}^
   12f3c:	6e5f6574 	mrcvs	5, 2, r6, cr15, cr4, {3}
   12f40:	61702062 	cmnvs	r0, r2, rrx
   12f44:	20726464 	rsbscs	r6, r2, r4, ror #8
   12f48:	202c7025 	eorcs	r7, ip, r5, lsr #32
   12f4c:	756c6176 	strbvc	r6, [ip, #-374]!	; 0xfffffe8a
   12f50:	30252065 	eorcc	r2, r5, r5, rrx
   12f54:	000a5838 	andeq	r5, sl, r8, lsr r8
   12f58:	6f697067 	svcvs	0x00697067
   12f5c:	00000000 	andeq	r0, r0, r0
   12f60:	326d6362 	rsbcc	r6, sp, #-2013265919	; 0x88000001
   12f64:	5f353338 	svcpl	0x00353338
   12f68:	74696e69 	strbtvc	r6, [r9], #-3689	; 0xfffff197
   12f6c:	7325203a 			; <UNDEFINED> instruction: 0x7325203a
   12f70:	616d6d20 	cmnvs	sp, r0, lsr #26
   12f74:	61662070 	smcvs	25088	; 0x6200
   12f78:	64656c69 	strbtvs	r6, [r5], #-3177	; 0xfffff397
   12f7c:	7325203a 			; <UNDEFINED> instruction: 0x7325203a
   12f80:	0000000a 	andeq	r0, r0, sl
   12f84:	326d6362 	rsbcc	r6, sp, #-2013265919	; 0x88000001
   12f88:	5f353338 	svcpl	0x00353338
   12f8c:	69726570 	ldmdbvs	r2!, {r4, r5, r6, r8, sl, sp, lr}^
   12f90:	6165725f 	cmnvs	r5, pc, asr r2
   12f94:	70202064 	eorvc	r2, r0, r4, rrx
   12f98:	72646461 	rsbvc	r6, r4, #1627389952	; 0x61000000
   12f9c:	0a702520 	beq	1c1c424 <__bss_end__+0x1bf8358>
   12fa0:	00000000 	andeq	r0, r0, r0
   12fa4:	326d6362 	rsbcc	r6, sp, #-2013265919	; 0x88000001
   12fa8:	5f353338 	svcpl	0x00353338
   12fac:	69726570 	ldmdbvs	r2!, {r4, r5, r6, r8, sl, sp, lr}^
   12fb0:	6972775f 	ldmdbvs	r2!, {r0, r1, r2, r3, r4, r6, r8, r9, sl, ip, sp, lr}^
   12fb4:	70206574 	eorvc	r6, r0, r4, ror r5
   12fb8:	72646461 	rsbvc	r6, r4, #1627389952	; 0x61000000
   12fbc:	2c702520 	cfldr64cs	mvdx2, [r0], #-128	; 0xffffff80
   12fc0:	6c617620 	stclvs	6, cr7, [r1], #-128	; 0xffffff80
   12fc4:	25206575 	strcs	r6, [r0, #-1397]!	; 0xfffffa8b
   12fc8:	0a583830 	beq	1621090 <__bss_end__+0x15fcfc4>
   12fcc:	00000000 	andeq	r0, r0, r0
   12fd0:	326d6362 	rsbcc	r6, sp, #-2013265919	; 0x88000001
   12fd4:	5f353338 	svcpl	0x00353338
   12fd8:	616c6564 	cmnvs	ip, r4, ror #10
   12fdc:	63694d79 	cmnvs	r9, #7744	; 0x1e40
   12fe0:	65736f72 	ldrbvs	r6, [r3, #-3954]!	; 0xfffff08e
   12fe4:	646e6f63 	strbtvs	r6, [lr], #-3939	; 0xfffff09d
   12fe8:	6c252073 	stcvs	0, cr2, [r5], #-460	; 0xfffffe34
   12fec:	000a646c 	andeq	r6, sl, ip, ror #8
   12ff0:	00006272 	andeq	r6, r0, r2, ror r2
   12ff4:	6f72702f 	svcvs	0x0072702f
   12ff8:	65642f63 	strbvs	r2, [r4, #-3939]!	; 0xfffff09d
   12ffc:	65636976 	strbvs	r6, [r3, #-2422]!	; 0xfffff68a
   13000:	6572742d 	ldrbvs	r7, [r2, #-1069]!	; 0xfffffbd3
   13004:	6f732f65 	svcvs	0x00732f65
   13008:	61722f63 	cmnvs	r2, r3, ror #30
   1300c:	7365676e 	cmnvc	r5, #28835840	; 0x1b80000
   13010:	00000000 	andeq	r0, r0, r0
   13014:	7665642f 	strbtvc	r6, [r5], -pc, lsr #8
   13018:	6d656d2f 	stclvs	13, cr6, [r5, #-188]!	; 0xffffff44
   1301c:	00000000 	andeq	r0, r0, r0
   13020:	326d6362 	rsbcc	r6, sp, #-2013265919	; 0x88000001
   13024:	5f353338 	svcpl	0x00353338
   13028:	74696e69 	strbtvc	r6, [r9], #-3689	; 0xfffff197
   1302c:	6e55203a 	mrcvs	0, 2, r2, cr5, cr10, {1}
   13030:	656c6261 	strbvs	r6, [ip, #-609]!	; 0xfffffd9f
   13034:	206f7420 	rsbcs	r7, pc, r0, lsr #8
   13038:	6e65706f 	cdpvs	0, 6, cr7, cr5, cr15, {3}
   1303c:	65642f20 	strbvs	r2, [r4, #-3872]!	; 0xfffff0e0
   13040:	656d2f76 	strbvs	r2, [sp, #-3958]!	; 0xfffff08a
   13044:	25203a6d 	strcs	r3, [r0, #-2669]!	; 0xfffff593
   13048:	00000a73 	andeq	r0, r0, r3, ror sl
   1304c:	7665642f 	strbtvc	r6, [r5], -pc, lsr #8
   13050:	6970672f 	ldmdbvs	r0!, {r0, r1, r2, r3, r5, r8, r9, sl, sp, lr}^
   13054:	6d656d6f 	stclvs	13, cr6, [r5, #-444]!	; 0xfffffe44
   13058:	00000000 	andeq	r0, r0, r0
   1305c:	326d6362 	rsbcc	r6, sp, #-2013265919	; 0x88000001
   13060:	5f353338 	svcpl	0x00353338
   13064:	74696e69 	strbtvc	r6, [r9], #-3689	; 0xfffff197
   13068:	6e55203a 	mrcvs	0, 2, r2, cr5, cr10, {1}
   1306c:	656c6261 	strbvs	r6, [ip, #-609]!	; 0xfffffd9f
   13070:	206f7420 	rsbcs	r7, pc, r0, lsr #8
   13074:	6e65706f 	cdpvs	0, 6, cr7, cr5, cr15, {3}
   13078:	65642f20 	strbvs	r2, [r4, #-3872]!	; 0xfffff0e0
   1307c:	70672f76 	rsbvc	r2, r7, r6, ror pc
   13080:	656d6f69 	strbvs	r6, [sp, #-3945]!	; 0xfffff097
   13084:	25203a6d 	strcs	r3, [r0, #-2669]!	; 0xfffff593
   13088:	00000a73 	andeq	r0, r0, r3, ror sl

Disassembly of section .ARM.extab:

0001308c <.ARM.extab>:
   1308c:	7fffd848 	svcvc	0x00ffd848
   13090:	000eabb0 			; <UNDEFINED> instruction: 0x000eabb0
   13094:	0f01ffff 	svceq	0x0001ffff
   13098:	00006016 	andeq	r6, r0, r6, lsl r0
   1309c:	a803ae78 	stmdage	r3, {r3, r4, r5, r6, r9, sl, fp, sp, pc}
   130a0:	04ae0004 	strteq	r0, [lr], #4
   130a4:	00000004 	andeq	r0, r0, r4
   130a8:	7fffd82c 	svcvc	0x00ffd82c
   130ac:	00a8b0b0 	strhteq	fp, [r8], r0
   130b0:	0c01ffff 	stceq	15, cr15, [r1], {255}	; 0xff
   130b4:	00000404 	andeq	r0, r0, r4, lsl #8
   130b8:	0014040c 	andseq	r0, r4, ip, lsl #8
   130bc:	0000041a 	andeq	r0, r0, sl, lsl r4
   130c0:	8101b108 	tsthi	r1, r8, lsl #2
   130c4:	8400b0b0 	strhi	fp, [r0], #-176	; 0xffffff50
   130c8:	00000000 	andeq	r0, r0, r0
   130cc:	8101b108 	tsthi	r1, r8, lsl #2
   130d0:	8400b0b0 	strhi	fp, [r0], #-176	; 0xffffff50
   130d4:	00000000 	andeq	r0, r0, r0
   130d8:	8101b108 	tsthi	r1, r8, lsl #2
   130dc:	8400b0b0 	strhi	fp, [r0], #-176	; 0xffffff50
   130e0:	00000000 	andeq	r0, r0, r0
   130e4:	8101b108 	tsthi	r1, r8, lsl #2
   130e8:	8400b0b0 	strhi	fp, [r0], #-176	; 0xffffff50
   130ec:	00000000 	andeq	r0, r0, r0

Disassembly of section .ARM.exidx:

000130f0 <.ARM.exidx>:
   130f0:	7fffd824 	svcvc	0x00ffd824
   130f4:	7fffff98 	svcvc	0x00ffff98
   130f8:	7fffda50 	svcvc	0x00ffda50
   130fc:	00000001 	andeq	r0, r0, r1
   13100:	7fffdb28 	svcvc	0x00ffdb28
   13104:	7fffffa4 	svcvc	0x00ffffa4
   13108:	7fffdb40 	svcvc	0x00ffdb40
   1310c:	00000001 	andeq	r0, r0, r1
   13110:	7fffdd08 	svcvc	0x00ffdd08
   13114:	7fffffac 	svcvc	0x00ffffac
   13118:	7fffdd18 	svcvc	0x00ffdd18
   1311c:	8001a8b0 			; <UNDEFINED> instruction: 0x8001a8b0
   13120:	7fffdd54 	svcvc	0x00ffdd54
   13124:	8002a9b0 			; <UNDEFINED> instruction: 0x8002a9b0
   13128:	7fffdd98 	svcvc	0x00ffdd98
   1312c:	80aab0b0 	strhthi	fp, [sl], r0
   13130:	7fffddc4 	svcvc	0x00ffddc4
   13134:	80b108a9 	adcshi	r0, r1, r9, lsr #17
   13138:	7fffdde8 	svcvc	0x00ffdde8
   1313c:	00000001 	andeq	r0, r0, r1
   13140:	7fffde28 	svcvc	0x00ffde28
   13144:	80a8b0b0 	strhthi	fp, [r8], r0
   13148:	7fffde38 	svcvc	0x00ffde38
   1314c:	80b108a9 	adcshi	r0, r1, r9, lsr #17
   13150:	7fffde58 	svcvc	0x00ffde58
   13154:	7fffff78 	svcvc	0x00ffff78
   13158:	7fffde60 	svcvc	0x00ffde60
   1315c:	80b108a9 	adcshi	r0, r1, r9, lsr #17
   13160:	7fffde7c 	svcvc	0x00ffde7c
   13164:	7fffff74 	svcvc	0x00ffff74
   13168:	7fffde84 	svcvc	0x00ffde84
   1316c:	80b108a9 	adcshi	r0, r1, r9, lsr #17
   13170:	7fffdea0 	svcvc	0x00ffdea0
   13174:	7fffff70 	svcvc	0x00ffff70
   13178:	7fffdea8 	svcvc	0x00ffdea8
   1317c:	80aab0b0 	strhthi	fp, [sl], r0
   13180:	7fffded4 	svcvc	0x00ffded4
   13184:	80b108ab 	adcshi	r0, r1, fp, lsr #17
   13188:	7fffdf18 	svcvc	0x00ffdf18
   1318c:	80b108a9 	adcshi	r0, r1, r9, lsr #17
   13190:	7fffdf34 	svcvc	0x00ffdf34
   13194:	8002a9b0 			; <UNDEFINED> instruction: 0x8002a9b0
   13198:	7fffdf74 	svcvc	0x00ffdf74
   1319c:	8003a8b0 			; <UNDEFINED> instruction: 0x8003a8b0
   131a0:	7fffdfcc 	svcvc	0x00ffdfcc
   131a4:	80b108ab 	adcshi	r0, r1, fp, lsr #17
   131a8:	7fffdff8 	svcvc	0x00ffdff8
   131ac:	00000001 	andeq	r0, r0, r1
   131b0:	7fffdffc 	svcvc	0x00ffdffc
   131b4:	8004abb0 			; <UNDEFINED> instruction: 0x8004abb0
   131b8:	7fffe048 	svcvc	0x00ffe048
   131bc:	00000001 	andeq	r0, r0, r1
   131c0:	7fffe050 	svcvc	0x00ffe050
   131c4:	80b108a9 	adcshi	r0, r1, r9, lsr #17
   131c8:	7fffe084 	svcvc	0x00ffe084
   131cc:	00000001 	andeq	r0, r0, r1

Disassembly of section .eh_frame:

000131d0 <__FRAME_END__>:
   131d0:	00000000 	andeq	r0, r0, r0

Disassembly of section .init_array:

00023ef4 <__frame_dummy_init_array_entry>:
   23ef4:	00010c05 	andeq	r0, r1, r5, lsl #24

Disassembly of section .fini_array:

00023ef8 <__do_global_dtors_aux_fini_array_entry>:
   23ef8:	00010bed 	andeq	r0, r1, sp, ror #23

Disassembly of section .jcr:

00023efc <__JCR_END__>:
   23efc:	00000000 	andeq	r0, r0, r0

Disassembly of section .dynamic:

00023f00 <_DYNAMIC>:
   23f00:	00000001 	andeq	r0, r0, r1
   23f04:	00000001 	andeq	r0, r0, r1
   23f08:	00000001 	andeq	r0, r0, r1
   23f0c:	00000090 	muleq	r0, r0, r0
   23f10:	00000001 	andeq	r0, r0, r1
   23f14:	000000da 	ldrdeq	r0, [r0], -sl
   23f18:	00000001 	andeq	r0, r0, r1
   23f1c:	00000190 	muleq	r0, r0, r1
   23f20:	0000000c 	andeq	r0, r0, ip
   23f24:	000107dc 	ldrdeq	r0, [r1], -ip
   23f28:	0000000d 	andeq	r0, r0, sp
   23f2c:	00012dbc 			; <UNDEFINED> instruction: 0x00012dbc
   23f30:	00000019 	andeq	r0, r0, r9, lsl r0
   23f34:	00023ef4 	strdeq	r3, [r2], -r4
   23f38:	0000001b 	andeq	r0, r0, fp, lsl r0
   23f3c:	00000004 	andeq	r0, r0, r4
   23f40:	0000001a 	andeq	r0, r0, sl, lsl r0
   23f44:	00023ef8 	strdeq	r3, [r2], -r8
   23f48:	0000001c 	andeq	r0, r0, ip, lsl r0
   23f4c:	00000004 	andeq	r0, r0, r4
   23f50:	6ffffef5 	svcvs	0x00fffef5
   23f54:	000101b4 			; <UNDEFINED> instruction: 0x000101b4
   23f58:	00000005 	andeq	r0, r0, r5
   23f5c:	00010478 	andeq	r0, r1, r8, ror r4
   23f60:	00000006 	andeq	r0, r0, r6
   23f64:	00010288 	andeq	r0, r1, r8, lsl #5
   23f68:	0000000a 	andeq	r0, r0, sl
   23f6c:	000001d3 	ldrdeq	r0, [r0], -r3
   23f70:	0000000b 	andeq	r0, r0, fp
   23f74:	00000010 	andeq	r0, r0, r0, lsl r0
   23f78:	00000015 	andeq	r0, r0, r5, lsl r0
   23f7c:	00000000 	andeq	r0, r0, r0
   23f80:	00000003 	andeq	r0, r0, r3
   23f84:	00024000 	andeq	r4, r2, r0
   23f88:	00000002 	andeq	r0, r0, r2
   23f8c:	000000b8 	strheq	r0, [r0], -r8
   23f90:	00000014 	andeq	r0, r0, r4, lsl r0
   23f94:	00000011 	andeq	r0, r0, r1, lsl r0
   23f98:	00000017 	andeq	r0, r0, r7, lsl r0
   23f9c:	00010724 	andeq	r0, r1, r4, lsr #14
   23fa0:	00000011 	andeq	r0, r0, r1, lsl r0
   23fa4:	0001070c 	andeq	r0, r1, ip, lsl #14
   23fa8:	00000012 	andeq	r0, r0, r2, lsl r0
   23fac:	00000018 	andeq	r0, r0, r8, lsl r0
   23fb0:	00000013 	andeq	r0, r0, r3, lsl r0
   23fb4:	00000008 	andeq	r0, r0, r8
   23fb8:	6ffffffe 	svcvs	0x00fffffe
   23fbc:	0001068c 	andeq	r0, r1, ip, lsl #13
   23fc0:	6fffffff 	svcvs	0x00ffffff
   23fc4:	00000004 	andeq	r0, r0, r4
   23fc8:	6ffffff0 	svcvs	0x00fffff0
   23fcc:	0001064c 	andeq	r0, r1, ip, asr #12
	...

Disassembly of section .got:

00024000 <_GLOBAL_OFFSET_TABLE_>:
   24000:	00023f00 	andeq	r3, r2, r0, lsl #30
	...
   2400c:	000107e8 	andeq	r0, r1, r8, ror #15
   24010:	000107e8 	andeq	r0, r1, r8, ror #15
   24014:	000107e8 	andeq	r0, r1, r8, ror #15
   24018:	000107e8 	andeq	r0, r1, r8, ror #15
   2401c:	000107e8 	andeq	r0, r1, r8, ror #15
   24020:	000107e8 	andeq	r0, r1, r8, ror #15
   24024:	000107e8 	andeq	r0, r1, r8, ror #15
   24028:	000107e8 	andeq	r0, r1, r8, ror #15
   2402c:	000107e8 	andeq	r0, r1, r8, ror #15
   24030:	000107e8 	andeq	r0, r1, r8, ror #15
   24034:	000107e8 	andeq	r0, r1, r8, ror #15
   24038:	000107e8 	andeq	r0, r1, r8, ror #15
   2403c:	000107e8 	andeq	r0, r1, r8, ror #15
   24040:	000107e8 	andeq	r0, r1, r8, ror #15
   24044:	000107e8 	andeq	r0, r1, r8, ror #15
   24048:	000107e8 	andeq	r0, r1, r8, ror #15
   2404c:	000107e8 	andeq	r0, r1, r8, ror #15
   24050:	000107e8 	andeq	r0, r1, r8, ror #15
   24054:	000107e8 	andeq	r0, r1, r8, ror #15
   24058:	000107e8 	andeq	r0, r1, r8, ror #15
   2405c:	000107e8 	andeq	r0, r1, r8, ror #15
   24060:	000107e8 	andeq	r0, r1, r8, ror #15
   24064:	000107e8 	andeq	r0, r1, r8, ror #15
   24068:	00000000 	andeq	r0, r0, r0

Disassembly of section .data:

0002406c <__data_start>:
   2406c:	00000000 	andeq	r0, r0, r0

00024070 <__dso_handle>:
   24070:	00000000 	andeq	r0, r0, r0

00024074 <bcm2835_peripherals>:
   24074:	ffffffff 			; <UNDEFINED> instruction: 0xffffffff

00024078 <bcm2835_peripherals_size>:
   24078:	01000000 	mrseq	r0, (UNDEF: 0)

0002407c <bcm2835_gpio>:
   2407c:	ffffffff 			; <UNDEFINED> instruction: 0xffffffff

00024080 <bcm2835_pwm>:
   24080:	ffffffff 			; <UNDEFINED> instruction: 0xffffffff

00024084 <bcm2835_clk>:
   24084:	ffffffff 			; <UNDEFINED> instruction: 0xffffffff

00024088 <bcm2835_pads>:
   24088:	ffffffff 			; <UNDEFINED> instruction: 0xffffffff

0002408c <bcm2835_spi0>:
   2408c:	ffffffff 			; <UNDEFINED> instruction: 0xffffffff

00024090 <bcm2835_bsc0>:
   24090:	ffffffff 			; <UNDEFINED> instruction: 0xffffffff

00024094 <bcm2835_bsc1>:
   24094:	ffffffff 			; <UNDEFINED> instruction: 0xffffffff

00024098 <bcm2835_st>:
   24098:	ffffffff 			; <UNDEFINED> instruction: 0xffffffff

0002409c <bcm2835_aux>:
   2409c:	ffffffff 			; <UNDEFINED> instruction: 0xffffffff

000240a0 <bcm2835_spi1>:
   240a0:	ffffffff 			; <UNDEFINED> instruction: 0xffffffff

000240a4 <bcm2835_spi_bit_order>:
   240a4:	00000001 	andeq	r0, r0, r1

000240a8 <bcm2835_peripherals_base>:
   240a8:	20000000 	andcs	r0, r0, r0

Disassembly of section .bss:

000240b0 <__stack_chk_guard@@GLIBC_2.4>:
	...

000240b8 <stderr@@GLIBC_2.4>:
   240b8:	00000000 	andeq	r0, r0, r0

000240bc <completed.9907>:
   240bc:	00000000 	andeq	r0, r0, r0

000240c0 <debug>:
	...

000240c1 <pud_type_rpi4>:
	...

000240c2 <pud_compat_setting>:
	...

000240c4 <spi1_speed>:
   240c4:	00000000 	andeq	r0, r0, r0

000240c8 <i2c_byte_wait_us>:
   240c8:	00000000 	andeq	r0, r0, r0

Disassembly of section .comment:

00000000 <.comment>:
   0:	3a434347 	bcc	10d0d24 <__bss_end__+0x10acc58>
   4:	62552820 	subsvs	r2, r5, #32, 16	; 0x200000
   8:	75746e75 	ldrbvc	r6, [r4, #-3701]!	; 0xfffff18b
   c:	6e694c2f 	cdpvs	12, 6, cr4, cr9, cr15, {1}
  10:	206f7261 	rsbcs	r7, pc, r1, ror #4
  14:	2e342e35 	mrccs	14, 1, r2, cr4, cr5, {1}
  18:	75362d30 	ldrvc	r2, [r6, #-3376]!	; 0xfffff2d0
  1c:	746e7562 	strbtvc	r7, [lr], #-1378	; 0xfffffa9e
  20:	317e3175 	cmncc	lr, r5, ror r1
  24:	34302e36 	ldrtcc	r2, [r0], #-3638	; 0xfffff1ca
  28:	2931312e 	ldmdbcs	r1!, {r1, r2, r3, r5, r8, ip, sp}
  2c:	342e3520 	strtcc	r3, [lr], #-1312	; 0xfffffae0
  30:	3220302e 	eorcc	r3, r0, #46	; 0x2e
  34:	30363130 	eorscc	r3, r6, r0, lsr r1
  38:	00393036 	eorseq	r3, r9, r6, lsr r0

Disassembly of section .ARM.attributes:

00000000 <.ARM.attributes>:
   0:	00003241 	andeq	r3, r0, r1, asr #4
   4:	61656100 	cmnvs	r5, r0, lsl #2
   8:	01006962 	tsteq	r0, r2, ror #18
   c:	00000028 	andeq	r0, r0, r8, lsr #32
  10:	412d3705 			; <UNDEFINED> instruction: 0x412d3705
  14:	070a0600 	streq	r0, [sl, -r0, lsl #12]
  18:	09010841 	stmdbeq	r1, {r0, r6, fp}
  1c:	12040a02 	andne	r0, r4, #8192	; 0x2000
  20:	14011304 	strne	r1, [r1], #-772	; 0xfffffcfc
  24:	17011501 	strne	r1, [r1, -r1, lsl #10]
  28:	19011803 	stmdbne	r1, {r0, r1, fp, ip}
  2c:	1c021a01 	stcne	10, cr1, [r2], {1}
  30:	Address 0x00000030 is out of bounds.


Disassembly of section .debug_aranges:

00000000 <.debug_aranges>:
   0:	0000001c 	andeq	r0, r0, ip, lsl r0
   4:	00000002 	andeq	r0, r0, r2
   8:	00040000 	andeq	r0, r4, r0
   c:	00000000 	andeq	r0, r0, r0
  10:	0001127c 	andeq	r1, r1, ip, ror r2
  14:	00001afe 	strdeq	r1, [r0], -lr
	...

Disassembly of section .debug_info:

00000000 <.debug_info>:
       0:	00004718 	andeq	r4, r0, r8, lsl r7
       4:	00000004 	andeq	r0, r0, r4
       8:	01040000 	mrseq	r0, (UNDEF: 4)
       c:	00000adb 	ldrdeq	r0, [r0], -fp
      10:	0012b30c 	andseq	fp, r2, ip, lsl #6
      14:	000bcb00 	andeq	ip, fp, r0, lsl #22
      18:	01127c00 	tsteq	r2, r0, lsl #24
      1c:	001afe00 	andseq	pc, sl, r0, lsl #28
      20:	00000000 	andeq	r0, r0, r0
      24:	07040200 	streq	r0, [r4, -r0, lsl #4]
      28:	00000e4c 	andeq	r0, r0, ip, asr #28
      2c:	42070802 	andmi	r0, r7, #131072	; 0x20000
      30:	0300000e 	movweq	r0, #14
      34:	00000009 	andeq	r0, r0, r9
      38:	0025d804 	eoreq	sp, r5, r4, lsl #16
      3c:	01020000 	mrseq	r0, (UNDEF: 2)
      40:	00050408 	andeq	r0, r5, r8, lsl #8
      44:	07020200 	streq	r0, [r2, -r0, lsl #4]
      48:	0000137e 	andeq	r1, r0, lr, ror r3
      4c:	47070402 	strmi	r0, [r7, -r2, lsl #8]
      50:	0200000e 	andeq	r0, r0, #14
      54:	05060601 	streq	r0, [r6, #-1537]	; 0xfffff9ff
      58:	02020000 	andeq	r0, r2, #0
      5c:	00115e05 	andseq	r5, r1, r5, lsl #28
      60:	05040400 	streq	r0, [r4, #-1024]	; 0xfffffc00
      64:	00746e69 	rsbseq	r6, r4, r9, ror #28
      68:	0b050802 	bleq	142078 <__bss_end__+0x11dfac>
      6c:	03000009 	movweq	r0, #9
      70:	00000883 	andeq	r0, r0, r3, lsl #17
      74:	00683705 	rsbeq	r3, r8, r5, lsl #14
      78:	a8030000 	stmdage	r3, {}	; <UNPREDICTABLE>
      7c:	0500000e 	streq	r0, [r0, #-14]
      80:	00008583 	andeq	r8, r0, r3, lsl #11
      84:	05040200 	streq	r0, [r4, #-512]	; 0xfffffe00
      88:	00000910 	andeq	r0, r0, r0, lsl r9
      8c:	00108a03 	andseq	r8, r0, r3, lsl #20
      90:	6f840500 	svcvs	0x00840500
      94:	02000000 	andeq	r0, r0, #0
      98:	00100704 	andseq	r0, r0, r4, lsl #14
      9c:	97030000 	strls	r0, [r3, -r0]
      a0:	0500000f 	streq	r0, [r0, #-15]
      a4:	0000858b 	andeq	r8, r0, fp, lsl #11
      a8:	03040500 	movweq	r0, #17664	; 0x4500
      ac:	00000571 	andeq	r0, r0, r1, ror r5
      b0:	0085af05 	addeq	sl, r5, r5, lsl #30
      b4:	04060000 	streq	r0, [r6], #-0
      b8:	000000bc 	strheq	r0, [r0], -ip
      bc:	0d080102 	stfeqs	f0, [r8, #-8]
      c0:	03000005 	movweq	r0, #5
      c4:	00000eaa 	andeq	r0, r0, sl, lsr #29
      c8:	007a5606 	rsbseq	r5, sl, r6, lsl #12
      cc:	99030000 	stmdbls	r3, {}	; <UNPREDICTABLE>
      d0:	0700000f 	streq	r0, [r0, -pc]
      d4:	00009e4b 	andeq	r9, r0, fp, asr #28
      d8:	0d3a0700 	ldceq	7, cr0, [sl, #-0]
      dc:	07080000 	streq	r0, [r8, -r0]
      e0:	0000fe78 	andeq	pc, r0, r8, ror lr	; <UNPREDICTABLE>
      e4:	14540800 	ldrbne	r0, [r4], #-2048	; 0xfffff800
      e8:	7a070000 	bvc	1c00f0 <__bss_end__+0x19c024>
      ec:	0000009e 	muleq	r0, lr, r0
      f0:	11710800 	cmnne	r1, r0, lsl #16
      f4:	7b070000 	blvc	1c00fc <__bss_end__+0x19c030>
      f8:	000000ab 	andeq	r0, r0, fp, lsr #1
      fc:	ff030004 			; <UNDEFINED> instruction: 0xff030004
     100:	08000004 	stmdaeq	r0, {r2}
     104:	00010930 	andeq	r0, r1, r0, lsr r9
     108:	04fb0700 	ldrbteq	r0, [fp], #1792	; 0x700
     10c:	09980000 	ldmibeq	r8, {}	; <UNPREDICTABLE>
     110:	000286f1 	strdeq	r8, [r2], -r1
     114:	0b9b0800 	bleq	fe6c211c <__bss_end__+0xfe69e050>
     118:	f2090000 	vhadd.s8	d0, d9, d0
     11c:	00000061 	andeq	r0, r0, r1, rrx
     120:	068d0800 	streq	r0, [sp], r0, lsl #16
     124:	f7090000 			; <UNDEFINED> instruction: 0xf7090000
     128:	000000b6 	strheq	r0, [r0], -r6
     12c:	12e10804 	rscne	r0, r1, #4, 16	; 0x40000
     130:	f8090000 			; <UNDEFINED> instruction: 0xf8090000
     134:	000000b6 	strheq	r0, [r0], -r6
     138:	08360808 	ldmdaeq	r6!, {r3, fp}
     13c:	f9090000 			; <UNDEFINED> instruction: 0xf9090000
     140:	000000b6 	strheq	r0, [r0], -r6
     144:	00da080c 	sbcseq	r0, sl, ip, lsl #16
     148:	fa090000 	blx	240150 <__bss_end__+0x21c084>
     14c:	000000b6 	strheq	r0, [r0], -r6
     150:	13d70810 	bicsne	r0, r7, #16, 16	; 0x100000
     154:	fb090000 	blx	24015e <__bss_end__+0x21c092>
     158:	000000b6 	strheq	r0, [r0], -r6
     15c:	09700814 	ldmdbeq	r0!, {r2, r4, fp}^
     160:	fc090000 	stc2	0, cr0, [r9], {-0}
     164:	000000b6 	strheq	r0, [r0], -r6
     168:	0a3e0818 	beq	f821d0 <__bss_end__+0xf5e104>
     16c:	fd090000 	stc2	0, cr0, [r9, #-0]
     170:	000000b6 	strheq	r0, [r0], -r6
     174:	10fe081c 	rscsne	r0, lr, ip, lsl r8
     178:	fe090000 	cdp2	0, 0, cr0, cr9, cr0, {0}
     17c:	000000b6 	strheq	r0, [r0], -r6
     180:	01e40920 	mvneq	r0, r0, lsr #18
     184:	00090000 	andeq	r0, r9, r0
     188:	0000b601 	andeq	fp, r0, r1, lsl #12
     18c:	1a092400 	bne	249194 <__bss_end__+0x2250c8>
     190:	09000010 	stmdbeq	r0, {r4}
     194:	00b60101 	adcseq	r0, r6, r1, lsl #2
     198:	09280000 	stmdbeq	r8!, {}	; <UNPREDICTABLE>
     19c:	00000087 	andeq	r0, r0, r7, lsl #1
     1a0:	b6010209 	strlt	r0, [r1], -r9, lsl #4
     1a4:	2c000000 	stccs	0, cr0, [r0], {-0}
     1a8:	00072409 	andeq	r2, r7, r9, lsl #8
     1ac:	01040900 	tsteq	r4, r0, lsl #18
     1b0:	000002be 			; <UNDEFINED> instruction: 0x000002be
     1b4:	02700930 	rsbseq	r0, r0, #48, 18	; 0xc0000
     1b8:	06090000 	streq	r0, [r9], -r0
     1bc:	0002c401 	andeq	ip, r2, r1, lsl #8
     1c0:	3d093400 	cfstrscc	mvf3, [r9, #-0]
     1c4:	09000013 	stmdbeq	r0, {r0, r1, r4}
     1c8:	00610108 	rsbeq	r0, r1, r8, lsl #2
     1cc:	09380000 	ldmdbeq	r8!, {}	; <UNPREDICTABLE>
     1d0:	00000816 	andeq	r0, r0, r6, lsl r8
     1d4:	61010c09 	tstvs	r1, r9, lsl #24
     1d8:	3c000000 	stccc	0, cr0, [r0], {-0}
     1dc:	0008cd09 	andeq	ip, r8, r9, lsl #26
     1e0:	010e0900 	tsteq	lr, r0, lsl #18
     1e4:	0000007a 	andeq	r0, r0, sl, ror r0
     1e8:	02970940 	addseq	r0, r7, #64, 18	; 0x100000
     1ec:	12090000 	andne	r0, r9, #0
     1f0:	00004501 	andeq	r4, r0, r1, lsl #10
     1f4:	d5094400 	strle	r4, [r9, #-1024]	; 0xfffffc00
     1f8:	09000011 	stmdbeq	r0, {r0, r4}
     1fc:	00530113 	subseq	r0, r3, r3, lsl r1
     200:	09460000 	stmdbeq	r6, {}^	; <UNPREDICTABLE>
     204:	0000103c 	andeq	r1, r0, ip, lsr r0
     208:	ca011409 	bgt	45234 <__bss_end__+0x21168>
     20c:	47000002 	strmi	r0, [r0, -r2]
     210:	00018d09 	andeq	r8, r1, r9, lsl #26
     214:	01180900 	tsteq	r8, r0, lsl #18
     218:	000002da 	ldrdeq	r0, [r0], -sl
     21c:	08d10948 	ldmeq	r1, {r3, r6, r8, fp}^
     220:	21090000 	mrscs	r0, (UNDEF: 9)
     224:	00008c01 	andeq	r8, r0, r1, lsl #24
     228:	c6095000 	strgt	r5, [r9], -r0
     22c:	0900000a 	stmdbeq	r0, {r1, r3}
     230:	00a90129 	adceq	r0, r9, r9, lsr #2
     234:	09580000 	ldmdbeq	r8, {}^	; <UNPREDICTABLE>
     238:	00000acd 	andeq	r0, r0, sp, asr #21
     23c:	a9012a09 	stmdbge	r1, {r0, r3, r9, fp, sp}
     240:	5c000000 	stcpl	0, cr0, [r0], {-0}
     244:	000ad409 	andeq	sp, sl, r9, lsl #8
     248:	012b0900 			; <UNDEFINED> instruction: 0x012b0900
     24c:	000000a9 	andeq	r0, r0, r9, lsr #1
     250:	145b0960 	ldrbne	r0, [fp], #-2400	; 0xfffff6a0
     254:	2c090000 	stccs	0, cr0, [r9], {-0}
     258:	0000a901 	andeq	sl, r0, r1, lsl #18
     25c:	5c096400 	cfstrspl	mvf6, [r9], {-0}
     260:	0900000b 	stmdbeq	r0, {r0, r1, r3}
     264:	0033012e 	eorseq	r0, r3, lr, lsr #2
     268:	09680000 	stmdbeq	r8!, {}^	; <UNPREDICTABLE>
     26c:	00001493 	muleq	r0, r3, r4
     270:	61012f09 	tstvs	r1, r9, lsl #30
     274:	6c000000 	stcvs	0, cr0, [r0], {-0}
     278:	00086d09 	andeq	r6, r8, r9, lsl #26
     27c:	01310900 	teqeq	r1, r0, lsl #18
     280:	000002e0 	andeq	r0, r0, r0, ror #5
     284:	400a0070 	andmi	r0, sl, r0, ror r0
     288:	09000006 	stmdbeq	r0, {r1, r2}
     28c:	04620796 	strbteq	r0, [r2], #-1942	; 0xfffff86a
     290:	090c0000 	stmdbeq	ip, {}	; <UNPREDICTABLE>
     294:	0002be9c 	muleq	r2, ip, lr
     298:	10720800 	rsbsne	r0, r2, r0, lsl #16
     29c:	9d090000 	stcls	0, cr0, [r9, #-0]
     2a0:	000002be 			; <UNDEFINED> instruction: 0x000002be
     2a4:	0b630800 	bleq	18c22ac <__bss_end__+0x189e1e0>
     2a8:	9e090000 	cdpls	0, 0, cr0, cr9, cr0, {0}
     2ac:	000002c4 	andeq	r0, r0, r4, asr #5
     2b0:	06b10804 	ldrteq	r0, [r1], r4, lsl #16
     2b4:	a2090000 	andge	r0, r9, #0
     2b8:	00000061 	andeq	r0, r0, r1, rrx
     2bc:	04060008 	streq	r0, [r6], #-8
     2c0:	0000028d 	andeq	r0, r0, sp, lsl #5
     2c4:	01090406 	tsteq	r9, r6, lsl #8
     2c8:	bc0b0000 	stclt	0, cr0, [fp], {-0}
     2cc:	da000000 	ble	2d4 <_init-0x10508>
     2d0:	0c000002 	stceq	0, cr0, [r0], {2}
     2d4:	00000097 	muleq	r0, r7, r0
     2d8:	04060000 	streq	r0, [r6], #-0
     2dc:	00000286 	andeq	r0, r0, r6, lsl #5
     2e0:	0000bc0b 	andeq	fp, r0, fp, lsl #24
     2e4:	0002f000 	andeq	pc, r2, r0
     2e8:	00970c00 	addseq	r0, r7, r0, lsl #24
     2ec:	00270000 	eoreq	r0, r7, r0
     2f0:	02f60406 	rscseq	r0, r6, #100663296	; 0x6000000
     2f4:	bc0d0000 	stclt	0, cr0, [sp], {-0}
     2f8:	03000000 	movweq	r0, #0
     2fc:	000004f3 	strdeq	r0, [r0], -r3
     300:	003e300a 	eorseq	r3, lr, sl
     304:	6a030000 	bvs	c030c <__bss_end__+0x9c240>
     308:	0a00000e 	beq	348 <_init-0x10494>
     30c:	00004531 	andeq	r4, r0, r1, lsr r5
     310:	13050300 	movwne	r0, #21248	; 0x5300
     314:	330a0000 	movwcc	r0, #40960	; 0xa000
     318:	00000025 	andeq	r0, r0, r5, lsr #32
     31c:	00116803 	andseq	r6, r1, r3, lsl #16
     320:	2c3a0a00 	ldccs	10, cr0, [sl], #-0
     324:	0e000000 	cdpeq	0, 0, cr0, cr0, cr0, {0}
     328:	00002504 	andeq	r2, r0, r4, lsl #10
     32c:	02b70b00 	adcseq	r0, r7, #0, 22
     330:	00000371 	andeq	r0, r0, r1, ror r3
     334:	0013c40f 	andseq	ip, r3, pc, lsl #8
     338:	4b0f0100 	blmi	3c0740 <__bss_end__+0x39c674>
     33c:	02000006 	andeq	r0, r0, #6
     340:	0010e20f 	andseq	lr, r0, pc, lsl #4
     344:	0a0f0300 	beq	3c0f4c <__bss_end__+0x39ce80>
     348:	04000011 	streq	r0, [r0], #-17	; 0xffffffef
     34c:	000c840f 	andeq	r8, ip, pc, lsl #8
     350:	f30f0500 	vrshl.u8	d0, d0, d15
     354:	06000006 	streq	r0, [r0], -r6
     358:	0004070f 	andeq	r0, r4, pc, lsl #14
     35c:	1c0f0700 	stcne	7, cr0, [pc], {-0}
     360:	08000004 	stmdaeq	r0, {r2}
     364:	000e840f 	andeq	r8, lr, pc, lsl #8
     368:	080f0900 	stmdaeq	pc, {r8, fp}	; <UNPREDICTABLE>
     36c:	0a000007 	beq	390 <_init-0x1044c>
     370:	25040e00 	strcs	r0, [r4, #-3584]	; 0xfffff200
     374:	0b000000 	bleq	37c <_init-0x10460>
     378:	03b502f9 			; <UNDEFINED> instruction: 0x03b502f9
     37c:	6d0f0000 	stcvs	0, cr0, [pc, #-0]	; 384 <_init-0x10458>
     380:	00000004 	andeq	r0, r0, r4
     384:	000fa00f 	andeq	sl, pc, pc
     388:	900f0100 	andls	r0, pc, r0, lsl #2
     38c:	04000011 	streq	r0, [r0], #-17	; 0xffffffef
     390:	0011a70f 	andseq	sl, r1, pc, lsl #14
     394:	be0f0500 	cfsh32lt	mvfx0, mvfx15, #0
     398:	06000011 			; <UNDEFINED> instruction: 0x06000011
     39c:	0011790f 	andseq	r7, r1, pc, lsl #18
     3a0:	e40f0700 	str	r0, [pc], #-1792	; 3a8 <_init-0x10434>
     3a4:	03000011 	movweq	r0, #17
     3a8:	0011fb0f 	andseq	pc, r1, pc, lsl #22
     3ac:	0d0f0200 	sfmeq	f0, 4, [pc, #-0]	; 3b4 <_init-0x10428>
     3b0:	0700000d 	streq	r0, [r0, -sp]
     3b4:	25040e00 	strcs	r0, [r4, #-3584]	; 0xfffff200
     3b8:	0b000000 	bleq	3c0 <_init-0x1041c>
     3bc:	03d50309 	bicseq	r0, r5, #603979776	; 0x24000000
     3c0:	f20f0000 	vhadd.s8	d0, d15, d0
     3c4:	00000003 	andeq	r0, r0, r3
     3c8:	0012120f 	andseq	r1, r2, pc, lsl #4
     3cc:	df0f0100 	svcle	0x000f0100
     3d0:	02000004 	andeq	r0, r0, #4
     3d4:	25040e00 	strcs	r0, [r4, #-3584]	; 0xfffff200
     3d8:	0b000000 	bleq	3e0 <_init-0x103fc>
     3dc:	0599033d 	ldreq	r0, [r9, #829]	; 0x33d
     3e0:	340f0000 	strcc	r0, [pc], #-0	; 3e8 <_init-0x103f4>
     3e4:	00000009 	andeq	r0, r0, r9
     3e8:	0009430f 	andeq	r4, r9, pc, lsl #6
     3ec:	520f0100 	andpl	r0, pc, #0, 2
     3f0:	04000009 	streq	r0, [r0], #-9
     3f4:	0009610f 	andeq	r6, r9, pc, lsl #2
     3f8:	930f0e00 	movwls	r0, #65024	; 0xfe00
     3fc:	0f000009 	svceq	0x00000009
     400:	0009a20f 	andeq	sl, r9, pc, lsl #4
     404:	b10f1100 	mrslt	r1, (UNDEF: 31)
     408:	12000009 	andne	r0, r0, #9
     40c:	0009c00f 	andeq	ip, r9, pc
     410:	cf0f1500 	svcgt	0x000f1500
     414:	16000009 	strne	r0, [r0], -r9
     418:	0009de0f 	andeq	sp, r9, pc, lsl #28
     41c:	ed0f1700 	stc	7, cr1, [pc, #-0]	; 424 <_init-0x103b8>
     420:	18000009 	stmdane	r0, {r0, r3}
     424:	0009fc0f 	andeq	pc, r9, pc, lsl #24
     428:	7b0f0a00 	blvc	3c2c30 <__bss_end__+0x39eb64>
     42c:	0900000a 	stmdbeq	r0, {r1, r3}
     430:	000a8a0f 	andeq	r8, sl, pc, lsl #20
     434:	990f1900 	stmdbls	pc, {r8, fp, ip}	; <UNPREDICTABLE>
     438:	0b00000a 	bleq	468 <_init-0x10374>
     43c:	000aa80f 	andeq	sl, sl, pc, lsl #16
     440:	b70f0800 	strlt	r0, [pc, -r0, lsl #16]
     444:	0700000a 	streq	r0, [r0, -sl]
     448:	000cb40f 	andeq	fp, ip, pc, lsl #8
     44c:	c60f0200 	strgt	r0, [pc], -r0, lsl #4
     450:	0300000c 	movweq	r0, #12
     454:	000cd80f 	andeq	sp, ip, pc, lsl #16
     458:	ea0f0400 	b	3c1460 <__bss_end__+0x39d394>
     45c:	0e00000c 	cdpeq	0, 0, cr0, cr0, cr12, {0}
     460:	000db20f 	andeq	fp, sp, pc, lsl #4
     464:	c40f0f00 	strgt	r0, [pc], #-3840	; 46c <_init-0x10370>
     468:	1100000d 	tstne	r0, sp
     46c:	000dd60f 	andeq	sp, sp, pc, lsl #12
     470:	e80f1200 	stmda	pc, {r9, ip}	; <UNPREDICTABLE>
     474:	1b00000d 	blne	4b0 <_init-0x1032c>
     478:	000dfa0f 	andeq	pc, sp, pc, lsl #20
     47c:	0c0f1600 	stceq	6, cr1, [pc], {-0}
     480:	1700000e 	strne	r0, [r0, -lr]
     484:	000e1e0f 	andeq	r1, lr, pc, lsl #28
     488:	300f1800 	andcc	r1, pc, r0, lsl #16
     48c:	0a00000e 	beq	4cc <_init-0x10310>
     490:	000ed90f 	andeq	sp, lr, pc, lsl #18
     494:	eb0f0900 	bl	3c289c <__bss_end__+0x39e7d0>
     498:	1900000e 	stmdbne	r0, {r1, r2, r3}
     49c:	000efd0f 	andeq	pc, lr, pc, lsl #26
     4a0:	0f0f0b00 	svceq	0x000f0b00
     4a4:	0800000f 	stmdaeq	r0, {r0, r1, r2, r3}
     4a8:	000f360f 	andeq	r3, pc, pc, lsl #12
     4ac:	480f0700 	stmdami	pc, {r8, r9, sl}	; <UNPREDICTABLE>
     4b0:	0500000f 	streq	r0, [r0, #-15]
     4b4:	000fd20f 	andeq	sp, pc, pc, lsl #4
     4b8:	e40f0600 	str	r0, [pc], #-1536	; 4c0 <_init-0x1031c>
     4bc:	0c00000f 	stceq	0, cr0, [r0], {15}
     4c0:	000ff60f 	andeq	pc, pc, pc, lsl #12
     4c4:	080f0d00 	stmdaeq	pc, {r8, sl, fp}	; <UNPREDICTABLE>
     4c8:	13000010 	movwne	r0, #16
     4cc:	00078f0f 	andeq	r8, r7, pc, lsl #30
     4d0:	2a0f1000 	bcs	3c44d8 <__bss_end__+0x3a040c>
     4d4:	1a000010 	bne	51c <_init-0x102c0>
     4d8:	0007a10f 	andeq	sl, r7, pc, lsl #2
     4dc:	d00f1400 	andle	r1, pc, r0, lsl #8
     4e0:	15000010 	strne	r0, [r0, #-16]
     4e4:	000d590f 	andeq	r5, sp, pc, lsl #18
     4e8:	6b0f1c00 	blvs	3c74f0 <__bss_end__+0x3a3424>
     4ec:	1d00000d 	stcne	0, cr0, [r0, #-52]	; 0xffffffcc
     4f0:	000d7d0f 	andeq	r7, sp, pc, lsl #26
     4f4:	8f0f1e00 	svchi	0x000f1e00
     4f8:	1f00000d 	svcne	0x0000000d
     4fc:	00002c0f 	andeq	r2, r0, pc, lsl #24
     500:	410f0200 	mrsmi	r0, (UNDEF: 47)
     504:	03000000 	movweq	r0, #0
     508:	0000560f 	andeq	r5, r0, pc, lsl #12
     50c:	6b0f0400 	blvs	3c1514 <__bss_end__+0x39d448>
     510:	0e000000 	cdpeq	0, 0, cr0, cr0, cr0, {0}
     514:	0000c50f 	andeq	ip, r0, pc, lsl #10
     518:	fa0f0f00 	blx	3c4120 <__bss_end__+0x3a0054>
     51c:	11000007 	tstne	r0, r7
     520:	0000e90f 	andeq	lr, r0, pc, lsl #18
     524:	fe0f1200 	cdp2	2, 0, cr1, cr15, cr0, {0}
     528:	1b000000 	blne	530 <_init-0x102ac>
     52c:	0001130f 	andeq	r1, r1, pc, lsl #6
     530:	280f1600 	stmdacs	pc, {r9, sl, ip}	; <UNPREDICTABLE>
     534:	17000001 	strne	r0, [r0, -r1]
     538:	00013d0f 	andeq	r3, r1, pc, lsl #26
     53c:	520f1800 	andpl	r1, pc, #0, 16
     540:	0a000001 	beq	54c <_init-0x10290>
     544:	0001f20f 	andeq	pc, r1, pc, lsl #4
     548:	070f0900 	streq	r0, [pc, -r0, lsl #18]
     54c:	19000002 	stmdbne	r0, {r1}
     550:	00021c0f 	andeq	r1, r2, pc, lsl #24
     554:	310f0b00 	tstcc	pc, r0, lsl #22
     558:	08000002 	stmdaeq	r0, {r1}
     55c:	0002460f 	andeq	r4, r2, pc, lsl #12
     560:	5b0f0700 	blpl	3c2168 <__bss_end__+0x39e09c>
     564:	05000002 	streq	r0, [r0, #-2]
     568:	0003080f 	andeq	r0, r3, pc, lsl #16
     56c:	1d0f0600 	stcne	6, cr0, [pc, #-0]	; 574 <_init-0x10268>
     570:	0c000003 	stceq	0, cr0, [r0], {3}
     574:	0003320f 	andeq	r3, r3, pc, lsl #4
     578:	470f0d00 	strmi	r0, [pc, -r0, lsl #26]
     57c:	13000003 	movwne	r0, #3
     580:	00035c0f 	andeq	r5, r3, pc, lsl #24
     584:	710f1000 	mrsvc	r1, CPSR
     588:	1a000003 	bne	59c <_init-0x10240>
     58c:	0003860f 	andeq	r8, r3, pc, lsl #12
     590:	4d0f1400 	cfstrsmi	mvf1, [pc, #-0]	; 598 <_init-0x10244>
     594:	15000004 	strne	r0, [r0, #-4]
     598:	25040e00 	strcs	r0, [r4, #-3584]	; 0xfffff200
     59c:	0b000000 	bleq	5a4 <_init-0x10238>
     5a0:	05b303f2 	ldreq	r0, [r3, #1010]!	; 0x3f2
     5a4:	2c0f0000 	stccs	0, cr0, [pc], {-0}
     5a8:	00000005 	andeq	r0, r0, r5
     5ac:	0012840f 	andseq	r8, r2, pc, lsl #8
     5b0:	0e000100 	adfeqs	f0, f0, f0
     5b4:	00002504 	andeq	r2, r0, r4, lsl #10
     5b8:	04650b00 	strbteq	r0, [r5], #-2816	; 0xfffff500
     5bc:	000005d9 	ldrdeq	r0, [r0], -r9
     5c0:	0008440f 	andeq	r4, r8, pc, lsl #8
     5c4:	b20f0000 	andlt	r0, pc, #0
     5c8:	01000010 	tsteq	r0, r0, lsl r0
     5cc:	000eb60f 	andeq	fp, lr, pc, lsl #12
     5d0:	e60f0200 	str	r0, [pc], -r0, lsl #4
     5d4:	04000005 	streq	r0, [r0], #-5
     5d8:	111e1000 	tstne	lr, r0
     5dc:	5f020000 	svcpl	0x00020000
     5e0:	00000061 	andeq	r0, r0, r1, rrx
     5e4:	00060103 	andeq	r0, r6, r3, lsl #2
     5e8:	00001100 	andeq	r1, r0, r0, lsl #2
     5ec:	5f020000 	svcpl	0x00020000
     5f0:	00000607 	andeq	r0, r0, r7, lsl #12
     5f4:	00002611 	andeq	r2, r0, r1, lsl r6
     5f8:	0c5f0200 	lfmeq	f0, 2, [pc], {-0}
     5fc:	12000006 	andne	r0, r0, #6
     600:	fe040600 	cdp2	6, 0, cr0, cr4, cr0, {0}
     604:	13000000 	movwne	r0, #0
     608:	00000601 	andeq	r0, r0, r1, lsl #12
     60c:	0002f013 	andeq	pc, r2, r3, lsl r0	; <UNPREDICTABLE>
     610:	0d061400 	cfstrseq	mvf1, [r6, #-0]
     614:	a8010000 	stmdage	r1, {}	; <UNPREDICTABLE>
     618:	0000a906 	andeq	sl, r0, r6, lsl #18
     61c:	065e0100 	ldrbeq	r0, [lr], -r0, lsl #2
     620:	6d150000 	ldcvs	0, cr0, [r5, #-0]
     624:	01006773 	tsteq	r0, r3, ror r7
     628:	02f006a8 	rscseq	r0, r0, #168, 12	; 0xa800000
     62c:	a3160000 	tstge	r6, #0
     630:	01000008 	tsteq	r0, r8
     634:	003306a8 	eorseq	r0, r3, r8, lsr #13
     638:	66150000 	ldrvs	r0, [r5], -r0
     63c:	a8010064 	stmdage	r1, {r2, r5, r6}
     640:	00006106 	andeq	r6, r0, r6, lsl #2
     644:	666f1500 	strbtvs	r1, [pc], -r0, lsl #10
     648:	a8010066 	stmdage	r1, {r1, r2, r5, r6}
     64c:	0000c306 	andeq	ip, r0, r6, lsl #6
     650:	616d1700 	cmnvs	sp, r0, lsl #14
     654:	aa010070 	bge	4081c <__bss_end__+0x1c750>
     658:	0000a906 	andeq	sl, r0, r6, lsl #18
     65c:	1f100000 	svcne	0x00100000
     660:	02000011 	andeq	r0, r0, #17
     664:	00006166 	andeq	r6, r0, r6, ror #2
     668:	067b0300 	ldrbteq	r0, [fp], -r0, lsl #6
     66c:	26110000 	ldrcs	r0, [r1], -r0
     670:	02000000 	andeq	r0, r0, #0
     674:	00060c66 	andeq	r0, r6, r6, ror #24
     678:	18001200 	stmdane	r0, {r9, ip}
     67c:	00001078 	andeq	r1, r0, r8, ror r0
     680:	0311b001 	tsteq	r1, #1
     684:	a2010000 	andge	r0, r1, #0
     688:	11000006 	tstne	r0, r6
     68c:	00000eb0 			; <UNDEFINED> instruction: 0x00000eb0
     690:	06a2b001 	strteq	fp, [r2], r1
     694:	72190000 	andsvc	r0, r9, #0
     698:	01007465 	tsteq	r0, r5, ror #8
     69c:	000311b2 			; <UNDEFINED> instruction: 0x000311b2
     6a0:	04060000 	streq	r0, [r6], #-0
     6a4:	000006a8 	andeq	r0, r0, r8, lsr #13
     6a8:	0003111a 	andeq	r1, r3, sl, lsl r1
     6ac:	0f211800 	svceq	0x00211800
     6b0:	c7010000 	strgt	r0, [r1, -r0]
     6b4:	00000311 	andeq	r0, r0, r1, lsl r3
     6b8:	0006c901 	andeq	ip, r6, r1, lsl #18
     6bc:	0eb01100 	frdeqs	f1, f0, f0
     6c0:	c7010000 	strgt	r0, [r1, -r0]
     6c4:	000006a2 	andeq	r0, r0, r2, lsr #13
     6c8:	0c3e1b00 	ldceq	11, cr1, [lr], #-0
     6cc:	d7010000 	strle	r0, [r1, -r0]
     6d0:	0006ec01 	andeq	lr, r6, r1, lsl #24
     6d4:	0eb01100 	frdeqs	f1, f0, f0
     6d8:	d7010000 	strle	r0, [r1, -r0]
     6dc:	000006a2 	andeq	r0, r0, r2, lsr #13
     6e0:	00058311 	andeq	r8, r5, r1, lsl r3
     6e4:	11d70100 	bicsne	r0, r7, r0, lsl #2
     6e8:	00000003 	andeq	r0, r0, r3
     6ec:	00130e1b 	andseq	r0, r3, fp, lsl lr
     6f0:	01e60100 	mvneq	r0, r0, lsl #2
     6f4:	0000070f 	andeq	r0, r0, pc, lsl #14
     6f8:	000eb011 	andeq	fp, lr, r1, lsl r0
     6fc:	a2e60100 	rscge	r0, r6, #0, 2
     700:	11000006 	tstne	r0, r6
     704:	00000583 	andeq	r0, r0, r3, lsl #11
     708:	0311e601 	tsteq	r1, #1048576	; 0x100000
     70c:	1c000000 	stcne	0, cr0, [r0], {-0}
     710:	00000bba 			; <UNDEFINED> instruction: 0x00000bba
     714:	0101c601 	tsteq	r1, r1, lsl #12
     718:	00000737 	andeq	r0, r0, r7, lsr r7
     71c:	64757015 	ldrbtvs	r7, [r5], #-21	; 0xffffffeb
     720:	01c60100 	biceq	r0, r6, r0, lsl #2
     724:	000002fb 	strdeq	r0, [r0], -fp
     728:	0eb01e1d 	mrceq	14, 5, r1, cr0, cr13, {0}
     72c:	cd010000 	stcgt	0, cr0, [r1, #-0]
     730:	0006a201 	andeq	sl, r6, r1, lsl #4
     734:	1c000000 	stcne	0, cr0, [r0], {-0}
     738:	00001046 	andeq	r1, r0, r6, asr #32
     73c:	01012e01 	tsteq	r1, r1, lsl #28
     740:	0000075d 	andeq	r0, r0, sp, asr r7
     744:	000a3916 	andeq	r3, sl, r6, lsl r9
     748:	012e0100 			; <UNDEFINED> instruction: 0x012e0100
     74c:	00000311 	andeq	r0, r0, r1, lsl r3
     750:	000eb01e 	andeq	fp, lr, lr, lsl r0
     754:	01300100 	teqeq	r0, r0, lsl #2
     758:	000006a2 	andeq	r0, r0, r2, lsr #13
     75c:	12ee1c00 	rscne	r1, lr, #0, 24
     760:	35010000 	strcc	r0, [r1, #-0]
     764:	07830101 	streq	r0, [r3, r1, lsl #2]
     768:	39160000 	ldmdbcc	r6, {}	; <UNPREDICTABLE>
     76c:	0100000a 	tsteq	r0, sl
     770:	03110135 	tsteq	r1, #1073741837	; 0x4000000d
     774:	b01e0000 	andslt	r0, lr, r0
     778:	0100000e 	tsteq	r0, lr
     77c:	06a20137 			; <UNDEFINED> instruction: 0x06a20137
     780:	1c000000 	stcne	0, cr0, [r0], {-0}
     784:	000012bd 			; <UNDEFINED> instruction: 0x000012bd
     788:	01011301 	tsteq	r1, r1, lsl #6
     78c:	000007d9 	ldrdeq	r0, [r0], -r9
     790:	6e697015 	mcrvs	0, 3, r7, cr9, cr5, {0}
     794:	01130100 	tsteq	r3, r0, lsl #2
     798:	000002fb 	strdeq	r0, [r0], -fp
     79c:	00149416 	andseq	r9, r4, r6, lsl r4
     7a0:	01130100 	tsteq	r3, r0, lsl #2
     7a4:	000002fb 	strdeq	r0, [r0], -fp
     7a8:	000eb01e 	andeq	fp, lr, lr, lsl r0
     7ac:	01160100 	tsteq	r6, r0, lsl #2
     7b0:	000006a2 	andeq	r0, r0, r2, lsr #13
     7b4:	0004841e 	andeq	r8, r4, lr, lsl r4
     7b8:	01170100 	tsteq	r7, r0, lsl #2
     7bc:	000002fb 	strdeq	r0, [r0], -fp
     7c0:	000a391e 	andeq	r3, sl, lr, lsl r9
     7c4:	01180100 	tsteq	r8, r0, lsl #2
     7c8:	00000311 	andeq	r0, r0, r1, lsl r3
     7cc:	0005831e 	andeq	r8, r5, lr, lsl r3
     7d0:	01190100 	tsteq	r9, r0, lsl #2
     7d4:	00000311 	andeq	r0, r0, r1, lsl r3
     7d8:	0b691c00 	bleq	1a477e0 <__bss_end__+0x1a23714>
     7dc:	c6010000 	strgt	r0, [r1], -r0
     7e0:	07ff0102 	ldrbeq	r0, [pc, r2, lsl #2]!
     7e4:	71160000 	tstvc	r6, r0
     7e8:	01000006 	tsteq	r0, r6
     7ec:	030602c6 	movweq	r0, #25286	; 0x62c6
     7f0:	b01e0000 	andslt	r0, lr, r0
     7f4:	0100000e 	tsteq	r0, lr
     7f8:	06a202c8 	strteq	r0, [r2], r8, asr #5
     7fc:	1f000000 	svcne	0x00000000
     800:	00000a65 	andeq	r0, r0, r5, ror #20
     804:	02fb7901 	rscseq	r7, fp, #16384	; 0x4000
     808:	19010000 	stmdbne	r1, {}	; <UNPREDICTABLE>
     80c:	20000008 	andcs	r0, r0, r8
     810:	79010062 	stmdbvc	r1, {r1, r5, r6}
     814:	000002fb 	strdeq	r0, [r0], -fp
     818:	02b71c00 	adcseq	r1, r7, #0, 24
     81c:	c9010000 	stmdbgt	r1, {}	; <UNPREDICTABLE>
     820:	08330103 	ldmdaeq	r3!, {r0, r1, r8}
     824:	71160000 	tstvc	r6, r0
     828:	01000006 	tsteq	r0, r6
     82c:	030603c9 	movweq	r0, #25545	; 0x63c9
     830:	21000000 	mrscs	r0, (UNDEF: 0)
     834:	000005ae 	andeq	r0, r0, lr, lsr #11
     838:	0603b401 	streq	fp, [r3], -r1, lsl #8
     83c:	01000003 	tsteq	r0, r3
     840:	0000085d 	andeq	r0, r0, sp, asr r8
     844:	000bfd16 	andeq	pc, fp, r6, lsl sp	; <UNPREDICTABLE>
     848:	03b40100 			; <UNDEFINED> instruction: 0x03b40100
     84c:	00000311 	andeq	r0, r0, r1, lsl r3
     850:	0006711e 	andeq	r7, r6, lr, lsl r1
     854:	03b60100 			; <UNDEFINED> instruction: 0x03b60100
     858:	00000306 	andeq	r0, r0, r6, lsl #6
     85c:	05601c00 	strbeq	r1, [r0, #-3072]!	; 0xfffff400
     860:	42010000 	andmi	r0, r1, #0
     864:	088f0106 	stmeq	pc, {r1, r2, r8}	; <UNPREDICTABLE>
     868:	3f160000 	svccc	0x00160000
     86c:	01000012 	tsteq	r0, r2, lsl r0
     870:	031c0642 	tsteq	ip, #69206016	; 0x4200000
     874:	46160000 	ldrmi	r0, [r6], -r0
     878:	01000012 	tsteq	r0, r2, lsl r0
     87c:	031c0642 	tsteq	ip, #69206016	; 0x4200000
     880:	3b1e0000 	blcc	780888 <__bss_end__+0x75c7bc>
     884:	01000007 	tsteq	r0, r7
     888:	031c0644 	tsteq	ip, #68, 12	; 0x4400000
     88c:	1c000000 	stcne	0, cr0, [r0], {-0}
     890:	00000f82 	andeq	r0, r0, r2, lsl #31
     894:	01025e01 	tsteq	r2, r1, lsl #28
     898:	000008e7 	andeq	r0, r0, r7, ror #17
     89c:	6e697015 	mcrvs	0, 3, r7, cr9, cr5, {0}
     8a0:	025e0100 	subseq	r0, lr, #0, 2
     8a4:	000002fb 	strdeq	r0, [r0], -fp
     8a8:	64757015 	ldrbtvs	r7, [r5], #-21	; 0xffffffeb
     8ac:	025e0100 	subseq	r0, lr, #0, 2
     8b0:	000002fb 	strdeq	r0, [r0], -fp
     8b4:	00a31e1d 	adceq	r1, r3, sp, lsl lr
     8b8:	62010000 	andvs	r0, r1, #0
     8bc:	00006102 	andeq	r6, r0, r2, lsl #2
     8c0:	01da1e00 	bicseq	r1, sl, r0, lsl #28
     8c4:	63010000 	movwvs	r0, #4096	; 0x1000
     8c8:	00031102 	andeq	r1, r3, r2, lsl #2
     8cc:	11401e00 	cmpne	r0, r0, lsl #28
     8d0:	64010000 	strvs	r0, [r1], #-0
     8d4:	00031102 	andeq	r1, r3, r2, lsl #2
     8d8:	0eb01e00 	cdpeq	14, 11, cr1, cr0, cr0, {0}
     8dc:	6e010000 	cdpvs	0, 0, cr0, cr1, cr0, {0}
     8e0:	0006a202 	andeq	sl, r6, r2, lsl #4
     8e4:	1c000000 	stcne	0, cr0, [r0], {-0}
     8e8:	00001398 	muleq	r0, r8, r3
     8ec:	0101d501 	tsteq	r1, r1, lsl #10
     8f0:	00000926 	andeq	r0, r0, r6, lsr #18
     8f4:	6e697015 	mcrvs	0, 3, r7, cr9, cr5, {0}
     8f8:	01d50100 	bicseq	r0, r5, r0, lsl #2
     8fc:	000002fb 	strdeq	r0, [r0], -fp
     900:	006e6f15 	rsbeq	r6, lr, r5, lsl pc
     904:	fb01d501 	blx	75d12 <__bss_end__+0x51c46>
     908:	1d000002 	stcne	0, cr0, [r0, #-8]
     90c:	000eb01e 	andeq	fp, lr, lr, lsl r0
     910:	01de0100 	bicseq	r0, lr, r0, lsl #2
     914:	000006a2 	andeq	r0, r0, r2, lsr #13
     918:	0004841e 	andeq	r8, r4, lr, lsl r4
     91c:	01df0100 	bicseq	r0, pc, r0, lsl #2
     920:	000002fb 	strdeq	r0, [r0], -fp
     924:	4b1c0000 	blmi	70092c <__bss_end__+0x6dc860>
     928:	01000005 	tsteq	r0, r5
     92c:	4c0101fe 	stfmis	f0, [r1], {254}	; 0xfe
     930:	16000009 	strne	r0, [r0], -r9
     934:	0000071d 	andeq	r0, r0, sp, lsl r7
     938:	2501fe01 	strcs	pc, [r1, #-3585]	; 0xfffff1ff
     93c:	1e000000 	cdpne	0, 0, cr0, cr0, cr0, {0}
     940:	00001435 	andeq	r1, r0, r5, lsr r4
     944:	d9020001 	stmdble	r2, {r0}
     948:	00000000 	andeq	r0, r0, r0
     94c:	000d0422 	andeq	r0, sp, r2, lsr #8
     950:	06b00100 	ldrteq	r0, [r0], r0, lsl #2
     954:	00097201 	andeq	r7, r9, r1, lsl #4
     958:	0d081600 	stceq	6, cr1, [r8, #-0]
     95c:	b0010000 	andlt	r0, r1, r0
     960:	00097206 	andeq	r7, r9, r6, lsl #4
     964:	08a31600 	stmiaeq	r3!, {r9, sl, ip}
     968:	b0010000 	andlt	r0, r1, r0
     96c:	00003306 	andeq	r3, r0, r6, lsl #6
     970:	04060000 	streq	r0, [r6], #-0
     974:	000000a9 	andeq	r0, r0, r9, lsr #1
     978:	00027723 	andeq	r7, r2, r3, lsr #14
     97c:	074a0100 	strbeq	r0, [sl, -r0, lsl #2]
     980:	00000061 	andeq	r0, r0, r1, rrx
     984:	13be2401 			; <UNDEFINED> instruction: 0x13be2401
     988:	1a020000 	bne	80990 <__bss_end__+0x5c8c4>
     98c:	00003301 	andeq	r3, r0, r1, lsl #6
     990:	09c70300 	stmibeq	r7, {r8, r9}^
     994:	d6160000 	ldrle	r0, [r6], -r0
     998:	02000005 	andeq	r0, r0, #5
     99c:	09c7011a 	stmibeq	r7, {r1, r3, r4, r8}^
     9a0:	a1160000 	tstge	r6, r0
     9a4:	02000008 	andeq	r0, r0, #8
     9a8:	0033011a 	eorseq	r0, r3, sl, lsl r1
     9ac:	5f150000 	svcpl	0x00150000
     9b0:	02006e5f 	andeq	r6, r0, #1520	; 0x5f0
     9b4:	0033011a 	eorseq	r0, r3, sl, lsl r1
     9b8:	00160000 	andseq	r0, r6, r0
     9bc:	02000000 	andeq	r0, r0, #0
     9c0:	0607011b 			; <UNDEFINED> instruction: 0x0607011b
     9c4:	13000000 	movwne	r0, #0
     9c8:	000000a9 	andeq	r0, r0, r9, lsr #1
     9cc:	0010ad10 	andseq	sl, r0, r0, lsl sp
     9d0:	61290300 			; <UNDEFINED> instruction: 0x61290300
     9d4:	03000000 	movweq	r0, #0
     9d8:	000009f4 	strdeq	r0, [r0], -r4
     9dc:	00030111 	andeq	r0, r3, r1, lsl r1
     9e0:	f0290300 			; <UNDEFINED> instruction: 0xf0290300
     9e4:	11000002 	tstne	r0, r2
     9e8:	0000136e 	andeq	r1, r0, lr, ror #6
     9ec:	00612903 	rsbeq	r2, r1, r3, lsl #18
     9f0:	00120000 	andseq	r0, r2, r0
     9f4:	0006ad25 	andeq	sl, r6, r5, lsr #26
     9f8:	01127c00 	tsteq	r2, r0, lsl #24
     9fc:	00001600 	andeq	r1, r0, r0, lsl #12
     a00:	499c0100 	ldmibmi	ip, {r8}
     a04:	2600000a 	strcs	r0, [r0], -sl
     a08:	000006bd 			; <UNDEFINED> instruction: 0x000006bd
     a0c:	00000000 	andeq	r0, r0, r0
     a10:	00065e27 	andeq	r5, r6, r7, lsr #28
     a14:	01127c00 	tsteq	r2, r0, lsl #24
     a18:	00000000 	andeq	r0, r0, r0
     a1c:	26cb0100 	strbcs	r0, [fp], r0, lsl #2
     a20:	0000066e 	andeq	r0, r0, lr, ror #12
     a24:	0000002c 	andeq	r0, r0, ip, lsr #32
     a28:	01128e28 	tsteq	r2, r8, lsr #28
     a2c:	00466900 	subeq	r6, r6, r0, lsl #18
     a30:	50012900 	andpl	r2, r1, r0, lsl #18
     a34:	01293101 			; <UNDEFINED> instruction: 0x01293101
     a38:	0c030551 	cfstr32eq	mvfx0, [r3], {81}	; 0x51
     a3c:	2900012f 	stmdbcs	r0, {r0, r1, r2, r3, r5, r8}
     a40:	f3035201 	vhsub.u8	d5, d3, d1
     a44:	00005001 	andeq	r5, r0, r1
     a48:	06ec2500 	strbteq	r2, [ip], r0, lsl #10
     a4c:	12940000 	addsne	r0, r4, #0
     a50:	00120001 	andseq	r0, r2, r1
     a54:	9c010000 	stcls	0, cr0, [r1], {-0}
     a58:	00000ab1 			; <UNDEFINED> instruction: 0x00000ab1
     a5c:	0006f826 	andeq	pc, r6, r6, lsr #16
     a60:	00004400 	andeq	r4, r0, r0, lsl #8
     a64:	07032600 	streq	r2, [r3, -r0, lsl #12]
     a68:	00700000 	rsbseq	r0, r0, r0
     a6c:	5e2a0000 	cdppl	0, 2, cr0, cr10, cr0, {0}
     a70:	94000006 	strls	r0, [r0], #-6
     a74:	12000112 	andne	r0, r0, #-2147483644	; 0x80000004
     a78:	01000000 	mrseq	r0, (UNDEF: 0)
     a7c:	066e2bea 	strbteq	r2, [lr], -sl, ror #23
     a80:	03060000 	movweq	r0, #24576	; 0x6000
     a84:	00012f2c 	andeq	r2, r1, ip, lsr #30
     a88:	12a62c9f 	adcne	r2, r6, #40704	; 0x9f00
     a8c:	46690001 	strbtmi	r0, [r9], -r1
     a90:	01290000 			; <UNDEFINED> instruction: 0x01290000
     a94:	29310150 	ldmdbcs	r1!, {r4, r6, r8}
     a98:	03055101 	movweq	r5, #20737	; 0x5101
     a9c:	00012f2c 	andeq	r2, r1, ip, lsr #30
     aa0:	03520129 	cmpeq	r2, #1073741834	; 0x4000000a
     aa4:	295001f3 	ldmdbcs	r0, {r0, r1, r4, r5, r6, r7, r8}^
     aa8:	f3035301 	vcgt.u8	d5, d3, d1
     aac:	00005101 	andeq	r5, r0, r1, lsl #2
     ab0:	09782500 	ldmdbeq	r8!, {r8, sl, sp}^
     ab4:	12a80000 	adcne	r0, r8, #0
     ab8:	00320001 	eorseq	r0, r2, r1
     abc:	9c010000 	stcls	0, cr0, [r1], {-0}
     ac0:	00000af1 	strdeq	r0, [r0], -r1
     ac4:	00094c2d 	andeq	r4, r9, sp, lsr #24
     ac8:	0112aa00 	tsteq	r2, r0, lsl #20
     acc:	00001400 	andeq	r1, r0, r0, lsl #8
     ad0:	074e0100 	strbeq	r0, [lr, -r0, lsl #2]
     ad4:	00096526 	andeq	r6, r9, r6, lsr #10
     ad8:	00009c00 	andeq	r9, r0, r0, lsl #24
     adc:	09592600 	ldmdbeq	r9, {r9, sl, sp}^
     ae0:	00b30000 	adcseq	r0, r3, r0
     ae4:	be2e0000 	cdplt	0, 2, cr0, cr14, cr0, {0}
     ae8:	74000112 	strvc	r0, [r0], #-274	; 0xfffffeee
     aec:	00000046 	andeq	r0, r0, r6, asr #32
     af0:	06112500 	ldreq	r2, [r1], -r0, lsl #10
     af4:	12dc0000 	sbcsne	r0, ip, #0
     af8:	00540001 	subseq	r0, r4, r1
     afc:	9c010000 	stcls	0, cr0, [r1], {-0}
     b00:	00000c0d 	andeq	r0, r0, sp, lsl #24
     b04:	00062e26 	andeq	r2, r6, r6, lsr #28
     b08:	0000cb00 	andeq	ip, r0, r0, lsl #22
     b0c:	063a2600 	ldrteq	r2, [sl], -r0, lsl #12
     b10:	00f70000 	rscseq	r0, r7, r0
     b14:	45260000 	strmi	r0, [r6, #-0]!
     b18:	24000006 	strcs	r0, [r0], #-6
     b1c:	2f000001 	svccs	0x00000001
     b20:	00000651 	andeq	r0, r0, r1, asr r6
     b24:	00000151 	andeq	r0, r0, r1, asr r1
     b28:	0006222b 	andeq	r2, r6, fp, lsr #4
     b2c:	58030600 	stmdapl	r3, {r9, sl}
     b30:	9f00012f 	svcls	0x0000012f
     b34:	0112fc30 	tsteq	r2, r0, lsr ip	; <UNPREDICTABLE>
     b38:	00002e00 	andeq	r2, r0, r0, lsl #28
     b3c:	000bdc00 	andeq	sp, fp, r0, lsl #24
     b40:	06222b00 	strteq	r2, [r2], -r0, lsl #22
     b44:	03060000 	movweq	r0, #24576	; 0x6000
     b48:	00012f58 	andeq	r2, r1, r8, asr pc
     b4c:	062e2b9f 			; <UNDEFINED> instruction: 0x062e2b9f
     b50:	f3040000 	vhadd.u8	d0, d4, d0
     b54:	2b9f5001 	blcs	fe7d4b60 <__bss_end__+0xfe7b0a94>
     b58:	0000063a 	andeq	r0, r0, sl, lsr r6
     b5c:	5101f304 	tstpl	r1, r4, lsl #6	; <UNPREDICTABLE>
     b60:	06452b9f 			; <UNDEFINED> instruction: 0x06452b9f
     b64:	f3040000 	vhadd.u8	d0, d4, d0
     b68:	319f5201 	orrscc	r5, pc, r1, lsl #4
     b6c:	000112fc 	strdeq	r1, [r1], -ip
     b70:	0000002e 	andeq	r0, r0, lr, lsr #32
     b74:	00065132 	andeq	r5, r6, r2, lsr r1
     b78:	05d93300 	ldrbeq	r3, [r9, #768]	; 0x300
     b7c:	13100000 	tstne	r0, #0
     b80:	001a0001 	andseq	r0, sl, r1
     b84:	ac010000 	stcge	0, cr0, [r1], {-0}
     b88:	000bc806 	andeq	ip, fp, r6, lsl #16
     b8c:	05f42b00 	ldrbeq	r2, [r4, #2816]!	; 0xb00
     b90:	03060000 	movweq	r0, #24576	; 0x6000
     b94:	00012f60 	andeq	r2, r1, r0, ror #30
     b98:	05e92b9f 	strbeq	r2, [r9, #2975]!	; 0xb9f
     b9c:	55010000 	strpl	r0, [r1, #-0]
     ba0:	01132a28 	tsteq	r3, r8, lsr #20
     ba4:	00467f00 	subeq	r7, r6, r0, lsl #30
     ba8:	50012900 	andpl	r2, r1, r0, lsl #18
     bac:	29007502 	stmdbcs	r0, {r1, r8, sl, ip, sp, lr}
     bb0:	31015101 	tstcc	r1, r1, lsl #2
     bb4:	05520129 	ldrbeq	r0, [r2, #-297]	; 0xfffffed7
     bb8:	012f6003 			; <UNDEFINED> instruction: 0x012f6003
     bbc:	53012900 	movwpl	r2, #6400	; 0x1900
     bc0:	2f580305 	svccs	0x00580305
     bc4:	00000001 	andeq	r0, r0, r1
     bc8:	01130a2e 	tsteq	r3, lr, lsr #20
     bcc:	00468a00 	subeq	r8, r6, r0, lsl #20
     bd0:	13102e00 	tstne	r0, #0, 28
     bd4:	46950001 	ldrmi	r0, [r5], r1
     bd8:	00000000 	andeq	r0, r0, r0
     bdc:	0112f028 	tsteq	r2, r8, lsr #32	; <UNPREDICTABLE>
     be0:	0046a100 	subeq	sl, r6, r0, lsl #2
     be4:	50012900 	andpl	r2, r1, r0, lsl #18
     be8:	01293001 			; <UNDEFINED> instruction: 0x01293001
     bec:	01f30351 	mvnseq	r0, r1, asr r3
     bf0:	52012950 	andpl	r2, r1, #80, 18	; 0x140000
     bf4:	01293301 			; <UNDEFINED> instruction: 0x01293301
     bf8:	29310153 	ldmdbcs	r1!, {r0, r1, r4, r6, r8}
     bfc:	03007d02 	movweq	r7, #3330	; 0xd02
     c00:	295101f3 	ldmdbcs	r1, {r0, r1, r4, r5, r6, r7, r8}^
     c04:	03047d02 	movweq	r7, #19714	; 0x4d02
     c08:	005201f3 	ldrsheq	r0, [r2], #-19	; 0xffffffed
     c0c:	0f5a3400 	svceq	0x005a3400
     c10:	86010000 	strhi	r0, [r1], -r0
     c14:	00000c36 	andeq	r0, r0, r6, lsr ip
     c18:	00011330 	andeq	r1, r1, r0, lsr r3
     c1c:	00000086 	andeq	r0, r0, r6, lsl #1
     c20:	0c369c01 	ldceq	12, cr9, [r6], #-4
     c24:	62350000 	eorsvs	r0, r5, #0
     c28:	0100000f 	tsteq	r0, pc
     c2c:	0002fb86 	andeq	pc, r2, r6, lsl #23
     c30:	00016f00 	andeq	r6, r1, r0, lsl #30
     c34:	04060000 	streq	r0, [r6], #-0
     c38:	00000311 	andeq	r0, r0, r1, lsl r3
     c3c:	00028536 	andeq	r8, r2, r6, lsr r5
     c40:	b8a30100 	stmialt	r3!, {r8}
     c44:	0c000113 	stfeqs	f0, [r0], {19}
     c48:	01000000 	mrseq	r0, (UNDEF: 0)
     c4c:	000c5d9c 	muleq	ip, ip, sp
     c50:	00643700 	rsbeq	r3, r4, r0, lsl #14
     c54:	02fba301 	rscseq	sl, fp, #67108864	; 0x4000000
     c58:	50010000 	andpl	r0, r1, r0
     c5c:	12a33800 	adcne	r3, r3, #0, 16
     c60:	a8010000 	stmdage	r1, {}	; <UNPREDICTABLE>
     c64:	00000025 	andeq	r0, r0, r5, lsr #32
     c68:	000113c4 	andeq	r1, r1, r4, asr #7
     c6c:	00000006 	andeq	r0, r0, r6
     c70:	7b259c01 	blvc	967c7c <__bss_end__+0x943bb0>
     c74:	cc000006 	stcgt	0, cr0, [r0], {6}
     c78:	2e000113 	mcrcs	1, 0, r0, cr0, cr3, {0}
     c7c:	01000000 	mrseq	r0, (UNDEF: 0)
     c80:	000cf29c 	muleq	ip, ip, r2
     c84:	068b2600 	streq	r2, [fp], r0, lsl #12
     c88:	01900000 	orrseq	r0, r0, r0
     c8c:	962f0000 	strtls	r0, [pc], -r0
     c90:	d5000006 	strle	r0, [r0, #-6]
     c94:	31000001 	tstcc	r0, r1
     c98:	000113e8 	andeq	r1, r1, r8, ror #7
     c9c:	00000012 	andeq	r0, r0, r2, lsl r0
     ca0:	00068b26 	andeq	r8, r6, r6, lsr #22
     ca4:	0001e800 	andeq	lr, r1, r0, lsl #16
     ca8:	13e83100 	mvnne	r3, #0, 2
     cac:	00120001 	andseq	r0, r2, r1
     cb0:	96320000 	ldrtls	r0, [r2], -r0
     cb4:	2a000006 	bcs	cd4 <_init-0xfb08>
     cb8:	0000065e 	andeq	r0, r0, lr, asr r6
     cbc:	000113e8 	andeq	r1, r1, r8, ror #7
     cc0:	00000012 	andeq	r0, r0, r2, lsl r0
     cc4:	6e26b501 	cfsh64vs	mvdx11, mvdx6, #1
     cc8:	09000006 	stmdbeq	r0, {r1, r2}
     ccc:	28000002 	stmdacs	r0, {r1}
     cd0:	000113f6 	strdeq	r1, [r1], -r6
     cd4:	00004669 	andeq	r4, r0, r9, ror #12
     cd8:	01500129 	cmpeq	r0, r9, lsr #2
     cdc:	51012931 	tstpl	r1, r1, lsr r9
     ce0:	2f840305 	svccs	0x00840305
     ce4:	01290001 			; <UNDEFINED> instruction: 0x01290001
     ce8:	01f30352 	mvnseq	r0, r2, asr r3
     cec:	00000050 	andeq	r0, r0, r0, asr r0
     cf0:	ad250000 	stcge	0, cr0, [r5, #-0]
     cf4:	fc000006 	stc2	0, cr0, [r0], {6}
     cf8:	12000113 	andne	r0, r0, #-1073741820	; 0xc0000004
     cfc:	01000000 	mrseq	r0, (UNDEF: 0)
     d00:	000d189c 	muleq	sp, ip, r8
     d04:	06bd2600 	ldrteq	r2, [sp], r0, lsl #12
     d08:	02210000 	eoreq	r0, r1, #0
     d0c:	0e390000 	cdpeq	0, 3, cr0, cr9, cr0, {0}
     d10:	f4000114 	vst4.8	{d0,d2,d4,d6}, [r0 :64], r4
     d14:	00000009 	andeq	r0, r0, r9
     d18:	0006c925 	andeq	ip, r6, r5, lsr #18
     d1c:	01141000 	tsteq	r4, r0
     d20:	00003400 	andeq	r3, r0, r0, lsl #8
     d24:	989c0100 	ldmls	ip, {r8}
     d28:	2600000d 	strcs	r0, [r0], -sp
     d2c:	000006d5 	ldrdeq	r0, [r0], -r5
     d30:	0000025b 	andeq	r0, r0, fp, asr r2
     d34:	0006e026 	andeq	lr, r6, r6, lsr #32
     d38:	00028700 	andeq	r8, r2, r0, lsl #14
     d3c:	00183a00 	andseq	r3, r8, r0, lsl #20
     d40:	e0260000 	eor	r0, r6, r0
     d44:	b3000006 	movwlt	r0, #6
     d48:	26000002 	strcs	r0, [r0], -r2
     d4c:	000006d5 	ldrdeq	r0, [r0], -r5
     d50:	000002df 	ldrdeq	r0, [r0], -pc	; <UNPREDICTABLE>
     d54:	00065e27 	andeq	r5, r6, r7, lsr #28
     d58:	01142e00 	tsteq	r4, r0, lsl #28
     d5c:	00003000 	andeq	r3, r0, r0
     d60:	2bdb0100 	blcs	ff6c1168 <__bss_end__+0xff69d09c>
     d64:	0000066e 	andeq	r0, r0, lr, ror #12
     d68:	2fa40306 	svccs	0x00a40306
     d6c:	2c9f0001 	ldccs	0, cr0, [pc], {1}
     d70:	00011444 	andeq	r1, r1, r4, asr #8
     d74:	00004669 	andeq	r4, r0, r9, ror #12
     d78:	01500129 	cmpeq	r0, r9, lsr #2
     d7c:	51012931 	tstpl	r1, r1, lsr r9
     d80:	2fa40305 	svccs	0x00a40305
     d84:	01290001 			; <UNDEFINED> instruction: 0x01290001
     d88:	01f30352 	mvnseq	r0, r2, asr r3
     d8c:	53012950 	movwpl	r2, #6480	; 0x1950
     d90:	5101f303 	tstpl	r1, r3, lsl #6	; <UNPREDICTABLE>
     d94:	00000000 	andeq	r0, r0, r0
     d98:	00070f25 	andeq	r0, r7, r5, lsr #30
     d9c:	01144400 	tsteq	r4, r0, lsl #8
     da0:	00001200 	andeq	r1, r0, r0, lsl #4
     da4:	d19c0100 	orrsle	r0, ip, r0, lsl #2
     da8:	2600000d 	strcs	r0, [r0], -sp
     dac:	0000071c 	andeq	r0, r0, ip, lsl r7
     db0:	0000030b 	andeq	r0, r0, fp, lsl #6
     db4:	01144431 	tsteq	r4, r1, lsr r4
     db8:	00001200 	andeq	r1, r0, r0, lsl #4
     dbc:	07292f00 	streq	r2, [r9, -r0, lsl #30]!
     dc0:	032c0000 			; <UNDEFINED> instruction: 0x032c0000
     dc4:	56390000 	ldrtpl	r0, [r9], -r0
     dc8:	c9000114 	stmdbgt	r0, {r2, r4, r8}
     dcc:	00000006 	andeq	r0, r0, r6
     dd0:	06ec2500 	strbteq	r2, [ip], r0, lsl #10
     dd4:	14580000 	ldrbne	r0, [r8], #-0
     dd8:	001a0001 	andseq	r0, sl, r1
     ddc:	9c010000 	stcls	0, cr0, [r1], {-0}
     de0:	00000e00 	andeq	r0, r0, r0, lsl #28
     de4:	0006f826 	andeq	pc, r6, r6, lsr #16
     de8:	00035300 	andeq	r5, r3, r0, lsl #6
     dec:	07032600 	streq	r2, [r3, -r0, lsl #12]
     df0:	03740000 	cmneq	r4, #0
     df4:	72390000 	eorsvc	r0, r9, #0
     df8:	49000114 	stmdbmi	r0, {r2, r4, r8}
     dfc:	0000000a 	andeq	r0, r0, sl
     e00:	0001c936 	andeq	ip, r1, r6, lsr r9
     e04:	74f60100 	ldrbtvc	r0, [r6], #256	; 0x100
     e08:	1e000114 	mcrne	1, 0, r0, cr0, cr4, {0}
     e0c:	01000000 	mrseq	r0, (UNDEF: 0)
     e10:	000e759c 	muleq	lr, ip, r5
     e14:	0eb03500 	cdpeq	5, 11, cr3, cr0, cr0, {0}
     e18:	f6010000 			; <UNDEFINED> instruction: 0xf6010000
     e1c:	000006a2 	andeq	r0, r0, r2, lsr #13
     e20:	00000395 	muleq	r0, r5, r3
     e24:	00058335 	andeq	r8, r5, r5, lsr r3
     e28:	11f60100 	mvnsne	r0, r0, lsl #2
     e2c:	cc000003 	stcgt	0, cr0, [r0], {3}
     e30:	35000003 	strcc	r0, [r0, #-3]
     e34:	00000a39 	andeq	r0, r0, r9, lsr sl
     e38:	0311f601 	tsteq	r1, #1048576	; 0x100000	; <UNPREDICTABLE>
     e3c:	03f80000 	mvnseq	r0, #0
     e40:	763b0000 	ldrtvc	r0, [fp], -r0
     e44:	11f80100 	mvnsne	r0, r0, lsl #2
     e48:	24000003 	strcs	r0, [r0], #-3
     e4c:	3c000004 	stccc	0, cr0, [r0], {4}
     e50:	00011480 	andeq	r1, r1, r0, lsl #9
     e54:	0000067b 	andeq	r0, r0, fp, ror r6
     e58:	00000e63 	andeq	r0, r0, r3, ror #28
     e5c:	02500129 	subseq	r0, r0, #1073741834	; 0x4000000a
     e60:	2c000076 	stccs	0, cr0, [r0], {118}	; 0x76
     e64:	00011492 	muleq	r1, r2, r4
     e68:	000006c9 	andeq	r0, r0, r9, asr #13
     e6c:	03500129 	cmpeq	r0, #1073741834	; 0x4000000a
     e70:	005001f3 	ldrsheq	r0, [r0], #-19	; 0xffffffed
     e74:	07832500 	streq	r2, [r3, r0, lsl #10]
     e78:	14940000 	ldrne	r0, [r4], #0
     e7c:	00380001 	eorseq	r0, r8, r1
     e80:	9c010000 	stcls	0, cr0, [r1], {-0}
     e84:	00000ec8 	andeq	r0, r0, r8, asr #29
     e88:	00079026 	andeq	r9, r7, r6, lsr #32
     e8c:	00046200 	andeq	r6, r4, r0, lsl #4
     e90:	079c2600 	ldreq	r2, [ip, r0, lsl #12]
     e94:	04830000 	streq	r0, [r3], #0
     e98:	a82f0000 	stmdage	pc!, {}	; <UNPREDICTABLE>
     e9c:	a4000007 	strge	r0, [r0], #-7
     ea0:	2f000004 	svccs	0x00000004
     ea4:	000007b4 			; <UNDEFINED> instruction: 0x000007b4
     ea8:	000004cc 	andeq	r0, r0, ip, asr #9
     eac:	0007c02f 	andeq	ip, r7, pc, lsr #32
     eb0:	0004f700 	andeq	pc, r4, r0, lsl #14
     eb4:	07cc2f00 	strbeq	r2, [ip, r0, lsl #30]
     eb8:	05190000 	ldreq	r0, [r9, #-0]
     ebc:	cc390000 	ldcgt	0, cr0, [r9], #-0
     ec0:	00000114 	andeq	r0, r0, r4, lsl r1
     ec4:	0000000e 	andeq	r0, r0, lr
     ec8:	000e593d 	andeq	r5, lr, sp, lsr r9
     ecc:	011e0100 	tsteq	lr, r0, lsl #2
     ed0:	000114cc 	andeq	r1, r1, ip, asr #9
     ed4:	00000020 	andeq	r0, r0, r0, lsr #32
     ed8:	0f189c01 	svceq	0x00189c01
     edc:	703e0000 	eorsvc	r0, lr, r0
     ee0:	01006e69 	tsteq	r0, r9, ror #28
     ee4:	02fb011e 	rscseq	r0, fp, #-2147483641	; 0x80000007
     ee8:	05480000 	strbeq	r0, [r8, #-0]
     eec:	b03f0000 	eorslt	r0, pc, r0
     ef0:	0100000e 	tsteq	r0, lr
     ef4:	06a20120 	strteq	r0, [r2], r0, lsr #2
     ef8:	05690000 	strbeq	r0, [r9, #-0]!
     efc:	843f0000 	ldrthi	r0, [pc], #-0	; f04 <_init-0xf8d8>
     f00:	01000004 	tsteq	r0, r4
     f04:	02fb0121 	rscseq	r0, fp, #1073741832	; 0x40000008
     f08:	05ac0000 	streq	r0, [ip, #0]!
     f0c:	ec390000 	ldc	0, cr0, [r9], #-0
     f10:	c9000114 	stmdbgt	r0, {r2, r4, r8}
     f14:	00000006 	andeq	r0, r0, r6
     f18:	000e733d 	andeq	r7, lr, sp, lsr r3
     f1c:	01260100 			; <UNDEFINED> instruction: 0x01260100
     f20:	000114ec 	andeq	r1, r1, ip, ror #9
     f24:	00000020 	andeq	r0, r0, r0, lsr #32
     f28:	0f689c01 	svceq	0x00689c01
     f2c:	703e0000 	eorsvc	r0, lr, r0
     f30:	01006e69 	tsteq	r0, r9, ror #28
     f34:	02fb0126 	rscseq	r0, fp, #-2147483639	; 0x80000009
     f38:	05d30000 	ldrbeq	r0, [r3]
     f3c:	b03f0000 	eorslt	r0, pc, r0
     f40:	0100000e 	tsteq	r0, lr
     f44:	06a20128 	strteq	r0, [r2], r8, lsr #2
     f48:	05f40000 	ldrbeq	r0, [r4, #0]!
     f4c:	843f0000 	ldrthi	r0, [pc], #-0	; f54 <_init-0xf888>
     f50:	01000004 	tsteq	r0, r4
     f54:	02fb0129 	rscseq	r0, fp, #1073741834	; 0x4000000a
     f58:	06370000 	ldrteq	r0, [r7], -r0
     f5c:	0c390000 	ldceq	0, cr0, [r9], #-0
     f60:	c9000115 	stmdbgt	r0, {r0, r2, r4, r8}
     f64:	00000006 	andeq	r0, r0, r6
     f68:	00073725 	andeq	r3, r7, r5, lsr #14
     f6c:	01150c00 	tsteq	r5, r0, lsl #24
     f70:	00001200 	andeq	r1, r0, r0, lsl #4
     f74:	9f9c0100 	svcls	0x009c0100
     f78:	2600000f 	strcs	r0, [r0], -pc
     f7c:	00000744 	andeq	r0, r0, r4, asr #14
     f80:	0000065e 	andeq	r0, r0, lr, asr r6
     f84:	0007502f 	andeq	r5, r7, pc, lsr #32
     f88:	00068a00 	andeq	r8, r6, r0, lsl #20
     f8c:	151e2c00 	ldrne	r2, [lr, #-3072]	; 0xfffff400
     f90:	06c90001 	strbeq	r0, [r9], r1
     f94:	01290000 			; <UNDEFINED> instruction: 0x01290000
     f98:	01f30351 	mvnseq	r0, r1, asr r3
     f9c:	25000050 	strcs	r0, [r0, #-80]	; 0xffffffb0
     fa0:	0000075d 	andeq	r0, r0, sp, asr r7
     fa4:	00011520 	andeq	r1, r1, r0, lsr #10
     fa8:	00000012 	andeq	r0, r0, r2, lsl r0
     fac:	0fd69c01 	svceq	0x00d69c01
     fb0:	6a260000 	bvs	980fb8 <__bss_end__+0x95ceec>
     fb4:	b0000007 	andlt	r0, r0, r7
     fb8:	2f000006 	svccs	0x00000006
     fbc:	00000776 	andeq	r0, r0, r6, ror r7
     fc0:	000006dc 	ldrdeq	r0, [r0], -ip
     fc4:	0115322c 	tsteq	r5, ip, lsr #4
     fc8:	0006c900 	andeq	ip, r6, r0, lsl #18
     fcc:	51012900 	tstpl	r1, r0, lsl #18
     fd0:	5001f303 	andpl	pc, r1, r3, lsl #6
     fd4:	2f400000 	svccs	0x00400000
     fd8:	01000006 	tsteq	r0, r6
     fdc:	02fb013c 	rscseq	r0, fp, #60, 2
     fe0:	15340000 	ldrne	r0, [r4, #-0]!
     fe4:	002e0001 	eoreq	r0, lr, r1
     fe8:	9c010000 	stcls	0, cr0, [r1], {-0}
     fec:	0000103a 	andeq	r1, r0, sl, lsr r0
     ff0:	6e69703e 	mcrvs	0, 3, r7, cr9, cr14, {1}
     ff4:	013c0100 	teqeq	ip, r0, lsl #2
     ff8:	000002fb 	strdeq	r0, [r0], -fp
     ffc:	00000702 	andeq	r0, r0, r2, lsl #14
    1000:	000eb03f 	andeq	fp, lr, pc, lsr r0
    1004:	013e0100 	teqeq	lr, r0, lsl #2
    1008:	000006a2 	andeq	r0, r0, r2, lsr #13
    100c:	00000723 	andeq	r0, r0, r3, lsr #14
    1010:	0004843f 	andeq	r8, r4, pc, lsr r4
    1014:	013f0100 	teqeq	pc, r0, lsl #2
    1018:	000002fb 	strdeq	r0, [r0], -fp
    101c:	00000766 	andeq	r0, r0, r6, ror #14
    1020:	0005833f 	andeq	r8, r5, pc, lsr r3
    1024:	01400100 	mrseq	r0, (UNDEF: 80)
    1028:	00000311 	andeq	r0, r0, r1, lsl r3
    102c:	0000078d 	andeq	r0, r0, sp, lsl #15
    1030:	0115522e 	tsteq	r5, lr, lsr #4
    1034:	00067b00 	andeq	r7, r6, r0, lsl #22
    1038:	58400000 	stmdapl	r0, {}^	; <UNPREDICTABLE>
    103c:	01000012 	tsteq	r0, r2, lsl r0
    1040:	02fb0147 	rscseq	r0, fp, #-1073741807	; 0xc0000011
    1044:	15640000 	strbne	r0, [r4, #-0]!
    1048:	002e0001 	eoreq	r0, lr, r1
    104c:	9c010000 	stcls	0, cr0, [r1], {-0}
    1050:	0000109e 	muleq	r0, lr, r0
    1054:	6e69703e 	mcrvs	0, 3, r7, cr9, cr14, {1}
    1058:	01470100 	mrseq	r0, (UNDEF: 87)
    105c:	000002fb 	strdeq	r0, [r0], -fp
    1060:	000007a0 	andeq	r0, r0, r0, lsr #15
    1064:	000eb03f 	andeq	fp, lr, pc, lsr r0
    1068:	01490100 	mrseq	r0, (UNDEF: 89)
    106c:	000006a2 	andeq	r0, r0, r2, lsr #13
    1070:	000007c1 	andeq	r0, r0, r1, asr #15
    1074:	0004843f 	andeq	r8, r4, pc, lsr r4
    1078:	014a0100 	mrseq	r0, (UNDEF: 90)
    107c:	000002fb 	strdeq	r0, [r0], -fp
    1080:	00000804 	andeq	r0, r0, r4, lsl #16
    1084:	0005833f 	andeq	r8, r5, pc, lsr r3
    1088:	014b0100 	mrseq	r0, (UNDEF: 91)
    108c:	00000311 	andeq	r0, r0, r1, lsl r3
    1090:	0000082b 	andeq	r0, r0, fp, lsr #16
    1094:	0115822e 	tsteq	r5, lr, lsr #4
    1098:	00067b00 	andeq	r7, r6, r0, lsl #22
    109c:	3d400000 	stclcc	0, cr0, [r0, #-0]
    10a0:	01000014 	tsteq	r0, r4, lsl r0
    10a4:	0311014f 	tsteq	r1, #-1073741805	; 0xc0000013
    10a8:	15940000 	ldrne	r0, [r4]
    10ac:	00180001 	andseq	r0, r8, r1
    10b0:	9c010000 	stcls	0, cr0, [r1], {-0}
    10b4:	000010f2 	strdeq	r1, [r0], -r2
    10b8:	000a3941 	andeq	r3, sl, r1, asr #18
    10bc:	014f0100 	mrseq	r0, (UNDEF: 95)
    10c0:	00000311 	andeq	r0, r0, r1, lsl r3
    10c4:	0000083e 	andeq	r0, r0, lr, lsr r8
    10c8:	000eb03f 	andeq	fp, lr, pc, lsr r0
    10cc:	01510100 	cmpeq	r1, r0, lsl #2
    10d0:	000006a2 	andeq	r0, r0, r2, lsr #13
    10d4:	0000085c 	andeq	r0, r0, ip, asr r8
    10d8:	0005833f 	andeq	r8, r5, pc, lsr r3
    10dc:	01520100 	cmpeq	r2, r0, lsl #2
    10e0:	00000311 	andeq	r0, r0, r1, lsl r3
    10e4:	00000882 	andeq	r0, r0, r2, lsl #17
    10e8:	0115a82e 	tsteq	r5, lr, lsr #16
    10ec:	00067b00 	andeq	r7, r6, r0, lsl #22
    10f0:	203d0000 	eorscs	r0, sp, r0
    10f4:	01000014 	tsteq	r0, r4, lsl r0
    10f8:	15ac0157 	strne	r0, [ip, #343]!	; 0x157
    10fc:	00200001 	eoreq	r0, r0, r1
    1100:	9c010000 	stcls	0, cr0, [r1], {-0}
    1104:	00001152 	andeq	r1, r0, r2, asr r1
    1108:	6e69703e 	mcrvs	0, 3, r7, cr9, cr14, {1}
    110c:	01570100 	cmpeq	r7, r0, lsl #2
    1110:	000002fb 	strdeq	r0, [r0], -fp
    1114:	00000895 	muleq	r0, r5, r8
    1118:	000eb03f 	andeq	fp, lr, pc, lsr r0
    111c:	01590100 	cmpeq	r9, r0, lsl #2
    1120:	000006a2 	andeq	r0, r0, r2, lsr #13
    1124:	000008b6 			; <UNDEFINED> instruction: 0x000008b6
    1128:	0004843f 	andeq	r8, r4, pc, lsr r4
    112c:	015a0100 	cmpeq	sl, r0, lsl #2
    1130:	000002fb 	strdeq	r0, [r0], -fp
    1134:	000008f9 	strdeq	r0, [r0], -r9
    1138:	0005833f 	andeq	r8, r5, pc, lsr r3
    113c:	015b0100 	cmpeq	fp, r0, lsl #2
    1140:	00000311 	andeq	r0, r0, r1, lsl r3
    1144:	00000920 	andeq	r0, r0, r0, lsr #18
    1148:	0115cc39 	tsteq	r5, r9, lsr ip
    114c:	0006c900 	andeq	ip, r6, r0, lsl #18
    1150:	9d3d0000 	ldcls	0, cr0, [sp, #-0]
    1154:	01000004 	tsteq	r0, r4
    1158:	15cc015f 	strbne	r0, [ip, #351]	; 0x15f
    115c:	00120001 	andseq	r0, r2, r1
    1160:	9c010000 	stcls	0, cr0, [r1], {-0}
    1164:	0000119a 	muleq	r0, sl, r1
    1168:	000a3941 	andeq	r3, sl, r1, asr #18
    116c:	015f0100 	cmpeq	pc, r0, lsl #2
    1170:	00000311 	andeq	r0, r0, r1, lsl r3
    1174:	00000951 	andeq	r0, r0, r1, asr r9
    1178:	000eb03f 	andeq	fp, lr, pc, lsr r0
    117c:	01610100 	cmneq	r1, r0, lsl #2
    1180:	000006a2 	andeq	r0, r0, r2, lsr #13
    1184:	0000097d 	andeq	r0, r0, sp, ror r9
    1188:	0115de2c 	tsteq	r5, ip, lsr #28
    118c:	0006c900 	andeq	ip, r6, r0, lsl #18
    1190:	51012900 	tstpl	r1, r0, lsl #18
    1194:	5001f303 	andpl	pc, r1, r3, lsl #6
    1198:	ce3d0000 	cdpgt	0, 3, cr0, cr13, cr0, {0}
    119c:	01000004 	tsteq	r0, r4
    11a0:	15e00166 	strbne	r0, [r0, #358]!	; 0x166
    11a4:	00200001 	eoreq	r0, r0, r1
    11a8:	9c010000 	stcls	0, cr0, [r1], {-0}
    11ac:	000011fa 	strdeq	r1, [r0], -sl
    11b0:	6e69703e 	mcrvs	0, 3, r7, cr9, cr14, {1}
    11b4:	01660100 	cmneq	r6, r0, lsl #2
    11b8:	000002fb 	strdeq	r0, [r0], -fp
    11bc:	000009a3 	andeq	r0, r0, r3, lsr #19
    11c0:	000eb03f 	andeq	fp, lr, pc, lsr r0
    11c4:	01680100 	cmneq	r8, r0, lsl #2
    11c8:	000006a2 	andeq	r0, r0, r2, lsr #13
    11cc:	000009c4 	andeq	r0, r0, r4, asr #19
    11d0:	0004843f 	andeq	r8, r4, pc, lsr r4
    11d4:	01690100 	cmneq	r9, r0, lsl #2
    11d8:	000002fb 	strdeq	r0, [r0], -fp
    11dc:	00000a07 	andeq	r0, r0, r7, lsl #20
    11e0:	0005833f 	andeq	r8, r5, pc, lsr r3
    11e4:	016a0100 	cmneq	sl, r0, lsl #2
    11e8:	00000311 	andeq	r0, r0, r1, lsl r3
    11ec:	00000a2e 	andeq	r0, r0, lr, lsr #20
    11f0:	01160039 	tsteq	r6, r9, lsr r0
    11f4:	000e0000 	andeq	r0, lr, r0
    11f8:	5d3d0000 	ldcpl	0, cr0, [sp, #-0]
    11fc:	01000010 	tsteq	r0, r0, lsl r0
    1200:	1600016d 	strne	r0, [r0], -sp, ror #2
    1204:	00220001 	eoreq	r0, r2, r1
    1208:	9c010000 	stcls	0, cr0, [r1], {-0}
    120c:	00001260 	andeq	r1, r0, r0, ror #4
    1210:	6e69703e 	mcrvs	0, 3, r7, cr9, cr14, {1}
    1214:	016d0100 	cmneq	sp, r0, lsl #2
    1218:	000002fb 	strdeq	r0, [r0], -fp
    121c:	00000a41 	andeq	r0, r0, r1, asr #20
    1220:	000eb03f 	andeq	fp, lr, pc, lsr r0
    1224:	016f0100 	cmneq	pc, r0, lsl #2
    1228:	000006a2 	andeq	r0, r0, r2, lsr #13
    122c:	00000a62 	andeq	r0, r0, r2, ror #20
    1230:	0004843f 	andeq	r8, r4, pc, lsr r4
    1234:	01700100 	cmneq	r0, r0, lsl #2
    1238:	000002fb 	strdeq	r0, [r0], -fp
    123c:	00000aa5 	andeq	r0, r0, r5, lsr #21
    1240:	0005833f 	andeq	r8, r5, pc, lsr r3
    1244:	01710100 	cmneq	r1, r0, lsl #2
    1248:	00000311 	andeq	r0, r0, r1, lsl r3
    124c:	00000acc 	andeq	r0, r0, ip, asr #21
    1250:	0116222c 	tsteq	r6, ip, lsr #4
    1254:	000e0000 	andeq	r0, lr, r0
    1258:	51012900 	tstpl	r1, r0, lsl #18
    125c:	00003001 	andeq	r3, r0, r1
    1260:	0001673d 	andeq	r6, r1, sp, lsr r7
    1264:	01760100 	cmneq	r6, r0, lsl #2
    1268:	00011624 	andeq	r1, r1, r4, lsr #12
    126c:	00000020 	andeq	r0, r0, r0, lsr #32
    1270:	12c09c01 	sbcne	r9, r0, #256	; 0x100
    1274:	703e0000 	eorsvc	r0, lr, r0
    1278:	01006e69 	tsteq	r0, r9, ror #28
    127c:	02fb0176 	rscseq	r0, fp, #-2147483619	; 0x8000001d
    1280:	0afd0000 	beq	fff41288 <__bss_end__+0xfff1d1bc>
    1284:	b03f0000 	eorslt	r0, pc, r0
    1288:	0100000e 	tsteq	r0, lr
    128c:	06a20178 			; <UNDEFINED> instruction: 0x06a20178
    1290:	0b1e0000 	bleq	781298 <__bss_end__+0x75d1cc>
    1294:	843f0000 	ldrthi	r0, [pc], #-0	; 129c <_init-0xf540>
    1298:	01000004 	tsteq	r0, r4
    129c:	02fb0179 	rscseq	r0, fp, #1073741854	; 0x4000001e
    12a0:	0b610000 	bleq	18412a8 <__bss_end__+0x181d1dc>
    12a4:	833f0000 	teqhi	pc, #0
    12a8:	01000005 	tsteq	r0, r5
    12ac:	0311017a 	tsteq	r1, #-2147483618	; 0x8000001e
    12b0:	0b880000 	bleq	fe2012b8 <__bss_end__+0xfe1dd1ec>
    12b4:	44390000 	ldrtmi	r0, [r9], #-0
    12b8:	00000116 	andeq	r0, r0, r6, lsl r1
    12bc:	0000000e 	andeq	r0, r0, lr
    12c0:	0007433d 	andeq	r4, r7, sp, lsr r3
    12c4:	017d0100 	cmneq	sp, r0, lsl #2
    12c8:	00011644 	andeq	r1, r1, r4, asr #12
    12cc:	00000022 	andeq	r0, r0, r2, lsr #32
    12d0:	13269c01 			; <UNDEFINED> instruction: 0x13269c01
    12d4:	703e0000 	eorsvc	r0, lr, r0
    12d8:	01006e69 	tsteq	r0, r9, ror #28
    12dc:	02fb017d 	rscseq	r0, fp, #1073741855	; 0x4000001f
    12e0:	0b9b0000 	bleq	fe6c12e8 <__bss_end__+0xfe69d21c>
    12e4:	b03f0000 	eorslt	r0, pc, r0
    12e8:	0100000e 	tsteq	r0, lr
    12ec:	06a2017f 			; <UNDEFINED> instruction: 0x06a2017f
    12f0:	0bbc0000 	bleq	fef012f8 <__bss_end__+0xfeedd22c>
    12f4:	843f0000 	ldrthi	r0, [pc], #-0	; 12fc <_init-0xf4e0>
    12f8:	01000004 	tsteq	r0, r4
    12fc:	02fb0180 	rscseq	r0, fp, #128, 2
    1300:	0bff0000 	bleq	fffc1308 <__bss_end__+0xfff9d23c>
    1304:	833f0000 	teqhi	pc, #0
    1308:	01000005 	tsteq	r0, r5
    130c:	03110181 	tsteq	r1, #1073741856	; 0x40000020
    1310:	0c260000 	stceq	0, cr0, [r6], #-0
    1314:	662c0000 	strtvs	r0, [ip], -r0
    1318:	00000116 	andeq	r0, r0, r6, lsl r1
    131c:	2900000e 	stmdbcs	r0, {r1, r2, r3}
    1320:	30015101 	andcc	r5, r1, r1, lsl #2
    1324:	d93d0000 	ldmdble	sp!, {}	; <UNPREDICTABLE>
    1328:	01000008 	tsteq	r0, r8
    132c:	16680186 	strbtne	r0, [r8], -r6, lsl #3
    1330:	00200001 	eoreq	r0, r0, r1
    1334:	9c010000 	stcls	0, cr0, [r1], {-0}
    1338:	00001386 	andeq	r1, r0, r6, lsl #7
    133c:	6e69703e 	mcrvs	0, 3, r7, cr9, cr14, {1}
    1340:	01860100 	orreq	r0, r6, r0, lsl #2
    1344:	000002fb 	strdeq	r0, [r0], -fp
    1348:	00000c57 	andeq	r0, r0, r7, asr ip
    134c:	000eb03f 	andeq	fp, lr, pc, lsr r0
    1350:	01880100 	orreq	r0, r8, r0, lsl #2
    1354:	000006a2 	andeq	r0, r0, r2, lsr #13
    1358:	00000c78 	andeq	r0, r0, r8, ror ip
    135c:	0004843f 	andeq	r8, r4, pc, lsr r4
    1360:	01890100 	orreq	r0, r9, r0, lsl #2
    1364:	000002fb 	strdeq	r0, [r0], -fp
    1368:	00000cbb 			; <UNDEFINED> instruction: 0x00000cbb
    136c:	0005833f 	andeq	r8, r5, pc, lsr r3
    1370:	018a0100 	orreq	r0, sl, r0, lsl #2
    1374:	00000311 	andeq	r0, r0, r1, lsl r3
    1378:	00000ce2 	andeq	r0, r0, r2, ror #25
    137c:	01168839 	tsteq	r6, r9, lsr r8
    1380:	000e0000 	andeq	r0, lr, r0
    1384:	bd3d0000 	ldclt	0, cr0, [sp, #-0]
    1388:	0100000f 	tsteq	r0, pc
    138c:	1688018d 	strne	r0, [r8], sp, lsl #3
    1390:	00220001 	eoreq	r0, r2, r1
    1394:	9c010000 	stcls	0, cr0, [r1], {-0}
    1398:	000013ec 	andeq	r1, r0, ip, ror #7
    139c:	6e69703e 	mcrvs	0, 3, r7, cr9, cr14, {1}
    13a0:	018d0100 	orreq	r0, sp, r0, lsl #2
    13a4:	000002fb 	strdeq	r0, [r0], -fp
    13a8:	00000cf5 	strdeq	r0, [r0], -r5
    13ac:	000eb03f 	andeq	fp, lr, pc, lsr r0
    13b0:	018f0100 	orreq	r0, pc, r0, lsl #2
    13b4:	000006a2 	andeq	r0, r0, r2, lsr #13
    13b8:	00000d16 	andeq	r0, r0, r6, lsl sp
    13bc:	0004843f 	andeq	r8, r4, pc, lsr r4
    13c0:	01900100 	orrseq	r0, r0, r0, lsl #2
    13c4:	000002fb 	strdeq	r0, [r0], -fp
    13c8:	00000d59 	andeq	r0, r0, r9, asr sp
    13cc:	0005833f 	andeq	r8, r5, pc, lsr r3
    13d0:	01910100 	orrseq	r0, r1, r0, lsl #2
    13d4:	00000311 	andeq	r0, r0, r1, lsl r3
    13d8:	00000d80 	andeq	r0, r0, r0, lsl #27
    13dc:	0116aa2c 	tsteq	r6, ip, lsr #20
    13e0:	000e0000 	andeq	r0, lr, r0
    13e4:	51012900 	tstpl	r1, r0, lsl #18
    13e8:	00003001 	andeq	r3, r0, r1
    13ec:	0006043d 	andeq	r0, r6, sp, lsr r4
    13f0:	01960100 	orrseq	r0, r6, r0, lsl #2
    13f4:	000116ac 	andeq	r1, r1, ip, lsr #13
    13f8:	00000020 	andeq	r0, r0, r0, lsr #32
    13fc:	144c9c01 	strbne	r9, [ip], #-3073	; 0xfffff3ff
    1400:	703e0000 	eorsvc	r0, lr, r0
    1404:	01006e69 	tsteq	r0, r9, ror #28
    1408:	02fb0196 	rscseq	r0, fp, #-2147483611	; 0x80000025
    140c:	0db10000 	ldceq	0, cr0, [r1]
    1410:	b03f0000 	eorslt	r0, pc, r0
    1414:	0100000e 	tsteq	r0, lr
    1418:	06a20198 	ssateq	r0, #3, r8, lsl #3
    141c:	0dd20000 	ldcleq	0, cr0, [r2]
    1420:	843f0000 	ldrthi	r0, [pc], #-0	; 1428 <_init-0xf3b4>
    1424:	01000004 	tsteq	r0, r4
    1428:	02fb0199 	rscseq	r0, fp, #1073741862	; 0x40000026
    142c:	0e150000 	cdpeq	0, 1, cr0, cr5, cr0, {0}
    1430:	833f0000 	teqhi	pc, #0
    1434:	01000005 	tsteq	r0, r5
    1438:	0311019a 	tsteq	r1, #-2147483610	; 0x80000026
    143c:	0e3c0000 	cdpeq	0, 3, cr0, cr12, cr0, {0}
    1440:	cc390000 	ldcgt	0, cr0, [r9], #-0
    1444:	00000116 	andeq	r0, r0, r6, lsl r1
    1448:	0000000e 	andeq	r0, r0, lr
    144c:	000a113d 	andeq	r1, sl, sp, lsr r1
    1450:	019d0100 	orrseq	r0, sp, r0, lsl #2
    1454:	000116cc 	andeq	r1, r1, ip, asr #13
    1458:	00000022 	andeq	r0, r0, r2, lsr #32
    145c:	14b29c01 	ldrtne	r9, [r2], #3073	; 0xc01
    1460:	703e0000 	eorsvc	r0, lr, r0
    1464:	01006e69 	tsteq	r0, r9, ror #28
    1468:	02fb019d 	rscseq	r0, fp, #1073741863	; 0x40000027
    146c:	0e4f0000 	cdpeq	0, 4, cr0, cr15, cr0, {0}
    1470:	b03f0000 	eorslt	r0, pc, r0
    1474:	0100000e 	tsteq	r0, lr
    1478:	06a2019f 	ssateq	r0, #3, pc, lsl #3	; <UNPREDICTABLE>
    147c:	0e700000 	cdpeq	0, 7, cr0, cr0, cr0, {0}
    1480:	843f0000 	ldrthi	r0, [pc], #-0	; 1488 <_init-0xf354>
    1484:	01000004 	tsteq	r0, r4
    1488:	02fb01a0 	rscseq	r0, fp, #160, 2	; 0x28
    148c:	0eb30000 	cdpeq	0, 11, cr0, cr3, cr0, {0}
    1490:	833f0000 	teqhi	pc, #0
    1494:	01000005 	tsteq	r0, r5
    1498:	031101a1 	tsteq	r1, #1073741864	; 0x40000028
    149c:	0eda0000 	cdpeq	0, 13, cr0, cr10, cr0, {0}
    14a0:	ee2c0000 	cdp	0, 2, cr0, cr12, cr0, {0}
    14a4:	00000116 	andeq	r0, r0, r6, lsl r1
    14a8:	2900000e 	stmdbcs	r0, {r1, r2, r3}
    14ac:	30015101 	andcc	r5, r1, r1, lsl #2
    14b0:	3b3d0000 	blcc	f414b8 <__bss_end__+0xf1d3ec>
    14b4:	01000004 	tsteq	r0, r4
    14b8:	16f001a6 	ldrbtne	r0, [r0], r6, lsr #3
    14bc:	00200001 	eoreq	r0, r0, r1
    14c0:	9c010000 	stcls	0, cr0, [r1], {-0}
    14c4:	00001512 	andeq	r1, r0, r2, lsl r5
    14c8:	6e69703e 	mcrvs	0, 3, r7, cr9, cr14, {1}
    14cc:	01a60100 			; <UNDEFINED> instruction: 0x01a60100
    14d0:	000002fb 	strdeq	r0, [r0], -fp
    14d4:	00000f0b 	andeq	r0, r0, fp, lsl #30
    14d8:	000eb03f 	andeq	fp, lr, pc, lsr r0
    14dc:	01a80100 			; <UNDEFINED> instruction: 0x01a80100
    14e0:	000006a2 	andeq	r0, r0, r2, lsr #13
    14e4:	00000f2c 	andeq	r0, r0, ip, lsr #30
    14e8:	0004843f 	andeq	r8, r4, pc, lsr r4
    14ec:	01a90100 			; <UNDEFINED> instruction: 0x01a90100
    14f0:	000002fb 	strdeq	r0, [r0], -fp
    14f4:	00000f6f 	andeq	r0, r0, pc, ror #30
    14f8:	0005833f 	andeq	r8, r5, pc, lsr r3
    14fc:	01aa0100 			; <UNDEFINED> instruction: 0x01aa0100
    1500:	00000311 	andeq	r0, r0, r1, lsl r3
    1504:	00000f96 	muleq	r0, r6, pc	; <UNPREDICTABLE>
    1508:	01171039 	tsteq	r7, r9, lsr r0
    150c:	000e0000 	andeq	r0, lr, r0
    1510:	743d0000 	ldrtvc	r0, [sp], #-0
    1514:	01000007 	tsteq	r0, r7
    1518:	171001ad 	ldrne	r0, [r0, -sp, lsr #3]
    151c:	00220001 	eoreq	r0, r2, r1
    1520:	9c010000 	stcls	0, cr0, [r1], {-0}
    1524:	00001578 	andeq	r1, r0, r8, ror r5
    1528:	6e69703e 	mcrvs	0, 3, r7, cr9, cr14, {1}
    152c:	01ad0100 			; <UNDEFINED> instruction: 0x01ad0100
    1530:	000002fb 	strdeq	r0, [r0], -fp
    1534:	00000fa9 	andeq	r0, r0, r9, lsr #31
    1538:	000eb03f 	andeq	fp, lr, pc, lsr r0
    153c:	01af0100 			; <UNDEFINED> instruction: 0x01af0100
    1540:	000006a2 	andeq	r0, r0, r2, lsr #13
    1544:	00000fca 	andeq	r0, r0, sl, asr #31
    1548:	0004843f 	andeq	r8, r4, pc, lsr r4
    154c:	01b00100 	lslseq	r0, r0, #2
    1550:	000002fb 	strdeq	r0, [r0], -fp
    1554:	0000100d 	andeq	r1, r0, sp
    1558:	0005833f 	andeq	r8, r5, pc, lsr r3
    155c:	01b10100 			; <UNDEFINED> instruction: 0x01b10100
    1560:	00000311 	andeq	r0, r0, r1, lsl r3
    1564:	00001034 	andeq	r1, r0, r4, lsr r0
    1568:	0117322c 	tsteq	r7, ip, lsr #4
    156c:	000e0000 	andeq	r0, lr, r0
    1570:	51012900 	tstpl	r1, r0, lsl #18
    1574:	00003001 	andeq	r3, r0, r1
    1578:	0013ac3d 	andseq	sl, r3, sp, lsr ip
    157c:	01b60100 			; <UNDEFINED> instruction: 0x01b60100
    1580:	00011734 	andeq	r1, r1, r4, lsr r7
    1584:	00000020 	andeq	r0, r0, r0, lsr #32
    1588:	15d89c01 	ldrbne	r9, [r8, #3073]	; 0xc01
    158c:	703e0000 	eorsvc	r0, lr, r0
    1590:	01006e69 	tsteq	r0, r9, ror #28
    1594:	02fb01b6 	rscseq	r0, fp, #-2147483603	; 0x8000002d
    1598:	10650000 	rsbne	r0, r5, r0
    159c:	b03f0000 	eorslt	r0, pc, r0
    15a0:	0100000e 	tsteq	r0, lr
    15a4:	06a201b8 			; <UNDEFINED> instruction: 0x06a201b8
    15a8:	10860000 	addne	r0, r6, r0
    15ac:	843f0000 	ldrthi	r0, [pc], #-0	; 15b4 <_init-0xf228>
    15b0:	01000004 	tsteq	r0, r4
    15b4:	02fb01b9 	rscseq	r0, fp, #1073741870	; 0x4000002e
    15b8:	10c90000 	sbcne	r0, r9, r0
    15bc:	833f0000 	teqhi	pc, #0
    15c0:	01000005 	tsteq	r0, r5
    15c4:	031101ba 	tsteq	r1, #-2147483602	; 0x8000002e
    15c8:	10f00000 	rscsne	r0, r0, r0
    15cc:	54390000 	ldrtpl	r0, [r9], #-0
    15d0:	00000117 	andeq	r0, r0, r7, lsl r1
    15d4:	0000000e 	andeq	r0, r0, lr
    15d8:	0013f63d 	andseq	pc, r3, sp, lsr r6	; <UNPREDICTABLE>
    15dc:	01bd0100 			; <UNDEFINED> instruction: 0x01bd0100
    15e0:	00011754 	andeq	r1, r1, r4, asr r7
    15e4:	00000022 	andeq	r0, r0, r2, lsr #32
    15e8:	163e9c01 	ldrtne	r9, [lr], -r1, lsl #24
    15ec:	703e0000 	eorsvc	r0, lr, r0
    15f0:	01006e69 	tsteq	r0, r9, ror #28
    15f4:	02fb01bd 	rscseq	r0, fp, #1073741871	; 0x4000002f
    15f8:	11030000 	mrsne	r0, (UNDEF: 3)
    15fc:	b03f0000 	eorslt	r0, pc, r0
    1600:	0100000e 	tsteq	r0, lr
    1604:	06a201bf 			; <UNDEFINED> instruction: 0x06a201bf
    1608:	11240000 			; <UNDEFINED> instruction: 0x11240000
    160c:	843f0000 	ldrthi	r0, [pc], #-0	; 1614 <_init-0xf1c8>
    1610:	01000004 	tsteq	r0, r4
    1614:	02fb01c0 	rscseq	r0, fp, #192, 2	; 0x30
    1618:	11670000 	cmnne	r7, r0
    161c:	833f0000 	teqhi	pc, #0
    1620:	01000005 	tsteq	r0, r5
    1624:	031101c1 	tsteq	r1, #1073741872	; 0x40000030
    1628:	118e0000 	orrne	r0, lr, r0
    162c:	762c0000 	strtvc	r0, [ip], -r0
    1630:	00000117 	andeq	r0, r0, r7, lsl r1
    1634:	2900000e 	stmdbcs	r0, {r1, r2, r3}
    1638:	30015101 	andcc	r5, r1, r1, lsl #2
    163c:	0f250000 	svceq	0x00250000
    1640:	78000007 	stmdavc	r0, {r0, r1, r2}
    1644:	12000117 	andne	r0, r0, #-1073741819	; 0xc0000005
    1648:	01000000 	mrseq	r0, (UNDEF: 0)
    164c:	0016649c 	mulseq	r6, ip, r4
    1650:	071c2600 	ldreq	r2, [ip, -r0, lsl #12]
    1654:	11bf0000 			; <UNDEFINED> instruction: 0x11bf0000
    1658:	8a390000 	bhi	e41660 <__bss_end__+0xe1d594>
    165c:	98000117 	stmdals	r0, {r0, r1, r2, r4, r8}
    1660:	0000000d 	andeq	r0, r0, sp
    1664:	0013e540 	andseq	lr, r3, r0, asr #10
    1668:	01e50100 	mvneq	r0, r0, lsl #2
    166c:	00000311 	andeq	r0, r0, r1, lsl r3
    1670:	0001178c 	andeq	r1, r1, ip, lsl #15
    1674:	0000001c 	andeq	r0, r0, ip, lsl r0
    1678:	16a89c01 	strtne	r9, [r8], r1, lsl #24
    167c:	c7410000 	strbgt	r0, [r1, -r0]
    1680:	01000008 	tsteq	r0, r8
    1684:	02fb01e5 	rscseq	r0, fp, #1073741881	; 0x40000039
    1688:	11e00000 	mvnne	r0, r0
    168c:	b03f0000 	eorslt	r0, pc, r0
    1690:	0100000e 	tsteq	r0, lr
    1694:	06a201ea 	strteq	r0, [r2], sl, ror #3
    1698:	121a0000 	andsne	r0, sl, #0
    169c:	a4390000 	ldrtge	r0, [r9], #-0
    16a0:	7b000117 	blvc	1b04 <_init-0xecd8>
    16a4:	00000006 	andeq	r0, r0, r6
    16a8:	0001783d 	andeq	r7, r1, sp, lsr r8
    16ac:	01f20100 	mvnseq	r0, r0, lsl #2
    16b0:	000117a8 	andeq	r1, r1, r8, lsr #15
    16b4:	0000001e 	andeq	r0, r0, lr, lsl r0
    16b8:	17059c01 	strne	r9, [r5, -r1, lsl #24]
    16bc:	c7410000 	strbgt	r0, [r1, -r0]
    16c0:	01000008 	tsteq	r0, r8
    16c4:	02fb01f2 	rscseq	r0, fp, #-2147483588	; 0x8000003c
    16c8:	12510000 	subsne	r0, r1, #0
    16cc:	8b410000 	blhi	10416d4 <__bss_end__+0x101d608>
    16d0:	01000009 	tsteq	r0, r9
    16d4:	031101f2 	tsteq	r1, #-2147483588	; 0x8000003c
    16d8:	127d0000 	rsbsne	r0, sp, #0
    16dc:	b03f0000 	eorslt	r0, pc, r0
    16e0:	0100000e 	tsteq	r0, lr
    16e4:	06a201f7 			; <UNDEFINED> instruction: 0x06a201f7
    16e8:	12a90000 	adcne	r0, r9, #0
    16ec:	c42c0000 	strtgt	r0, [ip], #-0
    16f0:	c9000117 	stmdbgt	r0, {r0, r1, r2, r4, r8}
    16f4:	29000006 	stmdbcs	r0, {r1, r2}
    16f8:	f3085101 	vrhadd.u8	d5, d8, d1
    16fc:	b4085101 	strlt	r5, [r8], #-257	; 0xfffffeff
    1700:	00212447 	eoreq	r2, r1, r7, asr #8
    1704:	09262500 	stmdbeq	r6!, {r8, sl, sp}
    1708:	17c80000 	strbne	r0, [r8, r0]
    170c:	00500001 	subseq	r0, r0, r1
    1710:	9c010000 	stcls	0, cr0, [r1], {-0}
    1714:	0000174c 	andeq	r1, r0, ip, asr #14
    1718:	00093326 	andeq	r3, r9, r6, lsr #6
    171c:	0012e000 	andseq	lr, r2, r0
    1720:	093f4200 	ldmdbeq	pc!, {r9, lr}	; <UNPREDICTABLE>
    1724:	91020000 	mrsls	r0, (UNDEF: 2)
    1728:	18083c5c 	stmdane	r8, {r2, r3, r4, r6, sl, fp, ip, sp}
    172c:	46ac0001 	strtmi	r0, [ip], r1
    1730:	17420000 	strbne	r0, [r2, -r0]
    1734:	01290000 			; <UNDEFINED> instruction: 0x01290000
    1738:	5c910250 	lfmpl	f0, 4, [r1], {80}	; 0x50
    173c:	01510129 	cmpeq	r1, r9, lsr #2
    1740:	182e0030 	stmdane	lr!, {r4, r5}
    1744:	b8000118 	stmdalt	r0, {r3, r4, r8}
    1748:	00000046 	andeq	r0, r0, r6, asr #32
    174c:	0005893d 	andeq	r8, r5, sp, lsr r9
    1750:	02310100 	eorseq	r0, r1, #0, 2
    1754:	00011818 	andeq	r1, r1, r8, lsl r8
    1758:	0000000a 	andeq	r0, r0, sl
    175c:	17949c01 	ldrne	r9, [r4, r1, lsl #24]
    1760:	703e0000 	eorsvc	r0, lr, r0
    1764:	01006e69 	tsteq	r0, r9, ror #28
    1768:	02fb0231 	rscseq	r0, fp, #268435459	; 0x10000003
    176c:	12fe0000 	rscsne	r0, lr, #0
    1770:	6f3e0000 	svcvs	0x003e0000
    1774:	3101006e 	tstcc	r1, lr, rrx
    1778:	0002fb02 	andeq	pc, r2, r2, lsl #22
    177c:	00133800 	andseq	r3, r3, r0, lsl #16
    1780:	181e3900 	ldmdane	lr, {r8, fp, ip, sp}
    1784:	0f180001 	svceq	0x00180001
    1788:	22390000 	eorscs	r0, r9, #0
    178c:	c8000118 	stmdagt	r0, {r3, r4, r8}
    1790:	0000000e 	andeq	r0, r0, lr
    1794:	0003bf3d 	andeq	fp, r3, sp, lsr pc
    1798:	023a0100 	eorseq	r0, sl, #0, 2
    179c:	00011824 	andeq	r1, r1, r4, lsr #16
    17a0:	0000001e 	andeq	r0, r0, lr, lsl r0
    17a4:	18469c01 	stmdane	r6, {r0, sl, fp, ip, pc}^
    17a8:	39410000 	stmdbcc	r1, {}^	; <UNPREDICTABLE>
    17ac:	0100000a 	tsteq	r0, sl
    17b0:	0311023a 	tsteq	r1, #-1610612733	; 0xa0000003
    17b4:	13720000 	cmnne	r2, #0
    17b8:	6f3e0000 	svcvs	0x003e0000
    17bc:	3a01006e 	bcc	4197c <__bss_end__+0x1d8b0>
    17c0:	0002fb02 	andeq	pc, r2, r2, lsl #22
    17c4:	0013c200 	andseq	ip, r3, r0, lsl #4
    17c8:	07374300 	ldreq	r4, [r7, -r0, lsl #6]!
    17cc:	18240000 	stmdane	r4!, {}	; <UNPREDICTABLE>
    17d0:	00480001 	subeq	r0, r8, r1
    17d4:	3d010000 	stccc	0, cr0, [r1, #-0]
    17d8:	00180702 	andseq	r0, r8, r2, lsl #14
    17dc:	07442600 	strbeq	r2, [r4, -r0, lsl #12]
    17e0:	13fc0000 	mvnsne	r0, #0
    17e4:	483a0000 	ldmdami	sl!, {}	; <UNPREDICTABLE>
    17e8:	2f000000 	svccs	0x00000000
    17ec:	00000750 	andeq	r0, r0, r0, asr r7
    17f0:	00001428 	andeq	r1, r0, r8, lsr #8
    17f4:	0118422c 	tsteq	r8, ip, lsr #4
    17f8:	0006c900 	andeq	ip, r6, r0, lsl #18
    17fc:	51012900 	tstpl	r1, r0, lsl #18
    1800:	5001f303 	andpl	pc, r1, r3, lsl #6
    1804:	2d000000 	stccs	0, cr0, [r0, #-0]
    1808:	0000075d 	andeq	r0, r0, sp, asr r7
    180c:	0001182e 	andeq	r1, r1, lr, lsr #16
    1810:	0000000a 	andeq	r0, r0, sl
    1814:	26023f01 	strcs	r3, [r2], -r1, lsl #30
    1818:	0000076a 	andeq	r0, r0, sl, ror #14
    181c:	0000144e 	andeq	r1, r0, lr, asr #8
    1820:	01182e31 	tsteq	r8, r1, lsr lr
    1824:	00000a00 	andeq	r0, r0, r0, lsl #20
    1828:	07762f00 	ldrbeq	r2, [r6, -r0, lsl #30]!
    182c:	147a0000 	ldrbtne	r0, [sl], #-0
    1830:	382c0000 	stmdacc	ip!, {}	; <UNPREDICTABLE>
    1834:	c9000118 	stmdbgt	r0, {r3, r4, r8}
    1838:	29000006 	stmdbcs	r0, {r1, r2}
    183c:	f3035101 	vrhadd.u8	d5, d3, d1
    1840:	00005001 	andeq	r5, r0, r1
    1844:	263d0000 	ldrtcs	r0, [sp], -r0
    1848:	0100000a 	tsteq	r0, sl
    184c:	18440243 	stmdane	r4, {r0, r1, r6, r9}^
    1850:	00280001 	eoreq	r0, r8, r1
    1854:	9c010000 	stcls	0, cr0, [r1], {-0}
    1858:	000018fc 	strdeq	r1, [r0], -ip
    185c:	00058341 	andeq	r8, r5, r1, asr #6
    1860:	02430100 	subeq	r0, r3, #0, 2
    1864:	00000311 	andeq	r0, r0, r1, lsl r3
    1868:	000014a0 	andeq	r1, r0, r0, lsr #9
    186c:	000a3941 	andeq	r3, sl, r1, asr #18
    1870:	02430100 	subeq	r0, r3, #0, 2
    1874:	00000311 	andeq	r0, r0, r1, lsl r3
    1878:	000014cc 	andeq	r1, r0, ip, asr #9
    187c:	00073743 	andeq	r3, r7, r3, asr #14
    1880:	01184600 	tsteq	r8, r0, lsl #12
    1884:	00006000 	andeq	r6, r0, r0
    1888:	02450100 	subeq	r0, r5, #0, 2
    188c:	000018bc 			; <UNDEFINED> instruction: 0x000018bc
    1890:	00074426 	andeq	r4, r7, r6, lsr #8
    1894:	0014f800 	andseq	pc, r4, r0, lsl #16
    1898:	00603a00 	rsbeq	r3, r0, r0, lsl #20
    189c:	502f0000 	eorpl	r0, pc, r0
    18a0:	2b000007 	blcs	18c4 <_init-0xef18>
    18a4:	28000015 	stmdacs	r0, {r0, r2, r4}
    18a8:	0001185c 	andeq	r1, r1, ip, asr r8
    18ac:	000006c9 	andeq	r0, r0, r9, asr #13
    18b0:	05510129 	ldrbeq	r0, [r1, #-297]	; 0xfffffed7
    18b4:	00750076 	rsbseq	r0, r5, r6, ror r0
    18b8:	0000001a 	andeq	r0, r0, sl, lsl r0
    18bc:	00075d44 	andeq	r5, r7, r4, asr #26
    18c0:	01185c00 	tsteq	r8, r0, lsl #24
    18c4:	00007800 	andeq	r7, r0, r0, lsl #16
    18c8:	02460100 	subeq	r0, r6, #0, 2
    18cc:	00076a26 	andeq	r6, r7, r6, lsr #20
    18d0:	00155100 	andseq	r5, r5, r0, lsl #2
    18d4:	00783a00 	rsbseq	r3, r8, r0, lsl #20
    18d8:	762f0000 	strtvc	r0, [pc], -r0
    18dc:	88000007 	stmdahi	r0, {r0, r1, r2}
    18e0:	2c000015 	stccs	0, cr0, [r0], {21}
    18e4:	0001186c 	andeq	r1, r1, ip, ror #16
    18e8:	000006c9 	andeq	r0, r0, r9, asr #13
    18ec:	08510129 	ldmdaeq	r1, {r0, r3, r5, r8}^
    18f0:	205001f3 	ldrshcs	r0, [r0], #-19	; 0xffffffed
    18f4:	1a5101f3 	bne	14420c8 <__bss_end__+0x141dffc>
    18f8:	00000000 	andeq	r0, r0, r0
    18fc:	00112b40 	andseq	r2, r1, r0, asr #22
    1900:	02830100 	addeq	r0, r3, #0, 2
    1904:	000002fb 	strdeq	r0, [r0], -fp
    1908:	0001186c 	andeq	r1, r1, ip, ror #16
    190c:	0000005a 	andeq	r0, r0, sl, asr r0
    1910:	19809c01 	stmibne	r0, {r0, sl, fp, ip, pc}
    1914:	703e0000 	eorsvc	r0, lr, r0
    1918:	01006e69 	tsteq	r0, r9, ror #28
    191c:	02fb0283 	rscseq	r0, fp, #805306376	; 0x30000008
    1920:	15ae0000 	strne	r0, [lr, #0]!
    1924:	72450000 	subvc	r0, r5, #0
    1928:	01007465 	tsteq	r0, r5, ror #8
    192c:	02fb0285 	rscseq	r0, fp, #1342177288	; 0x50000008
    1930:	15e80000 	strbne	r0, [r8, #0]!
    1934:	903a0000 	eorsls	r0, sl, r0
    1938:	3f000000 	svccc	0x00000000
    193c:	000001da 	ldrdeq	r0, [r0], -sl
    1940:	11028901 	tstne	r2, r1, lsl #18
    1944:	2a000003 	bcs	1958 <_init-0xee84>
    1948:	3f000016 	svccc	0x00000016
    194c:	00000eb0 			; <UNDEFINED> instruction: 0x00000eb0
    1950:	a2028a01 	andge	r8, r2, #4096	; 0x1000
    1954:	4b000006 	blmi	1974 <_init-0xee68>
    1958:	44000016 	strmi	r0, [r0], #-22	; 0xffffffea
    195c:	000006ad 	andeq	r0, r0, sp, lsr #13
    1960:	00011888 	andeq	r1, r1, r8, lsl #17
    1964:	000000b0 	strheq	r0, [r0], -r0	; <UNPREDICTABLE>
    1968:	26028b01 	strcs	r8, [r2], -r1, lsl #22
    196c:	000006bd 			; <UNDEFINED> instruction: 0x000006bd
    1970:	0000164b 	andeq	r1, r0, fp, asr #12
    1974:	0118c02e 	tsteq	r8, lr, lsr #32
    1978:	0009f400 	andeq	pc, r9, r0, lsl #8
    197c:	00000000 	andeq	r0, r0, r0
    1980:	00114540 	andseq	r4, r1, r0, asr #10
    1984:	029a0100 	addseq	r0, sl, #0, 2
    1988:	00000061 	andeq	r0, r0, r1, rrx
    198c:	000118c8 	andeq	r1, r1, r8, asr #17
    1990:	00000080 	andeq	r0, r0, r0, lsl #1
    1994:	1c189c01 	ldcne	12, cr9, [r8], {1}
    1998:	b03f0000 	eorslt	r0, pc, r0
    199c:	0100000e 	tsteq	r0, lr
    19a0:	06a2029c 	ssateq	r0, #3, ip, lsl #5
    19a4:	16690000 	strbtne	r0, [r9], -r0
    19a8:	83330000 	teqhi	r3, #0
    19ac:	d8000007 	stmdale	r0, {r0, r1, r2}
    19b0:	0e000118 	mcreq	1, 0, r0, cr0, cr8, {0}
    19b4:	01000000 	mrseq	r0, (UNDEF: 0)
    19b8:	1a1702a2 	bne	5c2448 <__bss_end__+0x59e37c>
    19bc:	9c260000 	stcls	0, cr0, [r6], #-0
    19c0:	87000007 	strhi	r0, [r0, -r7]
    19c4:	26000016 			; <UNDEFINED> instruction: 0x26000016
    19c8:	00000790 	muleq	r0, r0, r7
    19cc:	0000169b 	muleq	r0, fp, r6
    19d0:	0118d831 	tsteq	r8, r1, lsr r8
    19d4:	00000e00 	andeq	r0, r0, r0, lsl #28
    19d8:	07a82f00 	streq	r2, [r8, r0, lsl #30]!
    19dc:	16af0000 	strtne	r0, [pc], r0
    19e0:	b42f0000 	strtlt	r0, [pc], #-0	; 19e8 <_init-0xedf4>
    19e4:	c6000007 	strgt	r0, [r0], -r7
    19e8:	2f000016 	svccs	0x00000016
    19ec:	000007c0 	andeq	r0, r0, r0, asr #15
    19f0:	000016da 	ldrdeq	r1, [r0], -sl
    19f4:	0007cc2f 	andeq	ip, r7, pc, lsr #24
    19f8:	0016f000 	andseq	pc, r6, r0
    19fc:	18e62800 	stmiane	r6!, {fp, sp}^
    1a00:	0e000001 	cdpeq	0, 0, cr0, cr0, cr1, {0}
    1a04:	01290000 			; <UNDEFINED> instruction: 0x01290000
    1a08:	43400351 	movtmi	r0, #849	; 0x351
    1a0c:	52012924 	andpl	r2, r1, #36, 18	; 0x90000
    1a10:	24434c03 	strbcs	r4, [r3], #-3075	; 0xfffff3fd
    1a14:	33000000 	movwcc	r0, #0
    1a18:	00000783 	andeq	r0, r0, r3, lsl #15
    1a1c:	000118e6 	andeq	r1, r1, r6, ror #17
    1a20:	0000000e 	andeq	r0, r0, lr
    1a24:	8402a301 	strhi	sl, [r2], #-769	; 0xfffffcff
    1a28:	2600001a 			; <UNDEFINED> instruction: 0x2600001a
    1a2c:	0000079c 	muleq	r0, ip, r7
    1a30:	00001706 	andeq	r1, r0, r6, lsl #14
    1a34:	00079026 	andeq	r9, r7, r6, lsr #32
    1a38:	00171a00 	andseq	r1, r7, r0, lsl #20
    1a3c:	18e63100 	stmiane	r6!, {r8, ip, sp}^
    1a40:	000e0001 	andeq	r0, lr, r1
    1a44:	a82f0000 	stmdage	pc!, {}	; <UNPREDICTABLE>
    1a48:	2e000007 	cdpcs	0, 0, cr0, cr0, cr7, {0}
    1a4c:	2f000017 	svccs	0x00000017
    1a50:	000007b4 			; <UNDEFINED> instruction: 0x000007b4
    1a54:	00001745 	andeq	r1, r0, r5, asr #14
    1a58:	0007c02f 	andeq	ip, r7, pc, lsr #32
    1a5c:	00175900 	andseq	r5, r7, r0, lsl #18
    1a60:	07cc2f00 	strbeq	r2, [ip, r0, lsl #30]
    1a64:	176f0000 	strbne	r0, [pc, -r0]!
    1a68:	f4280000 	vld4.8	{d0-d3}, [r8], r0
    1a6c:	00000118 	andeq	r0, r0, r8, lsl r1
    1a70:	2900000e 	stmdbcs	r0, {r1, r2, r3}
    1a74:	40035101 	andmi	r5, r3, r1, lsl #2
    1a78:	01292446 			; <UNDEFINED> instruction: 0x01292446
    1a7c:	464c0352 			; <UNDEFINED> instruction: 0x464c0352
    1a80:	00000024 	andeq	r0, r0, r4, lsr #32
    1a84:	00078333 	andeq	r8, r7, r3, lsr r3
    1a88:	0118f400 	tsteq	r8, r0, lsl #8	; <UNPREDICTABLE>
    1a8c:	00000e00 	andeq	r0, r0, r0, lsl #28
    1a90:	02a40100 	adceq	r0, r4, #0, 2
    1a94:	00001af1 	strdeq	r1, [r0], -r1	; <UNPREDICTABLE>
    1a98:	00079c26 	andeq	r9, r7, r6, lsr #24
    1a9c:	00178500 	andseq	r8, r7, r0, lsl #10
    1aa0:	07902600 	ldreq	r2, [r0, r0, lsl #12]
    1aa4:	17990000 	ldrne	r0, [r9, r0]
    1aa8:	f4310000 			; <UNDEFINED> instruction: 0xf4310000
    1aac:	0e000118 	mcreq	1, 0, r0, cr0, cr8, {0}
    1ab0:	2f000000 	svccs	0x00000000
    1ab4:	000007a8 	andeq	r0, r0, r8, lsr #15
    1ab8:	000017ad 	andeq	r1, r0, sp, lsr #15
    1abc:	0007b42f 	andeq	fp, r7, pc, lsr #8
    1ac0:	0017c400 	andseq	ip, r7, r0, lsl #8
    1ac4:	07c02f00 	strbeq	r2, [r0, r0, lsl #30]
    1ac8:	17d80000 	ldrbne	r0, [r8, r0]
    1acc:	cc2f0000 	stcgt	0, cr0, [pc], #-0	; 1ad4 <_init-0xed08>
    1ad0:	ee000007 	cdp	0, 0, cr0, cr0, cr7, {0}
    1ad4:	28000017 	stmdacs	r0, {r0, r1, r2, r4}
    1ad8:	00011902 	andeq	r1, r1, r2, lsl #18
    1adc:	00000e00 	andeq	r0, r0, r0, lsl #28
    1ae0:	03510129 	cmpeq	r1, #1073741834	; 0x4000000a
    1ae4:	29244940 	stmdbcs	r4!, {r6, r8, fp, lr}
    1ae8:	4c035201 	sfmmi	f5, 4, [r3], {1}
    1aec:	00002449 	andeq	r2, r0, r9, asr #8
    1af0:	07833300 	streq	r3, [r3, r0, lsl #6]
    1af4:	19020000 	stmdbne	r2, {}	; <UNPREDICTABLE>
    1af8:	000c0001 	andeq	r0, ip, r1
    1afc:	a5010000 	strge	r0, [r1, #-0]
    1b00:	001b5a02 	andseq	r5, fp, r2, lsl #20
    1b04:	079c2600 	ldreq	r2, [ip, r0, lsl #12]
    1b08:	18040000 	stmdane	r4, {}	; <UNPREDICTABLE>
    1b0c:	90260000 	eorls	r0, r6, r0
    1b10:	18000007 	stmdane	r0, {r0, r1, r2}
    1b14:	31000018 	tstcc	r0, r8, lsl r0
    1b18:	00011902 	andeq	r1, r1, r2, lsl #18
    1b1c:	0000000c 	andeq	r0, r0, ip
    1b20:	0007a82f 	andeq	sl, r7, pc, lsr #16
    1b24:	00182c00 	andseq	r2, r8, r0, lsl #24
    1b28:	07b42f00 	ldreq	r2, [r4, r0, lsl #30]!
    1b2c:	18520000 	ldmdane	r2, {}^	; <UNPREDICTABLE>
    1b30:	c02f0000 	eorgt	r0, pc, r0
    1b34:	66000007 	strvs	r0, [r0], -r7
    1b38:	2f000018 	svccs	0x00000018
    1b3c:	000007cc 	andeq	r0, r0, ip, asr #15
    1b40:	00001804 	andeq	r1, r0, r4, lsl #16
    1b44:	01190e28 	tsteq	r9, r8, lsr #28
    1b48:	000e0000 	andeq	r0, lr, r0
    1b4c:	51012900 	tstpl	r1, r0, lsl #18
    1b50:	01293401 			; <UNDEFINED> instruction: 0x01293401
    1b54:	00370152 	eorseq	r0, r7, r2, asr r1
    1b58:	83330000 	teqhi	r3, #0
    1b5c:	0e000007 	cdpeq	0, 0, cr0, cr0, cr7, {0}
    1b60:	0c000119 	stfeqs	f0, [r0], {25}
    1b64:	01000000 	mrseq	r0, (UNDEF: 0)
    1b68:	1bc502a6 	blne	ff142608 <__bss_end__+0xff11e53c>
    1b6c:	9c260000 	stcls	0, cr0, [r6], #-0
    1b70:	7a000007 	bvc	1b94 <_init-0xec48>
    1b74:	26000018 			; <UNDEFINED> instruction: 0x26000018
    1b78:	00000790 	muleq	r0, r0, r7
    1b7c:	0000188e 	andeq	r1, r0, lr, lsl #17
    1b80:	01190e31 	tsteq	r9, r1, lsr lr
    1b84:	00000c00 	andeq	r0, r0, r0, lsl #24
    1b88:	07a82f00 	streq	r2, [r8, r0, lsl #30]!
    1b8c:	18a20000 	stmiane	r2!, {}	; <UNPREDICTABLE>
    1b90:	b42f0000 	strtlt	r0, [pc], #-0	; 1b98 <_init-0xec44>
    1b94:	c8000007 	stmdagt	r0, {r0, r1, r2}
    1b98:	2f000018 	svccs	0x00000018
    1b9c:	000007c0 	andeq	r0, r0, r0, asr #15
    1ba0:	000018dc 	ldrdeq	r1, [r0], -ip
    1ba4:	0007cc2f 	andeq	ip, r7, pc, lsr #24
    1ba8:	0018f100 	andseq	pc, r8, r0, lsl #2
    1bac:	191a2800 	ldmdbne	sl, {fp, sp}
    1bb0:	0e000001 	cdpeq	0, 0, cr0, cr0, cr1, {0}
    1bb4:	01290000 			; <UNDEFINED> instruction: 0x01290000
    1bb8:	20080251 	andcs	r0, r8, r1, asr r2
    1bbc:	02520129 	subseq	r0, r2, #1073741834	; 0x4000000a
    1bc0:	00003808 	andeq	r3, r0, r8, lsl #16
    1bc4:	06ec4300 	strbteq	r4, [ip], r0, lsl #6
    1bc8:	19240000 	stmdbne	r4!, {}	; <UNPREDICTABLE>
    1bcc:	00d00001 	sbcseq	r0, r0, r1
    1bd0:	ad010000 	stcge	0, cr0, [r1, #-0]
    1bd4:	001c0202 	andseq	r0, ip, r2, lsl #4
    1bd8:	07032600 	streq	r2, [r3, -r0, lsl #12]
    1bdc:	19060000 	stmdbne	r6, {}	; <UNPREDICTABLE>
    1be0:	f8260000 			; <UNDEFINED> instruction: 0xf8260000
    1be4:	28000006 	stmdacs	r0, {r1, r2}
    1be8:	28000019 	stmdacs	r0, {r0, r3, r4}
    1bec:	00011944 	andeq	r1, r1, r4, asr #18
    1bf0:	00000a49 	andeq	r0, r0, r9, asr #20
    1bf4:	02500129 	subseq	r0, r0, #1073741834	; 0x4000000a
    1bf8:	01290074 			; <UNDEFINED> instruction: 0x01290074
    1bfc:	30080251 	andcc	r0, r8, r1, asr r2
    1c00:	24280000 	strtcs	r0, [r8], #-0
    1c04:	c9000119 	stmdbgt	r0, {r0, r3, r4, r8}
    1c08:	29000006 	stmdbcs	r0, {r1, r2}
    1c0c:	74025001 	strvc	r5, [r2], #-1
    1c10:	51012900 	tstpl	r1, r0, lsl #18
    1c14:	00003001 	andeq	r3, r0, r1
    1c18:	00135e3d 	andseq	r5, r3, sp, lsr lr
    1c1c:	02b20100 	adcseq	r0, r2, #0, 2
    1c20:	00011948 	andeq	r1, r1, r8, asr #18
    1c24:	0000004a 	andeq	r0, r0, sl, asr #32
    1c28:	1e2c9c01 	cdpne	12, 2, cr9, cr12, cr1, {0}
    1c2c:	83330000 	teqhi	r3, #0
    1c30:	4a000007 	bmi	1c54 <_init-0xeb88>
    1c34:	14000119 	strne	r0, [r0], #-281	; 0xfffffee7
    1c38:	01000000 	mrseq	r0, (UNDEF: 0)
    1c3c:	1c9902b5 	lfmne	f0, 4, [r9], {181}	; 0xb5
    1c40:	9c260000 	stcls	0, cr0, [r6], #-0
    1c44:	46000007 	strmi	r0, [r0], -r7
    1c48:	26000019 			; <UNDEFINED> instruction: 0x26000019
    1c4c:	00000790 	muleq	r0, r0, r7
    1c50:	0000195a 	andeq	r1, r0, sl, asr r9
    1c54:	01194a31 	tsteq	r9, r1, lsr sl
    1c58:	00001400 	andeq	r1, r0, r0, lsl #8
    1c5c:	07a82f00 	streq	r2, [r8, r0, lsl #30]!
    1c60:	196e0000 	stmdbne	lr!, {}^	; <UNPREDICTABLE>
    1c64:	b42f0000 	strtlt	r0, [pc], #-0	; 1c6c <_init-0xeb70>
    1c68:	85000007 	strhi	r0, [r0, #-7]
    1c6c:	2f000019 	svccs	0x00000019
    1c70:	000007c0 	andeq	r0, r0, r0, asr #15
    1c74:	00001999 	muleq	r0, r9, r9
    1c78:	0007cc2f 	andeq	ip, r7, pc, lsr #24
    1c7c:	00194600 	andseq	r4, r9, r0, lsl #12
    1c80:	195e2800 	ldmdbne	lr, {fp, sp}^
    1c84:	0e000001 	cdpeq	0, 0, cr0, cr0, cr1, {0}
    1c88:	01290000 			; <UNDEFINED> instruction: 0x01290000
    1c8c:	29300151 	ldmdbcs	r0!, {r0, r4, r6, r8}
    1c90:	4c035201 	sfmmi	f5, 4, [r3], {1}
    1c94:	00002443 	andeq	r2, r0, r3, asr #8
    1c98:	07833300 	streq	r3, [r3, r0, lsl #6]
    1c9c:	195e0000 	ldmdbne	lr, {}^	; <UNPREDICTABLE>
    1ca0:	000c0001 	andeq	r0, ip, r1
    1ca4:	b6010000 	strlt	r0, [r1], -r0
    1ca8:	001d0402 	andseq	r0, sp, r2, lsl #8
    1cac:	079c2600 	ldreq	r2, [ip, r0, lsl #12]
    1cb0:	19af0000 	stmibne	pc!, {}	; <UNPREDICTABLE>
    1cb4:	90260000 	eorls	r0, r6, r0
    1cb8:	c3000007 	movwgt	r0, #7
    1cbc:	31000019 	tstcc	r0, r9, lsl r0
    1cc0:	0001195e 	andeq	r1, r1, lr, asr r9
    1cc4:	0000000c 	andeq	r0, r0, ip
    1cc8:	0007a82f 	andeq	sl, r7, pc, lsr #16
    1ccc:	0019d700 	andseq	sp, r9, r0, lsl #14
    1cd0:	07b42f00 	ldreq	r2, [r4, r0, lsl #30]!
    1cd4:	19ee0000 	stmibne	lr!, {}^	; <UNPREDICTABLE>
    1cd8:	c02f0000 	eorgt	r0, pc, r0
    1cdc:	02000007 	andeq	r0, r0, #7
    1ce0:	2f00001a 	svccs	0x0000001a
    1ce4:	000007cc 	andeq	r0, r0, ip, asr #15
    1ce8:	000019af 	andeq	r1, r0, pc, lsr #19
    1cec:	01196a28 	tsteq	r9, r8, lsr #20
    1cf0:	000e0000 	andeq	r0, lr, r0
    1cf4:	51012900 	tstpl	r1, r0, lsl #18
    1cf8:	01293001 			; <UNDEFINED> instruction: 0x01293001
    1cfc:	464c0352 			; <UNDEFINED> instruction: 0x464c0352
    1d00:	00000024 	andeq	r0, r0, r4, lsr #32
    1d04:	00078333 	andeq	r8, r7, r3, lsr r3
    1d08:	01196a00 	tsteq	r9, r0, lsl #20
    1d0c:	00000c00 	andeq	r0, r0, r0, lsl #24
    1d10:	02b70100 	adcseq	r0, r7, #0, 2
    1d14:	00001d6f 	andeq	r1, r0, pc, ror #26
    1d18:	00079c26 	andeq	r9, r7, r6, lsr #24
    1d1c:	001a1800 	andseq	r1, sl, r0, lsl #16
    1d20:	07902600 	ldreq	r2, [r0, r0, lsl #12]
    1d24:	1a2c0000 	bne	b01d2c <__bss_end__+0xaddc60>
    1d28:	6a310000 	bvs	c41d30 <__bss_end__+0xc1dc64>
    1d2c:	0c000119 	stfeqs	f0, [r0], {25}
    1d30:	2f000000 	svccs	0x00000000
    1d34:	000007a8 	andeq	r0, r0, r8, lsr #15
    1d38:	00001a40 	andeq	r1, r0, r0, asr #20
    1d3c:	0007b42f 	andeq	fp, r7, pc, lsr #8
    1d40:	001a5700 	andseq	r5, sl, r0, lsl #14
    1d44:	07c02f00 	strbeq	r2, [r0, r0, lsl #30]
    1d48:	1a6b0000 	bne	1ac1d50 <__bss_end__+0x1a9dc84>
    1d4c:	cc2f0000 	stcgt	0, cr0, [pc], #-0	; 1d54 <_init-0xea88>
    1d50:	18000007 	stmdane	r0, {r0, r1, r2}
    1d54:	2800001a 	stmdacs	r0, {r1, r3, r4}
    1d58:	00011976 	andeq	r1, r1, r6, ror r9
    1d5c:	00000e00 	andeq	r0, r0, r0, lsl #28
    1d60:	01510129 	cmpeq	r1, r9, lsr #2
    1d64:	52012930 	andpl	r2, r1, #48, 18	; 0xc0000
    1d68:	24494c03 	strbcs	r4, [r9], #-3075	; 0xfffff3fd
    1d6c:	33000000 	movwcc	r0, #0
    1d70:	00000783 	andeq	r0, r0, r3, lsl #15
    1d74:	00011976 	andeq	r1, r1, r6, ror r9
    1d78:	0000000c 	andeq	r0, r0, ip
    1d7c:	d802b801 	stmdale	r2, {r0, fp, ip, sp, pc}
    1d80:	2600001d 			; <UNDEFINED> instruction: 0x2600001d
    1d84:	0000079c 	muleq	r0, ip, r7
    1d88:	00001a81 	andeq	r1, r0, r1, lsl #21
    1d8c:	00079026 	andeq	r9, r7, r6, lsr #32
    1d90:	001a9500 	andseq	r9, sl, r0, lsl #10
    1d94:	19763100 	ldmdbne	r6!, {r8, ip, sp}^
    1d98:	000c0001 	andeq	r0, ip, r1
    1d9c:	a82f0000 	stmdage	pc!, {}	; <UNPREDICTABLE>
    1da0:	a9000007 	stmdbge	r0, {r0, r1, r2}
    1da4:	2f00001a 	svccs	0x0000001a
    1da8:	000007b4 			; <UNDEFINED> instruction: 0x000007b4
    1dac:	00001a81 	andeq	r1, r0, r1, lsl #21
    1db0:	0007c02f 	andeq	ip, r7, pc, lsr #32
    1db4:	001acf00 	andseq	ip, sl, r0, lsl #30
    1db8:	07cc2f00 	strbeq	r2, [ip, r0, lsl #30]
    1dbc:	1a810000 	bne	fe041dc4 <__bss_end__+0xfe01dcf8>
    1dc0:	82280000 	eorhi	r0, r8, #0
    1dc4:	00000119 	andeq	r0, r0, r9, lsl r1
    1dc8:	2900000e 	stmdbcs	r0, {r1, r2, r3}
    1dcc:	30015101 	andcc	r5, r1, r1, lsl #2
    1dd0:	01520129 	cmpeq	r2, r9, lsr #2
    1dd4:	00000037 	andeq	r0, r0, r7, lsr r0
    1dd8:	00078344 	andeq	r8, r7, r4, asr #6
    1ddc:	01198200 	tsteq	r9, r0, lsl #4
    1de0:	0000f000 	andeq	pc, r0, r0
    1de4:	02b90100 	adcseq	r0, r9, #0, 2
    1de8:	00079c46 	andeq	r9, r7, r6, asr #24
    1dec:	90460000 	subls	r0, r6, r0
    1df0:	0b000007 	bleq	1e14 <_init-0xe9c8>
    1df4:	0000f03a 	andeq	pc, r0, sl, lsr r0	; <UNPREDICTABLE>
    1df8:	07a82f00 	streq	r2, [r8, r0, lsl #30]!
    1dfc:	1ae30000 	bne	ff8c1e04 <__bss_end__+0xff89dd38>
    1e00:	b4470000 	strblt	r0, [r7], #-0
    1e04:	03000007 	movweq	r0, #7
    1e08:	0007c047 	andeq	ip, r7, r7, asr #32
    1e0c:	cc473800 	mcrrgt	8, 0, r3, r7, cr0
    1e10:	00000007 	andeq	r0, r0, r7
    1e14:	0119922c 	tsteq	r9, ip, lsr #4
    1e18:	000e0000 	andeq	r0, lr, r0
    1e1c:	51012900 	tstpl	r1, r0, lsl #18
    1e20:	01293001 			; <UNDEFINED> instruction: 0x01293001
    1e24:	38080252 	stmdacc	r8, {r1, r4, r6, r9}
    1e28:	00000000 	andeq	r0, r0, r0
    1e2c:	0007da3d 	andeq	sp, r7, sp, lsr sl
    1e30:	02bc0100 	adcseq	r0, ip, #0, 2
    1e34:	00011994 	muleq	r1, r4, r9
    1e38:	0000000e 	andeq	r0, r0, lr
    1e3c:	1e519c01 	cdpne	12, 5, cr9, cr1, cr1, {0}
    1e40:	75480000 	strbvc	r0, [r8, #-0]
    1e44:	0100000a 	tsteq	r0, sl
    1e48:	02fb02bc 	rscseq	r0, fp, #188, 4	; 0xc000000b
    1e4c:	50010000 	andpl	r0, r1, r0
    1e50:	07d92500 	ldrbeq	r2, [r9, r0, lsl #10]
    1e54:	19a40000 	stmibne	r4!, {}	; <UNPREDICTABLE>
    1e58:	00120001 	andseq	r0, r2, r1
    1e5c:	9c010000 	stcls	0, cr0, [r1], {-0}
    1e60:	00001e80 	andeq	r1, r0, r0, lsl #29
    1e64:	0007e626 	andeq	lr, r7, r6, lsr #12
    1e68:	001b0900 	andseq	r0, fp, r0, lsl #18
    1e6c:	07f22f00 	ldrbeq	r2, [r2, r0, lsl #30]!
    1e70:	1b2a0000 	blne	a81e78 <__bss_end__+0xa5ddac>
    1e74:	b6390000 	ldrtlt	r0, [r9], -r0
    1e78:	c9000119 	stmdbgt	r0, {r0, r3, r4, r8}
    1e7c:	00000006 	andeq	r0, r0, r6
    1e80:	000bed49 	andeq	lr, fp, r9, asr #26
    1e84:	02cc0100 	sbceq	r0, ip, #0, 2
    1e88:	000119b8 			; <UNDEFINED> instruction: 0x000119b8
    1e8c:	0000002c 	andeq	r0, r0, ip, lsr #32
    1e90:	1ee99c01 	cdpne	12, 14, cr9, cr9, cr1, {0}
    1e94:	fd410000 	stc2l	0, cr0, [r1, #-0]
    1e98:	0100000b 	tsteq	r0, fp
    1e9c:	031102cc 	tsteq	r1, #204, 4	; 0xc000000c
    1ea0:	1b500000 	blne	1401ea8 <__bss_end__+0x13ddddc>
    1ea4:	713f0000 	teqvc	pc, r0
    1ea8:	01000006 	tsteq	r0, r6
    1eac:	030602ce 	movweq	r0, #25294	; 0x62ce
    1eb0:	1b7c0000 	blne	1f01eb8 <__bss_end__+0x1edddec>
    1eb4:	d9440000 	stmdble	r4, {}^	; <UNPREDICTABLE>
    1eb8:	c8000007 	stmdagt	r0, {r0, r1, r2}
    1ebc:	08000119 	stmdaeq	r0, {r0, r3, r4, r8}
    1ec0:	01000001 	tsteq	r0, r1
    1ec4:	e62602d0 			; <UNDEFINED> instruction: 0xe62602d0
    1ec8:	7c000007 	stcvc	0, cr0, [r0], {7}
    1ecc:	3a00001b 	bcc	1f40 <_init-0xe89c>
    1ed0:	00000108 	andeq	r0, r0, r8, lsl #2
    1ed4:	0007f22f 	andeq	pc, r7, pc, lsr #4
    1ed8:	001b9400 	andseq	r9, fp, r0, lsl #8
    1edc:	19e43900 	stmibne	r4!, {r8, fp, ip, sp}^
    1ee0:	06c90001 	strbeq	r0, [r9], r1
    1ee4:	00000000 	andeq	r0, r0, r0
    1ee8:	0c653d00 	stcleq	13, cr3, [r5], #-0
    1eec:	d3010000 	movwle	r0, #4096	; 0x1000
    1ef0:	0119e402 	tsteq	r9, r2, lsl #8
    1ef4:	00001200 	andeq	r1, r0, r0, lsl #4
    1ef8:	2f9c0100 	svccs	0x009c0100
    1efc:	4100001f 	tstmi	r0, pc, lsl r0
    1f00:	00001494 	muleq	r0, r4, r4
    1f04:	fb02d301 	blx	b6b12 <__bss_end__+0x92a46>
    1f08:	ba000002 	blt	1f18 <_init-0xe8c4>
    1f0c:	3f00001b 	svccc	0x0000001b
    1f10:	00000eb0 			; <UNDEFINED> instruction: 0x00000eb0
    1f14:	a202d501 	andge	sp, r2, #4194304	; 0x400000
    1f18:	db000006 	blle	1f38 <_init-0xe8a4>
    1f1c:	2c00001b 	stccs	0, cr0, [r0], {27}
    1f20:	000119f6 	strdeq	r1, [r1], -r6
    1f24:	00000e00 	andeq	r0, r0, r0, lsl #28
    1f28:	01520129 	cmpeq	r2, r9, lsr #2
    1f2c:	4000003c 	andmi	r0, r0, ip, lsr r0
    1f30:	000001ac 	andeq	r0, r0, ip, lsr #3
    1f34:	fb02db01 	blx	b8b42 <__bss_end__+0x94a76>
    1f38:	f8000002 			; <UNDEFINED> instruction: 0xf8000002
    1f3c:	98000119 	stmdals	r0, {r0, r3, r4, r8}
    1f40:	01000000 	mrseq	r0, (UNDEF: 0)
    1f44:	0020c29c 	mlaeq	r0, ip, r2, ip
    1f48:	05834100 	streq	r4, [r3, #256]	; 0x100
    1f4c:	db010000 	blle	41f54 <__bss_end__+0x1de88>
    1f50:	0002fb02 	andeq	pc, r2, r2, lsl #22
    1f54:	001bf200 	andseq	pc, fp, r0, lsl #4
    1f58:	0eb04a00 	vmoveq.f32	s8, #0	; 0x40000000  2.0
    1f5c:	dd010000 	stcle	0, cr0, [r1, #-0]
    1f60:	0006a202 	andeq	sl, r6, r2, lsl #4
    1f64:	4a540100 	bmi	150236c <__bss_end__+0x14de2a0>
    1f68:	000003ed 	andeq	r0, r0, sp, ror #7
    1f6c:	a202de01 	andge	sp, r2, #1, 28
    1f70:	01000006 	tsteq	r0, r6
    1f74:	65724557 	ldrbvs	r4, [r2, #-1367]!	; 0xfffffaa9
    1f78:	df010074 	svcle	0x00010074
    1f7c:	00031102 	andeq	r1, r3, r2, lsl #2
    1f80:	001c1300 	andseq	r1, ip, r0, lsl #6
    1f84:	07ff3300 	ldrbeq	r3, [pc, r0, lsl #6]!
    1f88:	1a260000 	bne	981f90 <__bss_end__+0x95dec4>
    1f8c:	00120001 	andseq	r0, r2, r1
    1f90:	f0010000 			; <UNDEFINED> instruction: 0xf0010000
    1f94:	001fa302 	andseq	sl, pc, r2, lsl #6
    1f98:	080f2600 	stmdaeq	pc, {r9, sl, sp}	; <UNPREDICTABLE>
    1f9c:	1c2b0000 	stcne	0, cr0, [fp], #-0
    1fa0:	43000000 	movwmi	r0, #0
    1fa4:	000006ec 	andeq	r0, r0, ip, ror #13
    1fa8:	00011a38 	andeq	r1, r1, r8, lsr sl
    1fac:	00000120 	andeq	r0, r0, r0, lsr #2
    1fb0:	d802f001 	stmdale	r2, {r0, ip, sp, lr, pc}
    1fb4:	2600001f 			; <UNDEFINED> instruction: 0x2600001f
    1fb8:	00000703 	andeq	r0, r0, r3, lsl #14
    1fbc:	00001c3e 	andeq	r1, r0, lr, lsr ip
    1fc0:	0006f82b 	andeq	pc, r6, fp, lsr #16
    1fc4:	28570100 	ldmdacs	r7, {r8}^
    1fc8:	00011a84 	andeq	r1, r1, r4, lsl #21
    1fcc:	00000a49 	andeq	r0, r0, r9, asr #20
    1fd0:	02500129 	subseq	r0, r0, #1073741834	; 0x4000000a
    1fd4:	00000077 	andeq	r0, r0, r7, ror r0
    1fd8:	0006ad43 	andeq	sl, r6, r3, asr #26
    1fdc:	011a4600 	tsteq	sl, r0, lsl #12
    1fe0:	00013800 	andeq	r3, r1, r0, lsl #16
    1fe4:	02f30100 	rscseq	r0, r3, #0, 2
    1fe8:	00002006 	andeq	r2, r0, r6
    1fec:	0006bd26 	andeq	fp, r6, r6, lsr #26
    1ff0:	001c5c00 	andseq	r5, ip, r0, lsl #24
    1ff4:	1a7a2800 	bne	1e8bffc <__bss_end__+0x1e67f30>
    1ff8:	09f40001 	ldmibeq	r4!, {r0}^
    1ffc:	01290000 			; <UNDEFINED> instruction: 0x01290000
    2000:	00740250 	rsbseq	r0, r4, r0, asr r2
    2004:	ad430000 	stclge	0, cr0, [r3, #-0]
    2008:	4e000006 	cdpmi	0, 0, cr0, cr0, cr6, {0}
    200c:	5000011a 	andpl	r0, r0, sl, lsl r1
    2010:	01000001 	tsteq	r0, r1
    2014:	203402f7 	ldrshtcs	r0, [r4], -r7
    2018:	bd260000 	stclt	0, cr0, [r6, #-0]
    201c:	7a000006 	bvc	203c <_init-0xe7a0>
    2020:	2800001c 	stmdacs	r0, {r2, r3, r4}
    2024:	00011a8e 	andeq	r1, r1, lr, lsl #21
    2028:	000009f4 	strdeq	r0, [r0], -r4
    202c:	02500129 	subseq	r0, r0, #1073741834	; 0x4000000a
    2030:	00000077 	andeq	r0, r0, r7, ror r0
    2034:	0007ff43 	andeq	pc, r7, r3, asr #30
    2038:	011a5200 	tsteq	sl, r0, lsl #4
    203c:	00016800 	andeq	r6, r1, r0, lsl #16
    2040:	02f70100 	rscseq	r0, r7, #0, 2
    2044:	00002052 	andeq	r2, r0, r2, asr r0
    2048:	00080f26 	andeq	r0, r8, r6, lsr #30
    204c:	001c9800 	andseq	r9, ip, r0, lsl #16
    2050:	123c0000 	eorsne	r0, ip, #0
    2054:	0000011a 	andeq	r0, r0, sl, lsl r1
    2058:	7200000e 	andvc	r0, r0, #14
    205c:	29000020 	stmdbcs	r0, {r5}
    2060:	74025001 	strvc	r5, [r2], #-1
    2064:	51012900 	tstpl	r1, r0, lsl #18
    2068:	29300802 	ldmdbcs	r0!, {r1, fp}
    206c:	08025201 	stmdaeq	r2, {r0, r9, ip, lr}
    2070:	1c3c0030 	ldcne	0, cr0, [ip], #-192	; 0xffffff40
    2074:	0000011a 	andeq	r0, r0, sl, lsl r1
    2078:	9200000e 	andls	r0, r0, #14
    207c:	29000020 	stmdbcs	r0, {r5}
    2080:	74025001 	strvc	r5, [r2], #-1
    2084:	51012900 	tstpl	r1, r0, lsl #18
    2088:	29800802 	stmibcs	r0, {r1, fp}
    208c:	08025201 	stmdaeq	r2, {r0, r9, ip, lr}
    2090:	223c0080 	eorscs	r0, ip, #128	; 0x80
    2094:	7b00011a 	blvc	2504 <_init-0xe2d8>
    2098:	a6000006 	strge	r0, [r0], -r6
    209c:	29000020 	stmdbcs	r0, {r5}
    20a0:	74025001 	strvc	r5, [r2], #-1
    20a4:	70280000 	eorvc	r0, r8, r0
    20a8:	0000011a 	andeq	r0, r0, sl, lsl r1
    20ac:	2900000e 	stmdbcs	r0, {r1, r2, r3}
    20b0:	74025001 	strvc	r5, [r2], #-1
    20b4:	51012900 	tstpl	r1, r0, lsl #18
    20b8:	01293001 			; <UNDEFINED> instruction: 0x01293001
    20bc:	80080252 	andhi	r0, r8, r2, asr r2
    20c0:	283d0000 	ldmdacs	sp!, {}	; <UNPREDICTABLE>
    20c4:	01000012 	tsteq	r0, r2, lsl r0
    20c8:	1a900300 	bne	fe402cd0 <__bss_end__+0xfe3dec04>
    20cc:	00fc0001 	rscseq	r0, ip, r1
    20d0:	9c010000 	stcls	0, cr0, [r1], {-0}
    20d4:	00002293 	muleq	r0, r3, r2
    20d8:	00104141 	andseq	r4, r0, r1, asr #2
    20dc:	03000100 	movweq	r0, #256	; 0x100
    20e0:	000000b6 	strheq	r0, [r0], -r6
    20e4:	00001cab 	andeq	r1, r0, fp, lsr #25
    20e8:	000bb541 	andeq	fp, fp, r1, asr #10
    20ec:	03000100 	movweq	r0, #256	; 0x100
    20f0:	000000b6 	strheq	r0, [r0], -r6
    20f4:	00001ce2 	andeq	r1, r0, r2, ror #25
    20f8:	6e656c3e 	mcrvs	12, 3, r6, cr5, cr14, {1}
    20fc:	03000100 	movweq	r0, #256	; 0x100
    2100:	00000311 	andeq	r0, r0, r1, lsl r3
    2104:	00001d19 	andeq	r1, r0, r9, lsl sp
    2108:	000eb03f 	andeq	fp, lr, pc, lsr r0
    210c:	03020100 	movweq	r0, #8448	; 0x2100
    2110:	000006a2 	andeq	r0, r0, r2, lsr #13
    2114:	00001d50 	andeq	r1, r0, r0, asr sp
    2118:	0003ed3f 	andeq	lr, r3, pc, lsr sp
    211c:	03030100 	movweq	r0, #12544	; 0x3100
    2120:	000006a2 	andeq	r0, r0, r2, lsr #13
    2124:	00001d89 	andeq	r1, r0, r9, lsl #27
    2128:	0004973f 	andeq	r9, r4, pc, lsr r7
    212c:	03040100 	movweq	r0, #16640	; 0x4100
    2130:	00000311 	andeq	r0, r0, r1, lsl r3
    2134:	00001dcc 	andeq	r1, r0, ip, asr #27
    2138:	0008ea3f 	andeq	lr, r8, pc, lsr sl
    213c:	03050100 	movweq	r0, #20736	; 0x5100
    2140:	00000311 	andeq	r0, r0, r1, lsl r3
    2144:	00001e02 	andeq	r1, r0, r2, lsl #28
    2148:	0007ff43 	andeq	pc, r7, r3, asr #30
    214c:	011ac200 	tsteq	sl, r0, lsl #4
    2150:	00018000 	andeq	r8, r1, r0
    2154:	03180100 	tsteq	r8, #0, 2
    2158:	00002166 	andeq	r2, r0, r6, ror #2
    215c:	00080f26 	andeq	r0, r8, r6, lsr #30
    2160:	001e2c00 	andseq	r2, lr, r0, lsl #24
    2164:	ec430000 	mar	acc0, r0, r3
    2168:	e4000006 	str	r0, [r0], #-6
    216c:	a800011a 	stmdage	r0, {r1, r3, r4, r8}
    2170:	01000001 	tsteq	r0, r1
    2174:	219a0318 	orrscs	r0, sl, r8, lsl r3
    2178:	03260000 			; <UNDEFINED> instruction: 0x03260000
    217c:	3f000007 	svccc	0x00000007
    2180:	4b00001e 	blmi	2200 <_init-0xe5dc>
    2184:	000006f8 	strdeq	r0, [r0], -r8
    2188:	011b1828 	tsteq	fp, r8, lsr #16
    218c:	000a4900 	andeq	r4, sl, r0, lsl #18
    2190:	50012900 	andpl	r2, r1, r0, lsl #18
    2194:	06007d03 	streq	r7, [r0], -r3, lsl #26
    2198:	ad430000 	stclge	0, cr0, [r3, #-0]
    219c:	1a000006 	bne	21bc <_init-0xe620>
    21a0:	c000011b 	andgt	r0, r0, fp, lsl r1
    21a4:	01000001 	tsteq	r0, r1
    21a8:	21c40323 	biccs	r0, r4, r3, lsr #6
    21ac:	bd4b0000 	stcllt	0, cr0, [fp, #-0]
    21b0:	28000006 	stmdacs	r0, {r1, r2}
    21b4:	00011b2e 	andeq	r1, r1, lr, lsr #22
    21b8:	000009f4 	strdeq	r0, [r0], -r4
    21bc:	02500129 	subseq	r0, r0, #1073741834	; 0x4000000a
    21c0:	00000074 	andeq	r0, r0, r4, ror r0
    21c4:	0006ad43 	andeq	sl, r6, r3, asr #26
    21c8:	011b4e00 	tsteq	fp, r0, lsl #28
    21cc:	0001d800 	andeq	sp, r1, r0, lsl #16
    21d0:	031e0100 	tsteq	lr, #0, 2
    21d4:	000021ee 	andeq	r2, r0, lr, ror #3
    21d8:	0006bd4b 	andeq	fp, r6, fp, asr #26
    21dc:	1b862800 	blne	fe18c1e4 <__bss_end__+0xfe168118>
    21e0:	09f40001 	ldmibeq	r4!, {r0}^
    21e4:	01290000 			; <UNDEFINED> instruction: 0x01290000
    21e8:	00750250 	rsbseq	r0, r5, r0, asr r2
    21ec:	ff430000 			; <UNDEFINED> instruction: 0xff430000
    21f0:	50000007 	andpl	r0, r0, r7
    21f4:	f000011b 			; <UNDEFINED> instruction: 0xf000011b
    21f8:	01000001 	tsteq	r0, r1
    21fc:	220c031e 	andcs	r0, ip, #2013265920	; 0x78000000
    2200:	0f260000 	svceq	0x00260000
    2204:	5d000008 	stcpl	0, cr0, [r0, #-32]	; 0xffffffe0
    2208:	0000001e 	andeq	r0, r0, lr, lsl r0
    220c:	011abc3c 	tsteq	sl, ip, lsr ip
    2210:	000e0000 	andeq	r0, lr, r0
    2214:	00222c00 	eoreq	r2, r2, r0, lsl #24
    2218:	50012900 	andpl	r2, r1, r0, lsl #18
    221c:	29007402 	stmdbcs	r0, {r1, sl, ip, sp, lr}
    2220:	08025101 	stmdaeq	r2, {r0, r8, ip, lr}
    2224:	52012930 	andpl	r2, r1, #48, 18	; 0xc0000
    2228:	00300802 	eorseq	r0, r0, r2, lsl #16
    222c:	011aca3c 	tsteq	sl, ip, lsr sl
    2230:	000e0000 	andeq	r0, lr, r0
    2234:	00224c00 	eoreq	r4, r2, r0, lsl #24
    2238:	50012900 	andpl	r2, r1, r0, lsl #18
    223c:	29007402 	stmdbcs	r0, {r1, sl, ip, sp, lr}
    2240:	08025101 	stmdaeq	r2, {r0, r8, ip, lr}
    2244:	52012980 	andpl	r2, r1, #128, 18	; 0x200000
    2248:	00800802 	addeq	r0, r0, r2, lsl #16
    224c:	011aee3c 	tsteq	sl, ip, lsr lr
    2250:	00067b00 	andeq	r7, r6, r0, lsl #22
    2254:	00226000 	eoreq	r6, r2, r0
    2258:	50012900 	andpl	r2, r1, r0, lsl #18
    225c:	00007402 	andeq	r7, r0, r2, lsl #8
    2260:	011b424c 	tsteq	fp, ip, asr #4
    2264:	000e0000 	andeq	r0, lr, r0
    2268:	00228200 	eoreq	r8, r2, r0, lsl #4
    226c:	50012900 	andpl	r2, r1, r0, lsl #18
    2270:	06487d05 	strbeq	r7, [r8], -r5, lsl #26
    2274:	01291c34 			; <UNDEFINED> instruction: 0x01291c34
    2278:	29300151 	ldmdbcs	r0!, {r0, r4, r6, r8}
    227c:	08025201 	stmdaeq	r2, {r0, r9, ip, lr}
    2280:	6a280080 	bvs	a02488 <__bss_end__+0x9de3bc>
    2284:	7b00011b 	blvc	26f8 <_init-0xe0e4>
    2288:	29000006 	stmdbcs	r0, {r1, r2}
    228c:	74025001 	strvc	r5, [r2], #-1
    2290:	3d000000 	stccc	0, cr0, [r0, #-0]
    2294:	00000c51 	andeq	r0, r0, r1, asr ip
    2298:	8c032b01 	stchi	11, cr2, [r3], {1}
    229c:	e000011b 	and	r0, r0, fp, lsl r1
    22a0:	01000000 	mrseq	r0, (UNDEF: 0)
    22a4:	0024809c 	mlaeq	r4, ip, r0, r8
    22a8:	10414100 	subne	r4, r1, r0, lsl #2
    22ac:	2b010000 	blcs	422b4 <__bss_end__+0x1e1e8>
    22b0:	0002f003 	andeq	pc, r2, r3
    22b4:	001e7000 	andseq	r7, lr, r0
    22b8:	656c3e00 	strbvs	r3, [ip, #-3584]!	; 0xfffff200
    22bc:	2b01006e 	blcs	4247c <__bss_end__+0x1e3b0>
    22c0:	00031103 	andeq	r1, r3, r3, lsl #2
    22c4:	001ea700 	andseq	sl, lr, r0, lsl #14
    22c8:	0eb03f00 	cdpeq	15, 11, cr3, cr0, cr0, {0}
    22cc:	2d010000 	stccs	0, cr0, [r1, #-0]
    22d0:	0006a203 	andeq	sl, r6, r3, lsl #4
    22d4:	001ede00 	andseq	sp, lr, r0, lsl #28
    22d8:	03ed3f00 	mvneq	r3, #0, 30
    22dc:	2e010000 	cdpcs	0, 0, cr0, cr1, cr0, {0}
    22e0:	0006a203 	andeq	sl, r6, r3, lsl #4
    22e4:	001f0700 	andseq	r0, pc, r0, lsl #14
    22e8:	00694500 	rsbeq	r4, r9, r0, lsl #10
    22ec:	11032f01 	tstne	r3, r1, lsl #30
    22f0:	32000003 	andcc	r0, r0, #3
    22f4:	4300001f 	movwmi	r0, #31
    22f8:	000007ff 	strdeq	r0, [r0], -pc	; <UNPREDICTABLE>
    22fc:	00011bc0 	andeq	r1, r1, r0, asr #23
    2300:	00000208 	andeq	r0, r0, r8, lsl #4
    2304:	15034401 	strne	r4, [r3, #-1025]	; 0xfffffbff
    2308:	26000023 	strcs	r0, [r0], -r3, lsr #32
    230c:	0000080f 	andeq	r0, r0, pc, lsl #16
    2310:	00001f63 	andeq	r1, r0, r3, ror #30
    2314:	06ec4300 	strbteq	r4, [ip], r0, lsl #6
    2318:	1be60000 	blne	ff982320 <__bss_end__+0xff95e254>
    231c:	02280001 	eoreq	r0, r8, #1
    2320:	44010000 	strmi	r0, [r1], #-0
    2324:	00234803 	eoreq	r4, r3, r3, lsl #16
    2328:	07032600 	streq	r2, [r3, -r0, lsl #12]
    232c:	1f760000 	svcne	0x00760000
    2330:	f84b0000 			; <UNDEFINED> instruction: 0xf84b0000
    2334:	28000006 	stmdacs	r0, {r1, r2}
    2338:	00011c64 	andeq	r1, r1, r4, ror #24
    233c:	00000a49 	andeq	r0, r0, r9, asr #20
    2340:	02500129 	subseq	r0, r0, #1073741834	; 0x4000000a
    2344:	00000076 	andeq	r0, r0, r6, ror r0
    2348:	0006ad43 	andeq	sl, r6, r3, asr #26
    234c:	011bf800 	tsteq	fp, r0, lsl #16	; <UNPREDICTABLE>
    2350:	00024000 	andeq	r4, r2, r0
    2354:	03480100 	movteq	r0, #33024	; 0x8100
    2358:	00002372 	andeq	r2, r0, r2, ror r3
    235c:	0006bd4b 	andeq	fp, r6, fp, asr #26
    2360:	1c442800 	mcrrne	8, 0, r2, r4, cr0
    2364:	09f40001 	ldmibeq	r4!, {r0}^
    2368:	01290000 			; <UNDEFINED> instruction: 0x01290000
    236c:	00760250 	rsbseq	r0, r6, r0, asr r2
    2370:	ad430000 	stclge	0, cr0, [r3, #-0]
    2374:	0c000006 	stceq	0, cr0, [r0], {6}
    2378:	6000011c 	andvs	r0, r0, ip, lsl r1
    237c:	01000002 	tsteq	r0, r2
    2380:	239c034c 	orrscs	r0, ip, #76, 6	; 0x30000001
    2384:	bd4b0000 	stcllt	0, cr0, [fp, #-0]
    2388:	28000006 	stmdacs	r0, {r1, r2}
    238c:	00011c4c 	andeq	r1, r1, ip, asr #24
    2390:	000009f4 	strdeq	r0, [r0], -r4
    2394:	02500129 	subseq	r0, r0, #1073741834	; 0x4000000a
    2398:	00000074 	andeq	r0, r0, r4, ror r0
    239c:	0006ad43 	andeq	sl, r6, r3, asr #26
    23a0:	011c2000 	tsteq	ip, r0
    23a4:	00027800 	andeq	r7, r2, r0, lsl #16
    23a8:	034e0100 	movteq	r0, #57600	; 0xe100
    23ac:	000023c6 	andeq	r2, r0, r6, asr #7
    23b0:	0006bd4b 	andeq	fp, r6, fp, asr #26
    23b4:	1c3c2800 	ldcne	8, cr2, [ip], #-0
    23b8:	09f40001 	ldmibeq	r4!, {r0}^
    23bc:	01290000 			; <UNDEFINED> instruction: 0x01290000
    23c0:	00760250 	rsbseq	r0, r6, r0, asr r2
    23c4:	b03c0000 	eorslt	r0, ip, r0
    23c8:	0000011b 	andeq	r0, r0, fp, lsl r1
    23cc:	e600000e 	str	r0, [r0], -lr
    23d0:	29000023 	stmdbcs	r0, {r0, r1, r5}
    23d4:	74025001 	strvc	r5, [r2], #-1
    23d8:	51012900 	tstpl	r1, r0, lsl #18
    23dc:	29300802 	ldmdbcs	r0!, {r1, fp}
    23e0:	08025201 	stmdaeq	r2, {r0, r9, ip, lr}
    23e4:	ba3c0030 	blt	f024ac <__bss_end__+0xede3e0>
    23e8:	0000011b 	andeq	r0, r0, fp, lsl r1
    23ec:	0600000e 	streq	r0, [r0], -lr
    23f0:	29000024 	stmdbcs	r0, {r2, r5}
    23f4:	74025001 	strvc	r5, [r2], #-1
    23f8:	51012900 	tstpl	r1, r0, lsl #18
    23fc:	29800802 	stmibcs	r0, {r1, fp}
    2400:	08025201 	stmdaeq	r2, {r0, r9, ip, lr}
    2404:	d43c0080 	ldrtle	r0, [ip], #-128	; 0xffffff80
    2408:	7b00011b 	blvc	287c <_init-0xdf60>
    240c:	1a000006 	bne	242c <_init-0xe3b0>
    2410:	29000024 	stmdbcs	r0, {r2, r5}
    2414:	74025001 	strvc	r5, [r2], #-1
    2418:	f43c0000 			; <UNDEFINED> instruction: 0xf43c0000
    241c:	7b00011b 	blvc	2890 <_init-0xdf4c>
    2420:	2e000006 	cdpcs	0, 0, cr0, cr0, cr6, {0}
    2424:	29000024 	stmdbcs	r0, {r2, r5}
    2428:	74025001 	strvc	r5, [r2], #-1
    242c:	043c0000 	ldrteq	r0, [ip], #-0
    2430:	7b00011c 	blvc	28a8 <_init-0xdf34>
    2434:	42000006 	andmi	r0, r0, #6
    2438:	29000024 	stmdbcs	r0, {r2, r5}
    243c:	74025001 	strvc	r5, [r2], #-1
    2440:	1c3c0000 	ldcne	0, cr0, [ip], #-0
    2444:	7b00011c 	blvc	28bc <_init-0xdf20>
    2448:	56000006 	strpl	r0, [r0], -r6
    244c:	29000024 	stmdbcs	r0, {r2, r5}
    2450:	74025001 	strvc	r5, [r2], #-1
    2454:	2c3c0000 	ldccs	0, cr0, [ip], #-0
    2458:	7b00011c 	blvc	28d0 <_init-0xdf0c>
    245c:	6a000006 	bvs	247c <_init-0xe360>
    2460:	29000024 	stmdbcs	r0, {r2, r5}
    2464:	74025001 	strvc	r5, [r2], #-1
    2468:	5e2c0000 	cdppl	0, 2, cr0, cr12, cr0, {0}
    246c:	0000011c 	andeq	r0, r0, ip, lsl r1
    2470:	2900000e 	stmdbcs	r0, {r1, r2, r3}
    2474:	30015101 	andcc	r5, r1, r1, lsl #2
    2478:	02520129 	subseq	r0, r2, #1073741834	; 0x4000000a
    247c:	00008008 	andeq	r8, r0, r8
    2480:	000c1c3d 	andeq	r1, ip, sp, lsr ip
    2484:	03580100 	cmpeq	r8, #0, 2
    2488:	00011c6c 	andeq	r1, r1, ip, ror #24
    248c:	00000008 	andeq	r0, r0, r8
    2490:	24d69c01 	ldrbcs	r9, [r6], #3073	; 0xc01
    2494:	623e0000 	eorsvs	r0, lr, #0
    2498:	01006675 	tsteq	r0, r5, ror r6
    249c:	00b60358 	adcseq	r0, r6, r8, asr r3
    24a0:	1f940000 	svcne	0x00940000
    24a4:	6c3e0000 	ldcvs	0, cr0, [lr], #-0
    24a8:	01006e65 	tsteq	r0, r5, ror #28
    24ac:	03110358 	tsteq	r1, #88, 6	; 0x60000001
    24b0:	1fb50000 	svcne	0x00b50000
    24b4:	742c0000 	strtvc	r0, [ip], #-0
    24b8:	c200011c 	andgt	r0, r0, #28, 2
    24bc:	29000020 	stmdbcs	r0, {r5}
    24c0:	f3035001 	vhadd.u8	d5, d3, d1
    24c4:	01295001 			; <UNDEFINED> instruction: 0x01295001
    24c8:	01f30351 	mvnseq	r0, r1, asr r3
    24cc:	52012950 	andpl	r2, r1, #80, 18	; 0x140000
    24d0:	5101f303 	tstpl	r1, r3, lsl #6	; <UNPREDICTABLE>
    24d4:	9a3d0000 	bls	f424dc <__bss_end__+0xf1e410>
    24d8:	01000006 	tsteq	r0, r6
    24dc:	1c74035d 	ldclne	3, cr0, [r4], #-372	; 0xfffffe8c
    24e0:	00120001 	andseq	r0, r2, r1
    24e4:	9c010000 	stcls	0, cr0, [r1], {-0}
    24e8:	0000251b 	andeq	r2, r0, fp, lsl r5
    24ec:	0073633e 	rsbseq	r6, r3, lr, lsr r3
    24f0:	fb035d01 	blx	d98fe <__bss_end__+0xb5832>
    24f4:	e1000002 	tst	r0, r2
    24f8:	3f00001f 	svccc	0x0000001f
    24fc:	00000eb0 			; <UNDEFINED> instruction: 0x00000eb0
    2500:	a2035f01 	andge	r5, r3, #1, 30
    2504:	02000006 	andeq	r0, r0, #6
    2508:	2c000020 	stccs	0, cr0, [r0], {32}
    250c:	00011c86 	andeq	r1, r1, r6, lsl #25
    2510:	00000e00 	andeq	r0, r0, r0, lsl #28
    2514:	01520129 	cmpeq	r2, r9, lsr #2
    2518:	3d000033 	stccc	0, cr0, [r0, #-204]	; 0xffffff34
    251c:	00001462 	andeq	r1, r0, r2, ror #8
    2520:	88036401 	stmdahi	r3, {r0, sl, sp, lr}
    2524:	1800011c 	stmdane	r0, {r2, r3, r4, r8}
    2528:	01000000 	mrseq	r0, (UNDEF: 0)
    252c:	00257a9c 	mlaeq	r5, ip, sl, r7
    2530:	73633e00 	cmnvc	r3, #0, 28
    2534:	03640100 	cmneq	r4, #0, 2
    2538:	000002fb 	strdeq	r0, [r0], -fp
    253c:	00002019 	andeq	r2, r0, r9, lsl r0
    2540:	00086641 	andeq	r6, r8, r1, asr #12
    2544:	03640100 	cmneq	r4, #0, 2
    2548:	000002fb 	strdeq	r0, [r0], -fp
    254c:	0000203a 	andeq	r2, r0, sl, lsr r0
    2550:	000eb03f 	andeq	fp, lr, pc, lsr r0
    2554:	03660100 	cmneq	r6, #0, 2
    2558:	000006a2 	andeq	r0, r0, r2, lsr #13
    255c:	0000205b 	andeq	r2, r0, fp, asr r0
    2560:	0004843f 	andeq	r8, r4, pc, lsr r4
    2564:	03670100 	cmneq	r7, #0, 2
    2568:	000002fb 	strdeq	r0, [r0], -fp
    256c:	00002072 	andeq	r2, r0, r2, ror r0
    2570:	011ca039 	tsteq	ip, r9, lsr r0
    2574:	000e0000 	andeq	r0, lr, r0
    2578:	cf3d0000 	svcgt	0x003d0000
    257c:	01000012 	tsteq	r0, r2, lsl r0
    2580:	1ca0036c 	stcne	3, cr0, [r0], #432	; 0x1b0
    2584:	00820001 	addeq	r0, r2, r1
    2588:	9c010000 	stcls	0, cr0, [r1], {-0}
    258c:	000026cf 	andeq	r2, r0, pc, asr #13
    2590:	0003e841 	andeq	lr, r3, r1, asr #16
    2594:	036c0100 	cmneq	ip, #0, 2
    2598:	00000306 	andeq	r0, r0, r6, lsl #6
    259c:	00002097 	muleq	r0, r7, r0
    25a0:	000eb03f 	andeq	fp, lr, pc, lsr r0
    25a4:	03760100 	cmneq	r6, #0, 2
    25a8:	000006a2 	andeq	r0, r0, r2, lsr #13
    25ac:	000020b8 	strheq	r2, [r0], -r8
    25b0:	0003ed3f 	andeq	lr, r3, pc, lsr sp
    25b4:	03770100 	cmneq	r7, #0, 2
    25b8:	000006a2 	andeq	r0, r0, r2, lsr #13
    25bc:	000020e1 	andeq	r2, r0, r1, ror #1
    25c0:	0006ec43 	andeq	lr, r6, r3, asr #24
    25c4:	011ccc00 	tsteq	ip, r0, lsl #24
    25c8:	00029800 	andeq	r9, r2, r0, lsl #16
    25cc:	03840100 	orreq	r0, r4, #0, 2
    25d0:	000025f7 	strdeq	r2, [r0], -r7
    25d4:	00070326 	andeq	r0, r7, r6, lsr #6
    25d8:	00211000 	eoreq	r1, r1, r0
    25dc:	06f82600 	ldrbteq	r2, [r8], r0, lsl #12
    25e0:	213d0000 	teqcs	sp, r0
    25e4:	10280000 	eorne	r0, r8, r0
    25e8:	4900011d 	stmdbmi	r0, {r0, r2, r3, r4, r8}
    25ec:	2900000a 	stmdbcs	r0, {r1, r3}
    25f0:	77025001 	strvc	r5, [r2, -r1]
    25f4:	43000000 	movwmi	r0, #0
    25f8:	000006ec 	andeq	r0, r0, ip, ror #13
    25fc:	00011cde 	ldrdeq	r1, [r1], -lr
    2600:	000002b8 			; <UNDEFINED> instruction: 0x000002b8
    2604:	37038501 	strcc	r8, [r3, -r1, lsl #10]
    2608:	26000026 	strcs	r0, [r0], -r6, lsr #32
    260c:	00000703 	andeq	r0, r0, r3, lsl #14
    2610:	0000215f 	andeq	r2, r0, pc, asr r1
    2614:	0006f826 	andeq	pc, r6, r6, lsr #16
    2618:	00218d00 	eoreq	r8, r1, r0, lsl #26
    261c:	1d1e2800 	ldcne	8, cr2, [lr, #-0]
    2620:	0a490001 	beq	124262c <__bss_end__+0x121e560>
    2624:	01290000 			; <UNDEFINED> instruction: 0x01290000
    2628:	00770250 	rsbseq	r0, r7, r0, asr r2
    262c:	05510129 	ldrbeq	r0, [r1, #-297]	; 0xfffffed7
    2630:	ff080076 			; <UNDEFINED> instruction: 0xff080076
    2634:	4300001a 	movwmi	r0, #26
    2638:	000006ad 	andeq	r0, r0, sp, lsr #13
    263c:	00011ce2 	andeq	r1, r1, r2, ror #25
    2640:	000002d8 	ldrdeq	r0, [r0], -r8
    2644:	65038901 	strvs	r8, [r3, #-2305]	; 0xfffff6ff
    2648:	26000026 	strcs	r0, [r0], -r6, lsr #32
    264c:	000006bd 			; <UNDEFINED> instruction: 0x000006bd
    2650:	000021bc 			; <UNDEFINED> instruction: 0x000021bc
    2654:	011cf628 	tsteq	ip, r8, lsr #12	; <UNPREDICTABLE>
    2658:	0009f400 	andeq	pc, r9, r0, lsl #8
    265c:	50012900 	andpl	r2, r1, r0, lsl #18
    2660:	00007402 	andeq	r7, r0, r2, lsl #8
    2664:	1cb83c00 	ldcne	12, cr3, [r8]
    2668:	0e000001 	cdpeq	0, 0, cr0, cr0, cr1, {0}
    266c:	26850000 	strcs	r0, [r5], r0
    2670:	01290000 			; <UNDEFINED> instruction: 0x01290000
    2674:	00740250 	rsbseq	r0, r4, r0, asr r2
    2678:	02510129 	subseq	r0, r1, #1073741834	; 0x4000000a
    267c:	01293008 			; <UNDEFINED> instruction: 0x01293008
    2680:	30080252 	andcc	r0, r8, r2, asr r2
    2684:	1cc23c00 	stclne	12, cr3, [r2], {0}
    2688:	0e000001 	cdpeq	0, 0, cr0, cr0, cr1, {0}
    268c:	26a50000 	strtcs	r0, [r5], r0
    2690:	01290000 			; <UNDEFINED> instruction: 0x01290000
    2694:	00740250 	rsbseq	r0, r4, r0, asr r2
    2698:	02510129 	subseq	r0, r1, #1073741834	; 0x4000000a
    269c:	01298008 			; <UNDEFINED> instruction: 0x01298008
    26a0:	80080252 	andhi	r0, r8, r2, asr r2
    26a4:	1cc83c00 	stclne	12, cr3, [r8], {0}
    26a8:	067b0001 	ldrbteq	r0, [fp], -r1
    26ac:	26b90000 	ldrtcs	r0, [r9], r0
    26b0:	01290000 			; <UNDEFINED> instruction: 0x01290000
    26b4:	00740250 	rsbseq	r0, r4, r0, asr r2
    26b8:	1d082c00 	stcne	12, cr2, [r8, #-0]
    26bc:	0e000001 	cdpeq	0, 0, cr0, cr0, cr1, {0}
    26c0:	01290000 			; <UNDEFINED> instruction: 0x01290000
    26c4:	29300151 	ldmdbcs	r0!, {r0, r4, r6, r8}
    26c8:	08025201 	stmdaeq	r2, {r0, r9, ip, lr}
    26cc:	40000080 	andmi	r0, r0, r0, lsl #1
    26d0:	00000b85 	andeq	r0, r0, r5, lsl #23
    26d4:	61039101 	tstvs	r3, r1, lsl #2
    26d8:	24000000 	strcs	r0, [r0], #-0
    26dc:	7c00011d 	stfvcs	f0, [r0], {29}
    26e0:	01000000 	mrseq	r0, (UNDEF: 0)
    26e4:	0029289c 	mlaeq	r9, ip, r8, r2
    26e8:	09203f00 	stmdbeq	r0!, {r8, r9, sl, fp, ip, sp}
    26ec:	93010000 	movwls	r0, #4096	; 0x1000
    26f0:	0006a203 	andeq	sl, r6, r3, lsl #4
    26f4:	0021da00 	eoreq	sp, r1, r0, lsl #20
    26f8:	00814a00 	addeq	r4, r1, r0, lsl #20
    26fc:	94010000 	strls	r0, [r1], #-0
    2700:	0006a203 	andeq	sl, r6, r3, lsl #4
    2704:	3f550100 	svccc	0x00550100
    2708:	00000fb7 			; <UNDEFINED> instruction: 0x00000fb7
    270c:	a2039501 	andge	r9, r3, #4194304	; 0x400000
    2710:	1a000006 	bne	2730 <_init-0xe0ac>
    2714:	33000022 	movwcc	r0, #34	; 0x22
    2718:	00000783 	andeq	r0, r0, r3, lsl #15
    271c:	00011d38 	andeq	r1, r1, r8, lsr sp
    2720:	00000012 	andeq	r0, r0, r2, lsl r0
    2724:	84039b01 	strhi	r9, [r3], #-2817	; 0xfffff4ff
    2728:	26000027 	strcs	r0, [r0], -r7, lsr #32
    272c:	0000079c 	muleq	r0, ip, r7
    2730:	00002247 	andeq	r2, r0, r7, asr #4
    2734:	00079026 	andeq	r9, r7, r6, lsr #32
    2738:	00225b00 	eoreq	r5, r2, r0, lsl #22
    273c:	1d383100 	ldfnes	f3, [r8, #-0]
    2740:	00120001 	andseq	r0, r2, r1
    2744:	a82f0000 	stmdage	pc!, {}	; <UNPREDICTABLE>
    2748:	6f000007 	svcvs	0x00000007
    274c:	2f000022 	svccs	0x00000022
    2750:	000007b4 			; <UNDEFINED> instruction: 0x000007b4
    2754:	00002295 	muleq	r0, r5, r2
    2758:	0007c02f 	andeq	ip, r7, pc, lsr #32
    275c:	0022a900 	eoreq	sl, r2, r0, lsl #18
    2760:	07cc2f00 	strbeq	r2, [ip, r0, lsl #30]
    2764:	22bf0000 	adcscs	r0, pc, #0
    2768:	4a280000 	bmi	a02770 <__bss_end__+0x9de6a4>
    276c:	0000011d 	andeq	r0, r0, sp, lsl r1
    2770:	2900000e 	stmdbcs	r0, {r1, r2, r3}
    2774:	48035101 	stmdami	r3, {r0, r8, ip, lr}
    2778:	0129243f 			; <UNDEFINED> instruction: 0x0129243f
    277c:	404c0352 	submi	r0, ip, r2, asr r3
    2780:	00000024 	andeq	r0, r0, r4, lsr #32
    2784:	00078333 	andeq	r8, r7, r3, lsr r3
    2788:	011d4a00 	tsteq	sp, r0, lsl #20
    278c:	00001000 	andeq	r1, r0, r0
    2790:	039c0100 	orrseq	r0, ip, #0, 2
    2794:	000027f1 	strdeq	r2, [r0], -r1
    2798:	00079c26 	andeq	r9, r7, r6, lsr #24
    279c:	0022d500 	eoreq	sp, r2, r0, lsl #10
    27a0:	07902600 	ldreq	r2, [r0, r0, lsl #12]
    27a4:	22e90000 	rsccs	r0, r9, #0
    27a8:	4a310000 	bmi	c427b0 <__bss_end__+0xc1e6e4>
    27ac:	1000011d 	andne	r0, r0, sp, lsl r1
    27b0:	2f000000 	svccs	0x00000000
    27b4:	000007a8 	andeq	r0, r0, r8, lsr #15
    27b8:	000022fd 	strdeq	r2, [r0], -sp
    27bc:	0007b42f 	andeq	fp, r7, pc, lsr #8
    27c0:	00232300 	eoreq	r2, r3, r0, lsl #6
    27c4:	07c02f00 	strbeq	r2, [r0, r0, lsl #30]
    27c8:	23370000 	teqcs	r7, #0
    27cc:	cc2f0000 	stcgt	0, cr0, [pc], #-0	; 27d4 <_init-0xe008>
    27d0:	4d000007 	stcmi	0, cr0, [r0, #-28]	; 0xffffffe4
    27d4:	28000023 	stmdacs	r0, {r0, r1, r5}
    27d8:	00011d5a 	andeq	r1, r1, sl, asr sp
    27dc:	00000e00 	andeq	r0, r0, r0, lsl #28
    27e0:	03510129 	cmpeq	r1, #1073741834	; 0x4000000a
    27e4:	29244848 	stmdbcs	r4!, {r3, r6, fp, lr}
    27e8:	4c035201 	sfmmi	f5, 4, [r3], {1}
    27ec:	00002449 	andeq	r2, r0, r9, asr #8
    27f0:	07833300 	streq	r3, [r3, r0, lsl #6]
    27f4:	1d5a0000 	ldclne	0, cr0, [sl, #-0]
    27f8:	000c0001 	andeq	r0, ip, r1
    27fc:	9d010000 	stcls	0, cr0, [r1, #-0]
    2800:	00285a03 	eoreq	r5, r8, r3, lsl #20
    2804:	079c2600 	ldreq	r2, [ip, r0, lsl #12]
    2808:	23630000 	cmncs	r3, #0
    280c:	90260000 	eorls	r0, r6, r0
    2810:	77000007 	strvc	r0, [r0, -r7]
    2814:	31000023 	tstcc	r0, r3, lsr #32
    2818:	00011d5a 	andeq	r1, r1, sl, asr sp
    281c:	0000000c 	andeq	r0, r0, ip
    2820:	0007a82f 	andeq	sl, r7, pc, lsr #16
    2824:	00238b00 	eoreq	r8, r3, r0, lsl #22
    2828:	07b42f00 	ldreq	r2, [r4, r0, lsl #30]!
    282c:	23b10000 			; <UNDEFINED> instruction: 0x23b10000
    2830:	c02f0000 	eorgt	r0, pc, r0
    2834:	c5000007 	strgt	r0, [r0, #-7]
    2838:	2f000023 	svccs	0x00000023
    283c:	000007cc 	andeq	r0, r0, ip, asr #15
    2840:	00002363 	andeq	r2, r0, r3, ror #6
    2844:	011d6628 	tsteq	sp, r8, lsr #12
    2848:	000e0000 	andeq	r0, lr, r0
    284c:	51012900 	tstpl	r1, r0, lsl #18
    2850:	01293301 			; <UNDEFINED> instruction: 0x01293301
    2854:	00370152 	eorseq	r0, r7, r2, asr r1
    2858:	83330000 	teqhi	r3, #0
    285c:	66000007 	strvs	r0, [r0], -r7
    2860:	0c00011d 	stfeqs	f0, [r0], {29}
    2864:	01000000 	mrseq	r0, (UNDEF: 0)
    2868:	28c4039e 	stmiacs	r4, {r1, r2, r3, r4, r7, r8, r9}^
    286c:	9c260000 	stcls	0, cr0, [r6], #-0
    2870:	d9000007 	stmdble	r0, {r0, r1, r2}
    2874:	26000023 	strcs	r0, [r0], -r3, lsr #32
    2878:	00000790 	muleq	r0, r0, r7
    287c:	000023ed 	andeq	r2, r0, sp, ror #7
    2880:	011d6631 	tsteq	sp, r1, lsr r6
    2884:	00000c00 	andeq	r0, r0, r0, lsl #24
    2888:	07a82f00 	streq	r2, [r8, r0, lsl #30]!
    288c:	24010000 	strcs	r0, [r1], #-0
    2890:	b42f0000 	strtlt	r0, [pc], #-0	; 2898 <_init-0xdf44>
    2894:	d9000007 	stmdble	r0, {r0, r1, r2}
    2898:	2f000023 	svccs	0x00000023
    289c:	000007c0 	andeq	r0, r0, r0, asr #15
    28a0:	00002427 	andeq	r2, r0, r7, lsr #8
    28a4:	0007cc2f 	andeq	ip, r7, pc, lsr #24
    28a8:	00243c00 	eoreq	r3, r4, r0, lsl #24
    28ac:	1d722800 	ldclne	8, cr2, [r2, #-0]
    28b0:	0e000001 	cdpeq	0, 0, cr0, cr0, cr1, {0}
    28b4:	01290000 			; <UNDEFINED> instruction: 0x01290000
    28b8:	29480151 	stmdbcs	r8, {r0, r4, r6, r8}^
    28bc:	08025201 	stmdaeq	r2, {r0, r9, ip, lr}
    28c0:	00000038 	andeq	r0, r0, r8, lsr r0
    28c4:	00081943 	andeq	r1, r8, r3, asr #18
    28c8:	011d7200 	tsteq	sp, r0, lsl #4
    28cc:	0002f000 	andeq	pc, r2, r0
    28d0:	03a00100 	moveq	r0, #0, 2
    28d4:	000028de 	ldrdeq	r2, [r0], -lr
    28d8:	0008264b 	andeq	r2, r8, fp, asr #12
    28dc:	863c0000 	ldrthi	r0, [ip], -r0
    28e0:	c900011d 	stmdbgt	r0, {r0, r2, r3, r4, r8}
    28e4:	f7000006 			; <UNDEFINED> instruction: 0xf7000006
    28e8:	29000028 	stmdbcs	r0, {r3, r5}
    28ec:	76025001 	strvc	r5, [r2], -r1
    28f0:	51012900 	tstpl	r1, r0, lsl #18
    28f4:	3c003201 	sfmcc	f3, 4, [r0], {1}
    28f8:	00011d8e 	andeq	r1, r1, lr, lsl #27
    28fc:	000006c9 	andeq	r0, r0, r9, asr #13
    2900:	00002910 	andeq	r2, r0, r0, lsl r9
    2904:	02500129 	subseq	r0, r0, #1073741834	; 0x4000000a
    2908:	01290077 			; <UNDEFINED> instruction: 0x01290077
    290c:	00300151 	eorseq	r0, r0, r1, asr r1
    2910:	011d9828 	tsteq	sp, r8, lsr #16
    2914:	0006c900 	andeq	ip, r6, r0, lsl #18
    2918:	50012900 	andpl	r2, r1, r0, lsl #18
    291c:	29007502 	stmdbcs	r0, {r1, r8, sl, ip, sp, lr}
    2920:	0a035101 	beq	d6d2c <__bss_end__+0xb2c60>
    2924:	00000200 	andeq	r0, r0, r0, lsl #4
    2928:	0002a33d 	andeq	sl, r2, sp, lsr r3
    292c:	03a90100 			; <UNDEFINED> instruction: 0x03a90100
    2930:	00011da0 	andeq	r1, r1, r0, lsr #27
    2934:	00000042 	andeq	r0, r0, r2, asr #32
    2938:	2ad19c01 	bcs	ff469944 <__bss_end__+0xff445878>
    293c:	83330000 	teqhi	r3, #0
    2940:	a2000007 	andge	r0, r0, #7
    2944:	1600011d 			; <UNDEFINED> instruction: 0x1600011d
    2948:	01000000 	mrseq	r0, (UNDEF: 0)
    294c:	29a903ac 	stmibcs	r9!, {r2, r3, r5, r7, r8, r9}
    2950:	9c260000 	stcls	0, cr0, [r6], #-0
    2954:	50000007 	andpl	r0, r0, r7
    2958:	26000024 	strcs	r0, [r0], -r4, lsr #32
    295c:	00000790 	muleq	r0, r0, r7
    2960:	00002464 	andeq	r2, r0, r4, ror #8
    2964:	011da231 	tsteq	sp, r1, lsr r2
    2968:	00001600 	andeq	r1, r0, r0, lsl #12
    296c:	07a82f00 	streq	r2, [r8, r0, lsl #30]!
    2970:	24780000 	ldrbtcs	r0, [r8], #-0
    2974:	b42f0000 	strtlt	r0, [pc], #-0	; 297c <_init-0xde60>
    2978:	9e000007 	cdpls	0, 0, cr0, cr0, cr7, {0}
    297c:	2f000024 	svccs	0x00000024
    2980:	000007c0 	andeq	r0, r0, r0, asr #15
    2984:	000024b2 			; <UNDEFINED> instruction: 0x000024b2
    2988:	0007cc2f 	andeq	ip, r7, pc, lsr #24
    298c:	00245000 	eoreq	r5, r4, r0
    2990:	1db82800 	ldcne	8, cr2, [r8]
    2994:	0e000001 	cdpeq	0, 0, cr0, cr0, cr1, {0}
    2998:	01290000 			; <UNDEFINED> instruction: 0x01290000
    299c:	29300151 	ldmdbcs	r0!, {r0, r4, r6, r8}
    29a0:	4c035201 	sfmmi	f5, 4, [r3], {1}
    29a4:	00002440 	andeq	r2, r0, r0, asr #8
    29a8:	07833300 	streq	r3, [r3, r0, lsl #6]
    29ac:	1db80000 	ldcne	0, cr0, [r8]
    29b0:	000e0001 	andeq	r0, lr, r1
    29b4:	ad010000 	stcge	0, cr0, [r1, #-0]
    29b8:	002a1403 	eoreq	r1, sl, r3, lsl #8
    29bc:	079c2600 	ldreq	r2, [ip, r0, lsl #12]
    29c0:	24c80000 	strbcs	r0, [r8], #0
    29c4:	90260000 	eorls	r0, r6, r0
    29c8:	dc000007 	stcle	0, cr0, [r0], {7}
    29cc:	31000024 	tstcc	r0, r4, lsr #32
    29d0:	00011db8 			; <UNDEFINED> instruction: 0x00011db8
    29d4:	0000000e 	andeq	r0, r0, lr
    29d8:	0007a82f 	andeq	sl, r7, pc, lsr #16
    29dc:	0024f000 	eoreq	pc, r4, r0
    29e0:	07b42f00 	ldreq	r2, [r4, r0, lsl #30]!
    29e4:	25160000 	ldrcs	r0, [r6, #-0]
    29e8:	c02f0000 	eorgt	r0, pc, r0
    29ec:	2a000007 	bcs	2a10 <_init-0xddcc>
    29f0:	2f000025 	svccs	0x00000025
    29f4:	000007cc 	andeq	r0, r0, ip, asr #15
    29f8:	000024c8 	andeq	r2, r0, r8, asr #9
    29fc:	011dc628 	tsteq	sp, r8, lsr #12
    2a00:	000e0000 	andeq	r0, lr, r0
    2a04:	51012900 	tstpl	r1, r0, lsl #18
    2a08:	01293001 			; <UNDEFINED> instruction: 0x01293001
    2a0c:	494c0352 	stmdbmi	ip, {r1, r4, r6, r8, r9}^
    2a10:	00000024 	andeq	r0, r0, r4, lsr #32
    2a14:	00078333 	andeq	r8, r7, r3, lsr r3
    2a18:	011dc600 	tsteq	sp, r0, lsl #12
    2a1c:	00000c00 	andeq	r0, r0, r0, lsl #24
    2a20:	03ae0100 			; <UNDEFINED> instruction: 0x03ae0100
    2a24:	00002a7d 	andeq	r2, r0, sp, ror sl
    2a28:	00079c26 	andeq	r9, r7, r6, lsr #24
    2a2c:	00254000 	eoreq	r4, r5, r0
    2a30:	07902600 	ldreq	r2, [r0, r0, lsl #12]
    2a34:	25540000 	ldrbcs	r0, [r4, #-0]
    2a38:	c6310000 	ldrtgt	r0, [r1], -r0
    2a3c:	0c00011d 	stfeqs	f0, [r0], {29}
    2a40:	2f000000 	svccs	0x00000000
    2a44:	000007a8 	andeq	r0, r0, r8, lsr #15
    2a48:	00002568 	andeq	r2, r0, r8, ror #10
    2a4c:	0007b42f 	andeq	fp, r7, pc, lsr #8
    2a50:	00254000 	eoreq	r4, r5, r0
    2a54:	07c02f00 	strbeq	r2, [r0, r0, lsl #30]
    2a58:	258e0000 	strcs	r0, [lr]
    2a5c:	cc2f0000 	stcgt	0, cr0, [pc], #-0	; 2a64 <_init-0xdd78>
    2a60:	40000007 	andmi	r0, r0, r7
    2a64:	28000025 	stmdacs	r0, {r0, r2, r5}
    2a68:	00011dd2 	ldrdeq	r1, [r1], -r2
    2a6c:	00000e00 	andeq	r0, r0, r0, lsl #28
    2a70:	01510129 	cmpeq	r1, r9, lsr #2
    2a74:	52012930 	andpl	r2, r1, #48, 18	; 0xc0000
    2a78:	00003701 	andeq	r3, r0, r1, lsl #14
    2a7c:	07834400 	streq	r4, [r3, r0, lsl #8]
    2a80:	1dd20000 	ldclne	0, cr0, [r2]
    2a84:	03080001 	movweq	r0, #32769	; 0x8001
    2a88:	af010000 	svcge	0x00010000
    2a8c:	079c4603 	ldreq	r4, [ip, r3, lsl #12]
    2a90:	46000000 	strmi	r0, [r0], -r0
    2a94:	00000790 	muleq	r0, r0, r7
    2a98:	03083a15 	movweq	r3, #35349	; 0x8a15
    2a9c:	a82f0000 	stmdage	pc!, {}	; <UNPREDICTABLE>
    2aa0:	a2000007 	andge	r0, r0, #7
    2aa4:	47000025 	strmi	r0, [r0, -r5, lsr #32]
    2aa8:	000007b4 			; <UNDEFINED> instruction: 0x000007b4
    2aac:	07c04703 	strbeq	r4, [r0, r3, lsl #14]
    2ab0:	47380000 	ldrmi	r0, [r8, -r0]!
    2ab4:	000007cc 	andeq	r0, r0, ip, asr #15
    2ab8:	1de22c00 	stclne	12, cr2, [r2]
    2abc:	0e000001 	cdpeq	0, 0, cr0, cr0, cr1, {0}
    2ac0:	01290000 			; <UNDEFINED> instruction: 0x01290000
    2ac4:	29300151 	ldmdbcs	r0!, {r0, r4, r6, r8}
    2ac8:	08025201 	stmdaeq	r2, {r0, r9, ip, lr}
    2acc:	00000038 	andeq	r0, r0, r8, lsr r0
    2ad0:	08334d00 	ldmdaeq	r3!, {r8, sl, fp, lr}
    2ad4:	1de40000 	stclne	0, cr0, [r4]
    2ad8:	00440001 	subeq	r0, r4, r1
    2adc:	9c010000 	stcls	0, cr0, [r1], {-0}
    2ae0:	00002af7 	strdeq	r2, [r0], -r7
    2ae4:	00084426 	andeq	r4, r8, r6, lsr #8
    2ae8:	0025c800 	eoreq	ip, r5, r0, lsl #16
    2aec:	08502f00 	ldmdaeq	r0, {r8, r9, sl, fp, sp}^
    2af0:	261b0000 	ldrcs	r0, [fp], -r0
    2af4:	25000000 	strcs	r0, [r0, #-0]
    2af8:	00000819 	andeq	r0, r0, r9, lsl r8
    2afc:	00011e28 	andeq	r1, r1, r8, lsr #28
    2b00:	0000000c 	andeq	r0, r0, ip
    2b04:	2b129c01 	blcs	4a9b10 <__bss_end__+0x485a44>
    2b08:	262b0000 	strtcs	r0, [fp], -r0
    2b0c:	01000008 	tsteq	r0, r8
    2b10:	433d0050 	teqmi	sp, #80	; 0x50
    2b14:	0100000d 	tsteq	r0, sp
    2b18:	1e3403ce 	cdpne	3, 3, cr0, cr4, cr14, {6}
    2b1c:	00500001 	subseq	r0, r0, r1
    2b20:	9c010000 	stcls	0, cr0, [r1], {-0}
    2b24:	00002bd2 	ldrdeq	r2, [r0], -r2	; <UNPREDICTABLE>
    2b28:	0003e841 	andeq	lr, r3, r1, asr #16
    2b2c:	03ce0100 	biceq	r0, lr, #0, 2
    2b30:	00000306 	andeq	r0, r0, r6, lsl #6
    2b34:	0000265b 	andeq	r2, r0, fp, asr r6
    2b38:	0000813f 	andeq	r8, r0, pc, lsr r1
    2b3c:	03d00100 	bicseq	r0, r0, #0, 2
    2b40:	000006a2 	andeq	r0, r0, r2, lsr #13
    2b44:	0000267c 	andeq	r2, r0, ip, ror r6
    2b48:	000fb73f 	andeq	fp, pc, pc, lsr r7	; <UNPREDICTABLE>
    2b4c:	03d10100 	bicseq	r0, r1, #0, 2
    2b50:	000006a2 	andeq	r0, r0, r2, lsr #13
    2b54:	0000269c 	muleq	r0, ip, r6
    2b58:	0001df3f 	andeq	sp, r1, pc, lsr pc
    2b5c:	03d20100 	bicseq	r0, r2, #0, 2
    2b60:	000006a2 	andeq	r0, r0, r2, lsr #13
    2b64:	000026d6 	ldrdeq	r2, [r0], -r6
    2b68:	006f6945 	rsbeq	r6, pc, r5, asr #18
    2b6c:	a203d301 	andge	sp, r3, #67108864	; 0x4000000
    2b70:	f6000006 			; <UNDEFINED> instruction: 0xf6000006
    2b74:	3f000026 	svccc	0x00000026
    2b78:	00000080 	andeq	r0, r0, r0, lsl #1
    2b7c:	1103d501 	tstne	r3, r1, lsl #10
    2b80:	14000003 	strne	r0, [r0], #-3
    2b84:	3c000027 	stccc	0, cr0, [r0], {39}	; 0x27
    2b88:	00011e66 	andeq	r1, r1, r6, ror #28
    2b8c:	000006c9 	andeq	r0, r0, r9, asr #13
    2b90:	00002b9b 	muleq	r0, fp, fp
    2b94:	02500129 	subseq	r0, r0, #1073741834	; 0x4000000a
    2b98:	3c000075 	stccc	0, cr0, [r0], {117}	; 0x75
    2b9c:	00011e6e 	andeq	r1, r1, lr, ror #28
    2ba0:	000006c9 	andeq	r0, r0, r9, asr #13
    2ba4:	00002bb4 			; <UNDEFINED> instruction: 0x00002bb4
    2ba8:	02500129 	subseq	r0, r0, #1073741834	; 0x4000000a
    2bac:	01290475 			; <UNDEFINED> instruction: 0x01290475
    2bb0:	00320151 	eorseq	r0, r2, r1, asr r1
    2bb4:	011e743c 	tsteq	lr, ip, lsr r4
    2bb8:	00067b00 	andeq	r7, r6, r0, lsl #22
    2bbc:	002bc800 	eoreq	ip, fp, r0, lsl #16
    2bc0:	50012900 	andpl	r2, r1, r0, lsl #18
    2bc4:	00007402 	andeq	r7, r0, r2, lsl #8
    2bc8:	011e8439 	tsteq	lr, r9, lsr r4
    2bcc:	0006c900 	andeq	ip, r6, r0, lsl #18
    2bd0:	943d0000 	ldrtls	r0, [sp], #-0
    2bd4:	01000010 	tsteq	r0, r0, lsl r0
    2bd8:	1e8403e4 	cdpne	3, 8, cr0, cr4, cr4, {7}
    2bdc:	00a40001 	adceq	r0, r4, r1
    2be0:	9c010000 	stcls	0, cr0, [r1], {-0}
    2be4:	00002d27 	andeq	r2, r0, r7, lsr #26
    2be8:	00104141 	andseq	r4, r0, r1, asr #2
    2bec:	03e40100 	mvneq	r0, #0, 2
    2bf0:	000002f0 	strdeq	r0, [r0], -r0	; <UNPREDICTABLE>
    2bf4:	00002731 	andeq	r2, r0, r1, lsr r7
    2bf8:	6e656c3e 	mcrvs	12, 3, r6, cr5, cr14, {1}
    2bfc:	03e40100 	mvneq	r0, #0, 2
    2c00:	00000311 	andeq	r0, r0, r1, lsl r3
    2c04:	0000275d 	andeq	r2, r0, sp, asr r7
    2c08:	0000814a 	andeq	r8, r0, sl, asr #2
    2c0c:	03e50100 	mvneq	r0, #0, 2
    2c10:	000006a2 	andeq	r0, r0, r2, lsr #13
    2c14:	b73f5901 	ldrlt	r5, [pc, -r1, lsl #18]!
    2c18:	0100000f 	tsteq	r0, pc
    2c1c:	06a203e6 	strteq	r0, [r2], r6, ror #7
    2c20:	27890000 	strcs	r0, [r9, r0]
    2c24:	df4a0000 	svcle	0x004a0000
    2c28:	01000001 	tsteq	r0, r1
    2c2c:	06a203e7 	strteq	r0, [r2], r7, ror #7
    2c30:	55010000 	strpl	r0, [r1, #-0]
    2c34:	000c7d4a 	andeq	r7, ip, sl, asr #26
    2c38:	03e80100 	mvneq	r0, #0, 2
    2c3c:	000006a2 	andeq	r0, r0, r2, lsr #13
    2c40:	694e5801 	stmdbvs	lr, {r0, fp, ip, lr}^
    2c44:	e901006f 	stmdb	r1, {r0, r1, r2, r3, r5, r6}
    2c48:	0006a203 	andeq	sl, r6, r3, lsl #4
    2c4c:	45570100 	ldrbmi	r0, [r7, #-256]	; 0xffffff00
    2c50:	01007874 	tsteq	r0, r4, ror r8
    2c54:	00b603eb 	adcseq	r0, r6, fp, ror #7
    2c58:	27b60000 	ldrcs	r0, [r6, r0]!
    2c5c:	cf3f0000 	svcgt	0x003f0000
    2c60:	01000005 	tsteq	r0, r5
    2c64:	031103ec 	tsteq	r1, #236, 6	; 0xb0000003
    2c68:	27fb0000 	ldrbcs	r0, [fp, r0]!
    2c6c:	0b3f0000 	bleq	fc2c74 <__bss_end__+0xf9eba8>
    2c70:	0100000a 	tsteq	r0, sl
    2c74:	031103ed 	tsteq	r1, #-1275068413	; 0xb4000003
    2c78:	28190000 	ldmdacs	r9, {}	; <UNPREDICTABLE>
    2c7c:	e83f0000 	ldmda	pc!, {}	; <UNPREDICTABLE>
    2c80:	01000003 	tsteq	r0, r3
    2c84:	031103ee 	tsteq	r1, #-1207959549	; 0xb8000003
    2c88:	282c0000 	stmdacs	ip!, {}	; <UNPREDICTABLE>
    2c8c:	69450000 	stmdbvs	r5, {}^	; <UNPREDICTABLE>
    2c90:	03ef0100 	mvneq	r0, #0, 2
    2c94:	00000311 	andeq	r0, r0, r1, lsl r3
    2c98:	00002856 	andeq	r2, r0, r6, asr r8
    2c9c:	0011261e 	andseq	r2, r1, lr, lsl r6
    2ca0:	03f00100 	mvnseq	r0, #0, 2
    2ca4:	000002fb 	strdeq	r0, [r0], -fp
    2ca8:	0000803f 	andeq	r8, r0, pc, lsr r0
    2cac:	03f20100 	mvnseq	r0, #0, 2
    2cb0:	00000311 	andeq	r0, r0, r1, lsl r3
    2cb4:	0000286a 	andeq	r2, r0, sl, ror #16
    2cb8:	011ec03c 	tsteq	lr, ip, lsr r0
    2cbc:	0006c900 	andeq	ip, r6, r0, lsl #18
    2cc0:	002ccc00 	eoreq	ip, ip, r0, lsl #24
    2cc4:	50012900 	andpl	r2, r1, r0, lsl #18
    2cc8:	00007902 	andeq	r7, r0, r2, lsl #18
    2ccc:	011eca3c 	tsteq	lr, ip, lsr sl
    2cd0:	0006c900 	andeq	ip, r6, r0, lsl #18
    2cd4:	002ce500 	eoreq	lr, ip, r0, lsl #10
    2cd8:	50012900 	andpl	r2, r1, r0, lsl #18
    2cdc:	29047902 	stmdbcs	r4, {r1, r8, fp, ip, sp, lr}
    2ce0:	32015101 	andcc	r5, r1, #1073741824	; 0x40000000
    2ce4:	1ed23c00 	cdpne	12, 13, cr3, cr2, cr0, {0}
    2ce8:	067b0001 	ldrbteq	r0, [fp], -r1
    2cec:	2cf90000 	ldclcs	0, cr0, [r9]
    2cf0:	01290000 			; <UNDEFINED> instruction: 0x01290000
    2cf4:	00750250 	rsbseq	r0, r5, r0, asr r2
    2cf8:	1f102e00 	svcne	0x00102e00
    2cfc:	06c90001 	strbeq	r0, [r9], r1
    2d00:	163c0000 	ldrtne	r0, [ip], -r0
    2d04:	7b00011f 	blvc	3188 <_init-0xd654>
    2d08:	16000006 	strne	r0, [r0], -r6
    2d0c:	2900002d 	stmdbcs	r0, {r0, r2, r3, r5}
    2d10:	75025001 	strvc	r5, [r2, #-1]
    2d14:	20280000 	eorcs	r0, r8, r0
    2d18:	7b00011f 	blvc	319c <_init-0xd640>
    2d1c:	29000006 	stmdbcs	r0, {r1, r2}
    2d20:	77025001 	strvc	r5, [r2, -r1]
    2d24:	3d000000 	stccc	0, cr0, [r0, #-0]
    2d28:	00000c99 	muleq	r0, r9, ip
    2d2c:	28041801 	stmdacs	r4, {r0, fp, ip}
    2d30:	4400011f 	strmi	r0, [r0], #-287	; 0xfffffee1
    2d34:	01000001 	tsteq	r0, r1
    2d38:	002ed19c 	mlaeq	lr, ip, r1, sp
    2d3c:	10414100 	subne	r4, r1, r0, lsl #2
    2d40:	18010000 	stmdane	r1, {}	; <UNPREDICTABLE>
    2d44:	0002f004 	andeq	pc, r2, r4
    2d48:	00288700 	eoreq	r8, r8, r0, lsl #14
    2d4c:	0bb54100 	bleq	fed53154 <__bss_end__+0xfed2f088>
    2d50:	18010000 	stmdane	r1, {}	; <UNPREDICTABLE>
    2d54:	0000b604 	andeq	fp, r0, r4, lsl #12
    2d58:	0028b300 	eoreq	fp, r8, r0, lsl #6
    2d5c:	656c3e00 	strbvs	r3, [ip, #-3584]!	; 0xfffff200
    2d60:	1801006e 	stmdane	r1, {r1, r2, r3, r5, r6}
    2d64:	00031104 	andeq	r1, r3, r4, lsl #2
    2d68:	0028d100 	eoreq	sp, r8, r0, lsl #2
    2d6c:	00813f00 	addeq	r3, r1, r0, lsl #30
    2d70:	19010000 	stmdbne	r1, {}	; <UNPREDICTABLE>
    2d74:	0006a204 	andeq	sl, r6, r4, lsl #4
    2d78:	0028fd00 	eoreq	pc, r8, r0, lsl #26
    2d7c:	0fb73f00 	svceq	0x00b73f00
    2d80:	1a010000 	bne	42d88 <__bss_end__+0x1ecbc>
    2d84:	0006a204 	andeq	sl, r6, r4, lsl #4
    2d88:	00298500 	eoreq	r8, r9, r0, lsl #10
    2d8c:	01df4a00 	bicseq	r4, pc, r0, lsl #20
    2d90:	1b010000 	blne	42d98 <__bss_end__+0x1eccc>
    2d94:	0006a204 	andeq	sl, r6, r4, lsl #4
    2d98:	4a570100 	bmi	15c31a0 <__bss_end__+0x159f0d4>
    2d9c:	00000c7d 	andeq	r0, r0, sp, ror ip
    2da0:	a2041c01 	andge	r1, r4, #256	; 0x100
    2da4:	01000006 	tsteq	r0, r6
    2da8:	6f69455a 	svcvs	0x0069455a
    2dac:	041d0100 	ldreq	r0, [sp], #-256	; 0xffffff00
    2db0:	000006a2 	andeq	r0, r0, r2, lsr #13
    2db4:	00002a27 	andeq	r2, r0, r7, lsr #20
    2db8:	00787445 	rsbseq	r7, r8, r5, asr #8
    2dbc:	b6041f01 	strlt	r1, [r4], -r1, lsl #30
    2dc0:	92000000 	andls	r0, r0, #0
    2dc4:	4500002a 	strmi	r0, [r0, #-42]	; 0xffffffd6
    2dc8:	01007872 	tsteq	r0, r2, ror r8
    2dcc:	00b60420 	adcseq	r0, r6, r0, lsr #8
    2dd0:	2ad70000 	bcs	ff5c2dd8 <__bss_end__+0xff59ed0c>
    2dd4:	cf3f0000 	svcgt	0x003f0000
    2dd8:	01000005 	tsteq	r0, r5
    2ddc:	03110421 	tsteq	r1, #553648128	; 0x21000000
    2de0:	2b6b0000 	blcs	1ac2de8 <__bss_end__+0x1a9ed1c>
    2de4:	193f0000 	ldmdbne	pc!, {}	; <UNPREDICTABLE>
    2de8:	01000009 	tsteq	r0, r9
    2dec:	03110422 	tsteq	r1, #570425344	; 0x22000000
    2df0:	2b890000 	blcs	fe242df8 <__bss_end__+0xfe21ed2c>
    2df4:	0b3f0000 	bleq	fc2dfc <__bss_end__+0xf9ed30>
    2df8:	0100000a 	tsteq	r0, sl
    2dfc:	03110423 	tsteq	r1, #587202560	; 0x23000000
    2e00:	2ba70000 	blcs	fe9c2e08 <__bss_end__+0xfe99ed3c>
    2e04:	e83f0000 	ldmda	pc!, {}	; <UNPREDICTABLE>
    2e08:	01000003 	tsteq	r0, r3
    2e0c:	03110424 	tsteq	r1, #36, 8	; 0x24000000
    2e10:	2bd00000 	blcs	ff402e18 <__bss_end__+0xff3ded4c>
    2e14:	69450000 	stmdbvs	r5, {}^	; <UNPREDICTABLE>
    2e18:	04250100 	strteq	r0, [r5], #-256	; 0xffffff00
    2e1c:	00000311 	andeq	r0, r0, r1, lsl r3
    2e20:	00002c10 	andeq	r2, r0, r0, lsl ip
    2e24:	0011261e 	andseq	r2, r1, lr, lsl r6
    2e28:	04260100 	strteq	r0, [r6], #-256	; 0xffffff00
    2e2c:	000002fb 	strdeq	r0, [r0], -fp
    2e30:	0000801e 	andeq	r8, r0, lr, lsl r0
    2e34:	04280100 	strteq	r0, [r8], #-256	; 0xffffff00
    2e38:	00000311 	andeq	r0, r0, r1, lsl r3
    2e3c:	011f603c 	tsteq	pc, ip, lsr r0	; <UNPREDICTABLE>
    2e40:	0006c900 	andeq	ip, r6, r0, lsl #18
    2e44:	002e5000 	eoreq	r5, lr, r0
    2e48:	50012900 	andpl	r2, r1, r0, lsl #18
    2e4c:	00007402 	andeq	r7, r0, r2, lsl #8
    2e50:	011f6c3c 	tsteq	pc, ip, lsr ip	; <UNPREDICTABLE>
    2e54:	0006c900 	andeq	ip, r6, r0, lsl #18
    2e58:	002e6900 	eoreq	r6, lr, r0, lsl #18
    2e5c:	50012900 	andpl	r2, r1, r0, lsl #18
    2e60:	29047402 	stmdbcs	r4, {r1, sl, ip, sp, lr}
    2e64:	32015101 	andcc	r5, r1, #1073741824	; 0x40000000
    2e68:	1f7c3c00 	svcne	0x007c3c00
    2e6c:	067b0001 	ldrbteq	r0, [fp], -r1
    2e70:	2e7d0000 	cdpcs	0, 7, cr0, cr13, cr0, {0}
    2e74:	01290000 			; <UNDEFINED> instruction: 0x01290000
    2e78:	00770250 	rsbseq	r0, r7, r0, asr r2
    2e7c:	1fc62e00 	svcne	0x00c62e00
    2e80:	06c90001 	strbeq	r0, [r9], r1
    2e84:	d02e0000 	eorle	r0, lr, r0
    2e88:	7b00011f 	blvc	330c <_init-0xd4d0>
    2e8c:	3c000006 	stccc	0, cr0, [r0], {6}
    2e90:	00012006 	andeq	r2, r1, r6
    2e94:	0000067b 	andeq	r0, r0, fp, ror r6
    2e98:	00002ea3 	andeq	r2, r0, r3, lsr #29
    2e9c:	02500129 	subseq	r0, r0, #1073741834	; 0x4000000a
    2ea0:	3c000077 	stccc	0, cr0, [r0], {119}	; 0x77
    2ea4:	00012014 	andeq	r2, r1, r4, lsl r0
    2ea8:	0000067b 	andeq	r0, r0, fp, ror r6
    2eac:	00002eb7 			; <UNDEFINED> instruction: 0x00002eb7
    2eb0:	02500129 	subseq	r0, r0, #1073741834	; 0x4000000a
    2eb4:	2e000077 	mcrcs	0, 0, r0, cr0, cr7, {3}
    2eb8:	00012024 	andeq	r2, r1, r4, lsr #32
    2ebc:	0000067b 	andeq	r0, r0, fp, ror r6
    2ec0:	01205a28 			; <UNDEFINED> instruction: 0x01205a28
    2ec4:	00067b00 	andeq	r7, r6, r0, lsl #22
    2ec8:	50012900 	andpl	r2, r1, r0, lsl #18
    2ecc:	00007702 	andeq	r7, r0, r2, lsl #14
    2ed0:	05123d00 	ldreq	r3, [r2, #-3328]	; 0xfffff300
    2ed4:	75010000 	strvc	r0, [r1, #-0]
    2ed8:	01206c04 			; <UNDEFINED> instruction: 0x01206c04
    2edc:	00000800 	andeq	r0, r0, r0, lsl #16
    2ee0:	279c0100 	ldrcs	r0, [ip, r0, lsl #2]
    2ee4:	3e00002f 	cdpcc	0, 0, cr0, cr0, cr15, {1}
    2ee8:	00667562 	rsbeq	r7, r6, r2, ror #10
    2eec:	b6047501 	strlt	r7, [r4], -r1, lsl #10
    2ef0:	24000000 	strcs	r0, [r0], #-0
    2ef4:	3e00002c 	cdpcc	0, 0, cr0, cr0, cr12, {1}
    2ef8:	006e656c 	rsbeq	r6, lr, ip, ror #10
    2efc:	11047501 	tstne	r4, r1, lsl #10
    2f00:	45000003 	strmi	r0, [r0, #-3]
    2f04:	2c00002c 	stccs	0, cr0, [r0], {44}	; 0x2c
    2f08:	00012074 	andeq	r2, r1, r4, ror r0
    2f0c:	00002d27 	andeq	r2, r0, r7, lsr #26
    2f10:	03500129 	cmpeq	r0, #1073741834	; 0x4000000a
    2f14:	295001f3 	ldmdbcs	r0, {r0, r1, r4, r5, r6, r7, r8}^
    2f18:	f3035101 	vrhadd.u8	d5, d3, d1
    2f1c:	01295001 			; <UNDEFINED> instruction: 0x01295001
    2f20:	01f30352 	mvnseq	r0, r2, asr r3
    2f24:	40000051 	andmi	r0, r0, r1, asr r0
    2f28:	0000059c 	muleq	r0, ip, r5
    2f2c:	61047901 	tstvs	r4, r1, lsl #18
    2f30:	74000000 	strvc	r0, [r0], #-0
    2f34:	80000120 	andhi	r0, r0, r0, lsr #2
    2f38:	01000000 	mrseq	r0, (UNDEF: 0)
    2f3c:	00304c9c 	mlaseq	r0, ip, ip, r4
    2f40:	0f6a3f00 	svceq	0x006a3f00
    2f44:	7b010000 	blvc	42f4c <__bss_end__+0x1ee80>
    2f48:	00030604 	andeq	r0, r3, r4, lsl #12
    2f4c:	002c7100 	eoreq	r7, ip, r0, lsl #2
    2f50:	0eb03f00 	cdpeq	15, 11, cr3, cr0, cr0, {0}
    2f54:	87010000 	strhi	r0, [r1, -r0]
    2f58:	0006a204 	andeq	sl, r6, r4, lsl #4
    2f5c:	002c9000 	eoreq	r9, ip, r0
    2f60:	07833300 	streq	r3, [r3, r0, lsl #6]
    2f64:	208a0000 	addcs	r0, sl, r0
    2f68:	000e0001 	andeq	r0, lr, r1
    2f6c:	89010000 	stmdbhi	r1, {}	; <UNPREDICTABLE>
    2f70:	002fce04 	eoreq	ip, pc, r4, lsl #28
    2f74:	079c2600 	ldreq	r2, [ip, r0, lsl #12]
    2f78:	2cbd0000 	ldccs	0, cr0, [sp]
    2f7c:	90260000 	eorls	r0, r6, r0
    2f80:	d1000007 	tstle	r0, r7
    2f84:	3100002c 	tstcc	r0, ip, lsr #32
    2f88:	0001208a 	andeq	r2, r1, sl, lsl #1
    2f8c:	0000000e 	andeq	r0, r0, lr
    2f90:	0007a82f 	andeq	sl, r7, pc, lsr #16
    2f94:	002ce500 	eoreq	lr, ip, r0, lsl #10
    2f98:	07b42f00 	ldreq	r2, [r4, r0, lsl #30]!
    2f9c:	2cfc0000 	ldclcs	0, cr0, [ip]
    2fa0:	c02f0000 	eorgt	r0, pc, r0
    2fa4:	10000007 	andne	r0, r0, r7
    2fa8:	2f00002d 	svccs	0x0000002d
    2fac:	000007cc 	andeq	r0, r0, ip, asr #15
    2fb0:	00002d26 	andeq	r2, r0, r6, lsr #26
    2fb4:	01209828 			; <UNDEFINED> instruction: 0x01209828
    2fb8:	000e0000 	andeq	r0, lr, r0
    2fbc:	51012900 	tstpl	r1, r0, lsl #18
    2fc0:	01000a03 	tsteq	r0, r3, lsl #20
    2fc4:	03520129 	cmpeq	r2, #1073741834	; 0x4000000a
    2fc8:	0001c00a 	andeq	ip, r1, sl
    2fcc:	83330000 	teqhi	r3, #0
    2fd0:	98000007 	stmdals	r0, {r0, r1, r2}
    2fd4:	0e000120 	adfeqsp	f0, f0, f0
    2fd8:	01000000 	mrseq	r0, (UNDEF: 0)
    2fdc:	303b048a 	eorscc	r0, fp, sl, lsl #9
    2fe0:	9c260000 	stcls	0, cr0, [r6], #-0
    2fe4:	3c000007 	stccc	0, cr0, [r0], {7}
    2fe8:	2600002d 	strcs	r0, [r0], -sp, lsr #32
    2fec:	00000790 	muleq	r0, r0, r7
    2ff0:	00002d50 	andeq	r2, r0, r0, asr sp
    2ff4:	01209831 			; <UNDEFINED> instruction: 0x01209831
    2ff8:	00000e00 	andeq	r0, r0, r0, lsl #28
    2ffc:	07a82f00 	streq	r2, [r8, r0, lsl #30]!
    3000:	2d640000 	stclcs	0, cr0, [r4, #-0]
    3004:	b42f0000 	strtlt	r0, [pc], #-0	; 300c <_init-0xd7d0>
    3008:	7b000007 	blvc	302c <_init-0xd7b0>
    300c:	2f00002d 	svccs	0x0000002d
    3010:	000007c0 	andeq	r0, r0, r0, asr #15
    3014:	00002d8f 	andeq	r2, r0, pc, lsl #27
    3018:	0007cc2f 	andeq	ip, r7, pc, lsr #24
    301c:	002da500 	eoreq	sl, sp, r0, lsl #10
    3020:	20a62800 	adccs	r2, r6, r0, lsl #16
    3024:	0e000001 	cdpeq	0, 0, cr0, cr0, cr1, {0}
    3028:	01290000 			; <UNDEFINED> instruction: 0x01290000
    302c:	000a0351 	andeq	r0, sl, r1, asr r3
    3030:	52012908 	andpl	r2, r1, #8, 18	; 0x20000
    3034:	0e000a03 	vmlaeq.f32	s0, s0, s6
    3038:	28000000 	stmdacs	r0, {}	; <UNPREDICTABLE>
    303c:	000120ae 	andeq	r2, r1, lr, lsr #1
    3040:	0000067b 	andeq	r0, r0, fp, ror r6
    3044:	02500129 	subseq	r0, r0, #1073741834	; 0x4000000a
    3048:	00001475 	andeq	r1, r0, r5, ror r4
    304c:	000e983d 	andeq	r9, lr, sp, lsr r8
    3050:	04980100 	ldreq	r0, [r8], #256	; 0x100
    3054:	000120f4 	strdeq	r2, [r1], -r4
    3058:	00000026 	andeq	r0, r0, r6, lsr #32
    305c:	31239c01 			; <UNDEFINED> instruction: 0x31239c01
    3060:	83330000 	teqhi	r3, #0
    3064:	f6000007 			; <UNDEFINED> instruction: 0xf6000007
    3068:	14000120 	strne	r0, [r0], #-288	; 0xfffffee0
    306c:	01000000 	mrseq	r0, (UNDEF: 0)
    3070:	30cd04a0 	sbccc	r0, sp, r0, lsr #9
    3074:	9c260000 	stcls	0, cr0, [r6], #-0
    3078:	bb000007 	bllt	309c <_init-0xd740>
    307c:	2600002d 	strcs	r0, [r0], -sp, lsr #32
    3080:	00000790 	muleq	r0, r0, r7
    3084:	00002dcf 	andeq	r2, r0, pc, asr #27
    3088:	0120f631 	msreq	R8_usr, r1
    308c:	00001400 	andeq	r1, r0, r0, lsl #8
    3090:	07a82f00 	streq	r2, [r8, r0, lsl #30]!
    3094:	2de30000 	stclcs	0, cr0, [r3]
    3098:	b42f0000 	strtlt	r0, [pc], #-0	; 30a0 <_init-0xd73c>
    309c:	fa000007 	blx	30c0 <_init-0xd71c>
    30a0:	2f00002d 	svccs	0x0000002d
    30a4:	000007c0 	andeq	r0, r0, r0, asr #15
    30a8:	00002e0e 	andeq	r2, r0, lr, lsl #28
    30ac:	0007cc2f 	andeq	ip, r7, pc, lsr #24
    30b0:	002dbb00 	eoreq	fp, sp, r0, lsl #22
    30b4:	210a2800 	tstcs	sl, r0, lsl #16
    30b8:	0e000001 	cdpeq	0, 0, cr0, cr0, cr1, {0}
    30bc:	01290000 			; <UNDEFINED> instruction: 0x01290000
    30c0:	29300151 	ldmdbcs	r0!, {r0, r4, r6, r8}
    30c4:	0a035201 	beq	d78d0 <__bss_end__+0xb3804>
    30c8:	000001c0 	andeq	r0, r0, r0, asr #3
    30cc:	07834400 	streq	r4, [r3, r0, lsl #8]
    30d0:	210a0000 	mrscs	r0, (UNDEF: 10)
    30d4:	03200001 			; <UNDEFINED> instruction: 0x03200001
    30d8:	a1010000 	mrsge	r0, (UNDEF: 1)
    30dc:	079c4604 	ldreq	r4, [ip, r4, lsl #12]
    30e0:	46000000 	strmi	r0, [r0], -r0
    30e4:	00000790 	muleq	r0, r0, r7
    30e8:	03203a03 			; <UNDEFINED> instruction: 0x03203a03
    30ec:	a82f0000 	stmdage	pc!, {}	; <UNPREDICTABLE>
    30f0:	24000007 	strcs	r0, [r0], #-7
    30f4:	4700002e 	strmi	r0, [r0, -lr, lsr #32]
    30f8:	000007b4 			; <UNDEFINED> instruction: 0x000007b4
    30fc:	07c04f09 	strbeq	r4, [r0, r9, lsl #30]
    3100:	0e000000 	cdpeq	0, 0, cr0, cr0, cr0, {0}
    3104:	0007cc47 	andeq	ip, r7, r7, asr #24
    3108:	1a2c0000 	bne	b03110 <__bss_end__+0xadf044>
    310c:	00000121 	andeq	r0, r0, r1, lsr #2
    3110:	2900000e 	stmdbcs	r0, {r1, r2, r3}
    3114:	30015101 	andcc	r5, r1, r1, lsl #2
    3118:	03520129 	cmpeq	r2, #1073741834	; 0x4000000a
    311c:	000e000a 	andeq	r0, lr, sl
    3120:	3d000000 	stccc	0, cr0, [r0, #-0]
    3124:	000006bc 			; <UNDEFINED> instruction: 0x000006bc
    3128:	1c04a501 	cfstr32ne	mvfx10, [r4], {1}
    312c:	12000121 	andne	r0, r0, #1073741832	; 0x40000008
    3130:	01000000 	mrseq	r0, (UNDEF: 0)
    3134:	0031639c 	mlaseq	r1, ip, r3, r6
    3138:	10f94100 	rscsne	r4, r9, r0, lsl #2
    313c:	a5010000 	strge	r0, [r1, #-0]
    3140:	0002fb04 	andeq	pc, r2, r4, lsl #22
    3144:	002e3b00 	eoreq	r3, lr, r0, lsl #22
    3148:	0eb03f00 	cdpeq	15, 11, cr3, cr0, cr0, {0}
    314c:	ab010000 	blge	43154 <__bss_end__+0x1f088>
    3150:	0006a204 	andeq	sl, r6, r4, lsl #4
    3154:	002e5c00 	eoreq	r5, lr, r0, lsl #24
    3158:	212e3900 			; <UNDEFINED> instruction: 0x212e3900
    315c:	06c90001 	strbeq	r0, [r9], r1
    3160:	3d000000 	stccc	0, cr0, [r0, #-0]
    3164:	00000758 	andeq	r0, r0, r8, asr r7
    3168:	3004b401 	andcc	fp, r4, r1, lsl #8
    316c:	58000121 	stmdapl	r0, {r0, r5, r8}
    3170:	01000000 	mrseq	r0, (UNDEF: 0)
    3174:	0031ab9c 	mlaseq	r1, ip, fp, sl
    3178:	06714100 	ldrbteq	r4, [r1], -r0, lsl #2
    317c:	b4010000 	strlt	r0, [r1], #-0
    3180:	00030604 	andeq	r0, r3, r4, lsl #12
    3184:	002e8200 	eoreq	r8, lr, r0, lsl #4
    3188:	0eb03f00 	cdpeq	15, 11, cr3, cr0, cr0, {0}
    318c:	b9010000 	stmdblt	r1, {}	; <UNPREDICTABLE>
    3190:	0006a204 	andeq	sl, r6, r4, lsl #4
    3194:	002ea300 	eoreq	sl, lr, r0, lsl #6
    3198:	21482800 	cmpcs	r8, r0, lsl #16
    319c:	06c90001 	strbeq	r0, [r9], r1
    31a0:	01290000 			; <UNDEFINED> instruction: 0x01290000
    31a4:	74910351 	ldrvc	r0, [r1], #849	; 0x351
    31a8:	49000006 	stmdbmi	r0, {r1, r2}
    31ac:	00001345 	andeq	r1, r0, r5, asr #6
    31b0:	8804c401 	stmdahi	r4, {r0, sl, lr, pc}
    31b4:	1e000121 	adfnesp	f0, f0, f1
    31b8:	01000000 	mrseq	r0, (UNDEF: 0)
    31bc:	0031eb9c 	mlaseq	r1, ip, fp, lr
    31c0:	13554100 	cmpne	r5, #0, 2
    31c4:	c4010000 	strgt	r0, [r1], #-0
    31c8:	00031104 	andeq	r1, r3, r4, lsl #2
    31cc:	002ec900 	eoreq	ip, lr, r0, lsl #18
    31d0:	06713f00 	ldrbteq	r3, [r1], -r0, lsl #30
    31d4:	c6010000 	strgt	r0, [r1], -r0
    31d8:	00031104 	andeq	r1, r3, r4, lsl #2
    31dc:	002ef500 	eoreq	pc, lr, r0, lsl #10
    31e0:	21a63900 			; <UNDEFINED> instruction: 0x21a63900
    31e4:	31630001 	cmncc	r3, r1
    31e8:	40000000 	andmi	r0, r0, r0
    31ec:	000000b3 	strheq	r0, [r0], -r3
    31f0:	fb04cd01 	blx	1365fe <__bss_end__+0x112532>
    31f4:	a8000002 	stmdage	r0, {r1}
    31f8:	f6000121 			; <UNDEFINED> instruction: 0xf6000121
    31fc:	01000000 	mrseq	r0, (UNDEF: 0)
    3200:	0033c59c 	mlaseq	r3, ip, r5, ip
    3204:	75623e00 	strbvc	r3, [r2, #-3584]!	; 0xfffff200
    3208:	cd010066 	stcgt	0, cr0, [r1, #-408]	; 0xfffffe68
    320c:	0002f004 	andeq	pc, r2, r4
    3210:	002f5500 	eoreq	r5, pc, r0, lsl #10
    3214:	656c3e00 	strbvs	r3, [ip, #-3584]!	; 0xfffff200
    3218:	cd01006e 	stcgt	0, cr0, [r1, #-440]	; 0xfffffe48
    321c:	00031104 	andeq	r1, r3, r4, lsl #2
    3220:	002f7300 	eoreq	r7, pc, r0, lsl #6
    3224:	0ed43f00 	cdpeq	15, 13, cr3, cr4, cr0, {0}
    3228:	d5010000 	strle	r0, [r1, #-0]
    322c:	0006a204 	andeq	sl, r6, r4, lsl #4
    3230:	002fb800 	eoreq	fp, pc, r0, lsl #16
    3234:	03ed3f00 	mvneq	r3, #0, 30
    3238:	d6010000 	strle	r0, [r1], -r0
    323c:	0006a204 	andeq	sl, r6, r4, lsl #4
    3240:	002fe500 	eoreq	lr, pc, r0, lsl #10
    3244:	080f4a00 	stmdaeq	pc, {r9, fp, lr}	; <UNPREDICTABLE>
    3248:	d7010000 	strle	r0, [r1, -r0]
    324c:	0006a204 	andeq	sl, r6, r4, lsl #4
    3250:	4a570100 	bmi	15c3658 <__bss_end__+0x159f58c>
    3254:	0000098b 	andeq	r0, r0, fp, lsl #19
    3258:	a204d801 	andge	sp, r4, #65536	; 0x10000
    325c:	01000006 	tsteq	r0, r6
    3260:	05dc3f59 	ldrbeq	r3, [ip, #3929]	; 0xf59
    3264:	db010000 	blle	4326c <__bss_end__+0x1f1a0>
    3268:	00031104 	andeq	r1, r3, r4, lsl #2
    326c:	00300e00 	eorseq	r0, r0, r0, lsl #28
    3270:	00694500 	rsbeq	r4, r9, r0, lsl #10
    3274:	1104dc01 	tstne	r4, r1, lsl #24
    3278:	5c000003 	stcpl	0, cr0, [r0], {3}
    327c:	3f000030 	svccc	0x00000030
    3280:	00000f6f 	andeq	r0, r0, pc, ror #30
    3284:	fb04dd01 	blx	13a692 <__bss_end__+0x1165c6>
    3288:	aa000002 	bge	3298 <_init-0xd544>
    328c:	43000030 	movwmi	r0, #48	; 0x30
    3290:	000006ec 	andeq	r0, r0, ip, ror #13
    3294:	000121f4 	strdeq	r2, [r1], -r4
    3298:	00000338 	andeq	r0, r0, r8, lsr r3
    329c:	c204e801 	andgt	lr, r4, #65536	; 0x10000
    32a0:	26000032 			; <UNDEFINED> instruction: 0x26000032
    32a4:	00000703 	andeq	r0, r0, r3, lsl #14
    32a8:	000030d5 	ldrdeq	r3, [r0], -r5
    32ac:	0006f84b 	andeq	pc, r6, fp, asr #16
    32b0:	22222800 	eorcs	r2, r2, #0, 16
    32b4:	0a490001 	beq	12432c0 <__bss_end__+0x121f1f4>
    32b8:	01290000 			; <UNDEFINED> instruction: 0x01290000
    32bc:	00780250 	rsbseq	r0, r8, r0, asr r2
    32c0:	ce3c0000 	cdpgt	0, 3, cr0, cr12, cr0, {0}
    32c4:	00000121 	andeq	r0, r0, r1, lsr #2
    32c8:	e200000e 	and	r0, r0, #14
    32cc:	29000032 	stmdbcs	r0, {r1, r4, r5}
    32d0:	79025001 	stmdbvc	r2, {r0, ip, lr}
    32d4:	51012900 	tstpl	r1, r0, lsl #18
    32d8:	29200802 	stmdbcs	r0!, {r1, fp}
    32dc:	08025201 	stmdaeq	r2, {r0, r9, ip, lr}
    32e0:	d83c0020 	ldmdale	ip!, {r5}
    32e4:	c9000121 	stmdbgt	r0, {r0, r5, r8}
    32e8:	fd000006 	stc2	0, cr0, [r0, #-24]	; 0xffffffe8
    32ec:	29000032 	stmdbcs	r0, {r1, r4, r5}
    32f0:	77025001 	strvc	r5, [r2, -r1]
    32f4:	51012900 	tstpl	r1, r0, lsl #18
    32f8:	03020a03 	movweq	r0, #10755	; 0x2a03
    32fc:	21e23c00 	mvncs	r3, r0, lsl #24
    3300:	06c90001 	strbeq	r0, [r9], r1
    3304:	33170000 	tstcc	r7, #0
    3308:	01290000 			; <UNDEFINED> instruction: 0x01290000
    330c:	08790250 	ldmdaeq	r9!, {r4, r6, r9}^
    3310:	02510129 	subseq	r0, r1, #1073741834	; 0x4000000a
    3314:	3c000074 	stccc	0, cr0, [r0], {116}	; 0x74
    3318:	00012230 	andeq	r2, r1, r0, lsr r2
    331c:	000006c9 	andeq	r0, r0, r9, asr #13
    3320:	00003332 	andeq	r3, r0, r2, lsr r3
    3324:	02500129 	subseq	r0, r0, #1073741834	; 0x4000000a
    3328:	01290079 			; <UNDEFINED> instruction: 0x01290079
    332c:	800a0351 	andhi	r0, sl, r1, asr r3
    3330:	363c0080 	ldrtcc	r0, [ip], -r0, lsl #1
    3334:	7b000122 	blvc	37c4 <_init-0xd018>
    3338:	46000006 	strmi	r0, [r0], -r6
    333c:	29000033 	stmdbcs	r0, {r0, r1, r4, r5}
    3340:	77025001 	strvc	r5, [r2, -r1]
    3344:	483c0000 	ldmdami	ip!, {}	; <UNPREDICTABLE>
    3348:	7b000122 	blvc	37d8 <_init-0xd004>
    334c:	5a000006 	bpl	336c <_init-0xd470>
    3350:	29000033 	stmdbcs	r0, {r0, r1, r4, r5}
    3354:	77025001 	strvc	r5, [r2, -r1]
    3358:	5a3c0000 	bpl	f03360 <__bss_end__+0xedf294>
    335c:	c9000122 	stmdbgt	r0, {r1, r5, r8}
    3360:	6e000006 	cdpvs	0, 0, cr0, cr0, cr6, {0}
    3364:	29000033 	stmdbcs	r0, {r0, r1, r4, r5}
    3368:	78025001 	stmdavc	r2, {r0, ip, lr}
    336c:	643c0000 	ldrtvs	r0, [ip], #-0
    3370:	7b000122 	blvc	3800 <_init-0xcfdc>
    3374:	82000006 	andhi	r0, r0, #6
    3378:	29000033 	stmdbcs	r0, {r0, r1, r4, r5}
    337c:	77025001 	strvc	r5, [r2, -r1]
    3380:	6e3c0000 	cdpvs	0, 3, cr0, cr12, cr0, {0}
    3384:	7b000122 	blvc	3814 <_init-0xcfc8>
    3388:	96000006 	strls	r0, [r0], -r6
    338c:	29000033 	stmdbcs	r0, {r0, r1, r4, r5}
    3390:	77025001 	strvc	r5, [r2, -r1]
    3394:	803c0000 	eorshi	r0, ip, r0
    3398:	00000122 	andeq	r0, r0, r2, lsr #2
    339c:	b400000e 	strlt	r0, [r0], #-14
    33a0:	29000033 	stmdbcs	r0, {r0, r1, r4, r5}
    33a4:	79025001 	stmdbvc	r2, {r0, ip, lr}
    33a8:	51012900 	tstpl	r1, r0, lsl #18
    33ac:	01293201 			; <UNDEFINED> instruction: 0x01293201
    33b0:	00320152 	eorseq	r0, r2, r2, asr r1
    33b4:	01228c28 			; <UNDEFINED> instruction: 0x01228c28
    33b8:	00067b00 	andeq	r7, r6, r0, lsl #22
    33bc:	50012900 	andpl	r2, r1, r0, lsl #18
    33c0:	00007702 	andeq	r7, r0, r2, lsl #14
    33c4:	0da14000 	stceq	0, cr4, [r1]
    33c8:	14010000 	strne	r0, [r1], #-0
    33cc:	0002fb05 	andeq	pc, r2, r5, lsl #22
    33d0:	0122a000 			; <UNDEFINED> instruction: 0x0122a000
    33d4:	00013a00 	andeq	r3, r1, r0, lsl #20
    33d8:	579c0100 	ldrpl	r0, [ip, r0, lsl #2]
    33dc:	3e000036 	mcrcc	0, 0, r0, cr0, cr6, {1}
    33e0:	00667562 	rsbeq	r7, r6, r2, ror #10
    33e4:	b6051401 	strlt	r1, [r5], -r1, lsl #8
    33e8:	f3000000 	vhadd.u8	d0, d0, d0
    33ec:	3e000030 	mcrcc	0, 0, r0, cr0, cr0, {1}
    33f0:	006e656c 	rsbeq	r6, lr, ip, ror #10
    33f4:	11051401 	tstne	r5, r1, lsl #8
    33f8:	11000003 	tstne	r0, r3
    33fc:	4a000031 	bmi	34c8 <_init-0xd314>
    3400:	00000ed4 	ldrdeq	r0, [r0], -r4
    3404:	a2051c01 	andge	r1, r5, #256	; 0x100
    3408:	03000006 	movweq	r0, #6
    340c:	3f9f0876 	svccc	0x009f0876
    3410:	000003ed 	andeq	r0, r0, sp, ror #7
    3414:	a2051d01 	andge	r1, r5, #1, 26	; 0x40
    3418:	48000006 	stmdami	r0, {r1, r2}
    341c:	4a000031 	bmi	34e8 <_init-0xd2f4>
    3420:	0000080f 	andeq	r0, r0, pc, lsl #16
    3424:	a2051e01 	andge	r1, r5, #1, 28
    3428:	01000006 	tsteq	r0, r6
    342c:	098b4a58 	stmibeq	fp, {r3, r4, r6, r9, fp, lr}
    3430:	1f010000 	svcne	0x00010000
    3434:	0006a205 	andeq	sl, r6, r5, lsl #4
    3438:	3f560100 	svccc	0x00560100
    343c:	000005dc 	ldrdeq	r0, [r0], -ip
    3440:	11052201 	tstne	r5, r1, lsl #4
    3444:	87000003 	strhi	r0, [r0, -r3]
    3448:	45000031 	strmi	r0, [r0, #-49]	; 0xffffffcf
    344c:	23010069 	movwcs	r0, #4201	; 0x1069
    3450:	00031105 	andeq	r1, r3, r5, lsl #2
    3454:	0031e200 	eorseq	lr, r1, r0, lsl #4
    3458:	0f6f3f00 	svceq	0x006f3f00
    345c:	24010000 	strcs	r0, [r1], #-0
    3460:	0002fb05 	andeq	pc, r2, r5, lsl #22
    3464:	00325100 	eorseq	r5, r2, r0, lsl #2
    3468:	06ec4300 	strbteq	r4, [ip], r0, lsl #6
    346c:	22ae0000 	adccs	r0, lr, #0
    3470:	03580001 	cmpeq	r8, #1
    3474:	29010000 	stmdbcs	r1, {}	; <UNPREDICTABLE>
    3478:	0034a705 	eorseq	sl, r4, r5, lsl #14
    347c:	07032600 	streq	r2, [r3, -r0, lsl #12]
    3480:	327c0000 	rsbscc	r0, ip, #0
    3484:	f8260000 			; <UNDEFINED> instruction: 0xf8260000
    3488:	a0000006 	andge	r0, r0, r6
    348c:	28000032 	stmdacs	r0, {r1, r4, r5}
    3490:	000123b6 			; <UNDEFINED> instruction: 0x000123b6
    3494:	00000a49 	andeq	r0, r0, r9, asr #20
    3498:	02500129 	subseq	r0, r0, #1073741834	; 0x4000000a
    349c:	01290078 			; <UNDEFINED> instruction: 0x01290078
    34a0:	020a0351 	andeq	r0, sl, #1140850689	; 0x44000001
    34a4:	43000003 	movwmi	r0, #3
    34a8:	000006ec 	andeq	r0, r0, ip, ror #13
    34ac:	000122d8 	ldrdeq	r2, [r1], -r8
    34b0:	00000378 	andeq	r0, r0, r8, ror r3
    34b4:	e4052b01 	str	r2, [r5], #-2817	; 0xfffff4ff
    34b8:	26000034 			; <UNDEFINED> instruction: 0x26000034
    34bc:	00000703 	andeq	r0, r0, r3, lsl #14
    34c0:	000032be 			; <UNDEFINED> instruction: 0x000032be
    34c4:	0006f826 	andeq	pc, r6, r6, lsr #16
    34c8:	0032dc00 	eorseq	sp, r2, r0, lsl #24
    34cc:	23c62800 	biccs	r2, r6, #0, 16
    34d0:	0a490001 	beq	12434dc <__bss_end__+0x121f410>
    34d4:	01290000 			; <UNDEFINED> instruction: 0x01290000
    34d8:	08760250 	ldmdaeq	r6!, {r4, r6, r9}^
    34dc:	02510129 	subseq	r0, r1, #1073741834	; 0x4000000a
    34e0:	00000074 	andeq	r0, r0, r4, ror r0
    34e4:	0006ec43 	andeq	lr, r6, r3, asr #24
    34e8:	0122da00 			; <UNDEFINED> instruction: 0x0122da00
    34ec:	00039000 	andeq	r9, r3, r0
    34f0:	052d0100 	streq	r0, [sp, #-256]!	; 0xffffff00
    34f4:	00003522 	andeq	r3, r0, r2, lsr #10
    34f8:	00070326 	andeq	r0, r7, r6, lsr #6
    34fc:	0032fe00 	eorseq	pc, r2, r0, lsl #28
    3500:	06f82600 	ldrbteq	r2, [r8], r0, lsl #12
    3504:	33220000 			; <UNDEFINED> instruction: 0x33220000
    3508:	d6280000 	strtle	r0, [r8], -r0
    350c:	49000123 	stmdbmi	r0, {r0, r1, r5, r8}
    3510:	2900000a 	stmdbcs	r0, {r1, r3}
    3514:	76025001 	strvc	r5, [r2], -r1
    3518:	51012900 	tstpl	r1, r0, lsl #18
    351c:	80810a03 	addhi	r0, r1, r3, lsl #20
    3520:	ad430000 	stclge	0, cr0, [r3, #-0]
    3524:	e2000006 	and	r0, r0, #6
    3528:	a8000122 	stmdage	r0, {r1, r5, r8}
    352c:	01000003 	tsteq	r0, r3
    3530:	354c0536 	strbcc	r0, [ip, #-1334]	; 0xfffffaca
    3534:	bd4b0000 	stcllt	0, cr0, [fp, #-0]
    3538:	28000006 	stmdacs	r0, {r1, r2}
    353c:	0001232a 	andeq	r2, r1, sl, lsr #6
    3540:	000009f4 	strdeq	r0, [r0], -r4
    3544:	02500129 	subseq	r0, r0, #1073741834	; 0x4000000a
    3548:	00000079 	andeq	r0, r0, r9, ror r0
    354c:	0006ad43 	andeq	sl, r6, r3, asr #26
    3550:	0122e400 			; <UNDEFINED> instruction: 0x0122e400
    3554:	0003e000 	andeq	lr, r3, r0
    3558:	05300100 	ldreq	r0, [r0, #-256]!	; 0xffffff00
    355c:	00003576 	andeq	r3, r0, r6, ror r5
    3560:	0006bd4b 	andeq	fp, r6, fp, asr #26
    3564:	23342800 	teqcs	r4, #0, 16
    3568:	09f40001 	ldmibeq	r4!, {r0}^
    356c:	01290000 			; <UNDEFINED> instruction: 0x01290000
    3570:	00780250 	rsbseq	r0, r8, r0, asr r2
    3574:	ad430000 	stclge	0, cr0, [r3, #-0]
    3578:	f6000006 			; <UNDEFINED> instruction: 0xf6000006
    357c:	f8000122 			; <UNDEFINED> instruction: 0xf8000122
    3580:	01000003 	tsteq	r0, r3
    3584:	35a00533 	strcc	r0, [r0, #1331]!	; 0x533
    3588:	bd4b0000 	stcllt	0, cr0, [fp, #-0]
    358c:	28000006 	stmdacs	r0, {r1, r2}
    3590:	00012318 	andeq	r2, r1, r8, lsl r3
    3594:	000009f4 	strdeq	r0, [r0], -r4
    3598:	02500129 	subseq	r0, r0, #1073741834	; 0x4000000a
    359c:	00000078 	andeq	r0, r0, r8, ror r0
    35a0:	0006ad43 	andeq	sl, r6, r3, asr #26
    35a4:	01233e00 			; <UNDEFINED> instruction: 0x01233e00
    35a8:	00041000 	andeq	r1, r4, r0
    35ac:	053d0100 	ldreq	r0, [sp, #-256]!	; 0xffffff00
    35b0:	000035ca 	andeq	r3, r0, sl, asr #11
    35b4:	0006bd4b 	andeq	fp, r6, fp, asr #26
    35b8:	235a2800 	cmpcs	sl, #0, 16
    35bc:	09f40001 	ldmibeq	r4!, {r0}^
    35c0:	01290000 			; <UNDEFINED> instruction: 0x01290000
    35c4:	00780250 	rsbseq	r0, r8, r0, asr r2
    35c8:	ad430000 	stclge	0, cr0, [r3, #-0]
    35cc:	44000006 	strmi	r0, [r0], #-6
    35d0:	28000123 	stmdacs	r0, {r0, r1, r5, r8}
    35d4:	01000004 	tsteq	r0, r4
    35d8:	35f40540 	ldrbcc	r0, [r4, #1344]!	; 0x540
    35dc:	bd4b0000 	stcllt	0, cr0, [fp, #-0]
    35e0:	28000006 	stmdacs	r0, {r1, r2}
    35e4:	0001236c 	andeq	r2, r1, ip, ror #6
    35e8:	000009f4 	strdeq	r0, [r0], -r4
    35ec:	02500129 	subseq	r0, r0, #1073741834	; 0x4000000a
    35f0:	00000079 	andeq	r0, r0, r9, ror r0
    35f4:	0122cc3c 			; <UNDEFINED> instruction: 0x0122cc3c
    35f8:	000e0000 	andeq	r0, lr, r0
    35fc:	00361400 	eorseq	r1, r6, r0, lsl #8
    3600:	50012900 	andpl	r2, r1, r0, lsl #18
    3604:	29007602 	stmdbcs	r0, {r1, r9, sl, ip, sp, lr}
    3608:	08025101 	stmdaeq	r2, {r0, r8, ip, lr}
    360c:	52012920 	andpl	r2, r1, #32, 18	; 0x80000
    3610:	00200802 	eoreq	r0, r0, r2, lsl #16
    3614:	01237c3c 			; <UNDEFINED> instruction: 0x01237c3c
    3618:	00067b00 	andeq	r7, r6, r0, lsl #22
    361c:	00362800 	eorseq	r2, r6, r0, lsl #16
    3620:	50012900 	andpl	r2, r1, r0, lsl #18
    3624:	00007802 	andeq	r7, r0, r2, lsl #16
    3628:	01238e3c 			; <UNDEFINED> instruction: 0x01238e3c
    362c:	000e0000 	andeq	r0, lr, r0
    3630:	00364600 	eorseq	r4, r6, r0, lsl #12
    3634:	50012900 	andpl	r2, r1, r0, lsl #18
    3638:	29007602 	stmdbcs	r0, {r1, r9, sl, ip, sp, lr}
    363c:	32015101 	andcc	r5, r1, #1073741824	; 0x40000000
    3640:	01520129 	cmpeq	r2, r9, lsr #2
    3644:	9a280032 	bls	a03714 <__bss_end__+0x9df648>
    3648:	7b000123 	blvc	3adc <_init-0xcd00>
    364c:	29000006 	stmdbcs	r0, {r1, r2}
    3650:	78025001 	stmdavc	r2, {r0, ip, lr}
    3654:	40000000 	andmi	r0, r0, r0
    3658:	0000081e 	andeq	r0, r0, lr, lsl r8
    365c:	1c062001 	stcne	0, cr2, [r6], {1}
    3660:	dc000003 	stcle	0, cr0, [r0], {3}
    3664:	62000123 	andvs	r0, r0, #-1073741816	; 0xc0000008
    3668:	01000000 	mrseq	r0, (UNDEF: 0)
    366c:	0036d39c 	mlaseq	r6, ip, r3, sp
    3670:	0eb03f00 	cdpeq	15, 11, cr3, cr0, cr0, {0}
    3674:	22010000 	andcs	r0, r1, #0
    3678:	0006a206 	andeq	sl, r6, r6, lsl #4
    367c:	00334000 	eorseq	r4, r3, r0
    3680:	69684500 	stmdbvs	r8!, {r8, sl, lr}^
    3684:	06230100 	strteq	r0, [r3], -r0, lsl #2
    3688:	00000311 	andeq	r0, r0, r1, lsl r3
    368c:	0000339c 	muleq	r0, ip, r3
    3690:	006f6c45 	rsbeq	r6, pc, r5, asr #24
    3694:	11062301 	tstne	r6, r1, lsl #6
    3698:	d0000003 	andle	r0, r0, r3
    369c:	45000033 	strmi	r0, [r0, #-51]	; 0xffffffcd
    36a0:	01007473 	tsteq	r0, r3, ror r4
    36a4:	031c0624 	tsteq	ip, #36, 12	; 0x2400000
    36a8:	33ee0000 	mvncc	r0, #0
    36ac:	f42e0000 	vld4.8	{d0-d3}, [lr], r0
    36b0:	7b000123 	blvc	3b44 <_init-0xcc98>
    36b4:	2e000006 	cdpcs	0, 0, cr0, cr0, cr6, {0}
    36b8:	000123fe 	strdeq	r2, [r1], -lr
    36bc:	0000067b 	andeq	r0, r0, fp, ror r6
    36c0:	0124082e 			; <UNDEFINED> instruction: 0x0124082e
    36c4:	00067b00 	andeq	r7, r6, r0, lsl #22
    36c8:	24222e00 	strtcs	r2, [r2], #-3584	; 0xfffff200
    36cc:	067b0001 	ldrbteq	r0, [fp], -r1
    36d0:	3d000000 	stccc	0, cr0, [r0, #-0]
    36d4:	000007c0 	andeq	r0, r0, r0, asr #15
    36d8:	40020801 	andmi	r0, r2, r1, lsl #16
    36dc:	ac000124 	stfges	f0, [r0], {36}	; 0x24
    36e0:	01000000 	mrseq	r0, (UNDEF: 0)
    36e4:	0037d79c 	mlaseq	r7, ip, r7, sp
    36e8:	12464100 	subne	r4, r6, #0, 2
    36ec:	08010000 	stmdaeq	r1, {}	; <UNPREDICTABLE>
    36f0:	00031c02 	andeq	r1, r3, r2, lsl #24
    36f4:	00341600 	eorseq	r1, r4, r0, lsl #12
    36f8:	31744e00 	cmncc	r4, r0, lsl #28
    36fc:	020a0100 	andeq	r0, sl, #0, 2
    3700:	000000d9 	ldrdeq	r0, [r0], -r9
    3704:	3f549102 	svccc	0x00549102
    3708:	00000019 	andeq	r0, r0, r9, lsl r0
    370c:	1c020b01 	stcne	11, cr0, [r2], {1}
    3710:	5e000003 	cdppl	0, 0, cr0, cr0, cr3, {0}
    3714:	33000034 	movwcc	r0, #52	; 0x34
    3718:	0000065e 	andeq	r0, r0, lr, asr r6
    371c:	00012462 	andeq	r2, r1, r2, ror #8
    3720:	00000012 	andeq	r0, r0, r2, lsl r0
    3724:	4d021001 	stcmi	0, cr1, [r2, #-4]
    3728:	26000037 			; <UNDEFINED> instruction: 0x26000037
    372c:	0000066e 	andeq	r0, r0, lr, ror #12
    3730:	00003476 	andeq	r3, r0, r6, ror r4
    3734:	01247428 			; <UNDEFINED> instruction: 0x01247428
    3738:	00466900 	subeq	r6, r6, r0, lsl #18
    373c:	50012900 	andpl	r2, r1, r0, lsl #18
    3740:	01293101 			; <UNDEFINED> instruction: 0x01293101
    3744:	d0030551 	andle	r0, r3, r1, asr r5
    3748:	0000012f 	andeq	r0, r0, pc, lsr #2
    374c:	085d3300 	ldmdaeq	sp, {r8, r9, ip, sp}^
    3750:	249e0000 	ldrcs	r0, [lr], #0
    3754:	00160001 	andseq	r0, r6, r1
    3758:	29010000 	stmdbcs	r1, {}	; <UNPREDICTABLE>
    375c:	00379002 	eorseq	r9, r7, r2
    3760:	08762600 	ldmdaeq	r6!, {r9, sl, sp}^
    3764:	348e0000 	strcc	r0, [lr], #0
    3768:	6a260000 	bvs	983770 <__bss_end__+0x95f6a4>
    376c:	a6000008 	strge	r0, [r0], -r8
    3770:	31000034 	tstcc	r0, r4, lsr r0
    3774:	0001249e 	muleq	r1, lr, r4
    3778:	00000016 	andeq	r0, r0, r6, lsl r0
    377c:	0008822f 	andeq	r8, r8, pc, lsr #4
    3780:	0034be00 	eorseq	fp, r4, r0, lsl #28
    3784:	24aa2e00 	strtcs	r2, [sl], #3584	; 0xe00
    3788:	36570001 	ldrbcc	r0, [r7], -r1
    378c:	00000000 	andeq	r0, r0, r0
    3790:	0124862e 			; <UNDEFINED> instruction: 0x0124862e
    3794:	00365700 	eorseq	r5, r6, r0, lsl #14
    3798:	24c83c00 	strbcs	r3, [r8], #3072	; 0xc00
    379c:	46ac0001 	strtmi	r0, [ip], r1
    37a0:	37b30000 	ldrcc	r0, [r3, r0]!
    37a4:	01290000 			; <UNDEFINED> instruction: 0x01290000
    37a8:	54910250 	ldrpl	r0, [r1], #592	; 0x250
    37ac:	02510129 	subseq	r0, r1, #1073741834	; 0x4000000a
    37b0:	3c000077 	stccc	0, cr0, [r0], {119}	; 0x77
    37b4:	000124e6 	andeq	r2, r1, r6, ror #9
    37b8:	000046ac 	andeq	r4, r0, ip, lsr #13
    37bc:	000037cd 	andeq	r3, r0, sp, asr #15
    37c0:	02500129 	subseq	r0, r0, #1073741834	; 0x4000000a
    37c4:	01295491 			; <UNDEFINED> instruction: 0x01295491
    37c8:	00770251 	rsbseq	r0, r7, r1, asr r2
    37cc:	24ec2e00 	strbtcs	r2, [ip], #3584	; 0xe00
    37d0:	46b80001 	ldrtmi	r0, [r8], r1
    37d4:	25000000 	strcs	r0, [r0, #-0]
    37d8:	0000088f 	andeq	r0, r0, pc, lsl #17
    37dc:	000124ec 	andeq	r2, r1, ip, ror #9
    37e0:	000000d0 	ldrdeq	r0, [r0], -r0	; <UNPREDICTABLE>
    37e4:	39389c01 	ldmdbcc	r8!, {r0, sl, fp, ip, pc}
    37e8:	9c260000 	stcls	0, cr0, [r6], #-0
    37ec:	d6000008 	strle	r0, [r0], -r8
    37f0:	26000034 			; <UNDEFINED> instruction: 0x26000034
    37f4:	000008a8 	andeq	r0, r0, r8, lsr #17
    37f8:	00003510 	andeq	r3, r0, r0, lsl r5
    37fc:	00044850 	andeq	r4, r4, r0, asr r8
    3800:	00389c00 	eorseq	r9, r8, r0, lsl #24
    3804:	08a82600 	stmiaeq	r8!, {r9, sl, sp}
    3808:	357c0000 	ldrbcc	r0, [ip, #-0]!
    380c:	9c260000 	stcls	0, cr0, [r6], #-0
    3810:	dd000008 	stcle	0, cr0, [r0, #-32]	; 0xffffffe0
    3814:	3a000035 	bcc	38f0 <_init-0xceec>
    3818:	00000448 	andeq	r0, r0, r8, asr #8
    381c:	0008b52f 	andeq	fp, r8, pc, lsr #10
    3820:	00361a00 	eorseq	r1, r6, r0, lsl #20
    3824:	08c12f00 	stmiaeq	r1, {r8, r9, sl, fp, sp}^
    3828:	36430000 	strbcc	r0, [r3], -r0
    382c:	cd2f0000 	stcgt	0, cr0, [pc, #-0]	; 3834 <_init-0xcfa8>
    3830:	77000008 	strvc	r0, [r0, -r8]
    3834:	2f000036 	svccs	0x00000036
    3838:	000008d9 	ldrdeq	r0, [r0], -r9
    383c:	0000368b 	andeq	r3, r0, fp, lsl #13
    3840:	0006ad43 	andeq	sl, r6, r3, asr #26
    3844:	01252200 			; <UNDEFINED> instruction: 0x01252200
    3848:	00046800 	andeq	r6, r4, r0, lsl #16
    384c:	02700100 	rsbseq	r0, r0, #0, 2
    3850:	0000386e 	andeq	r3, r0, lr, ror #16
    3854:	0006bd26 	andeq	fp, r6, r6, lsr #26
    3858:	0036b400 	eorseq	fp, r6, r0, lsl #8
    385c:	25a02800 	strcs	r2, [r0, #2048]!	; 0x800
    3860:	09f40001 	ldmibeq	r4!, {r0}^
    3864:	01290000 			; <UNDEFINED> instruction: 0x01290000
    3868:	00790250 	rsbseq	r0, r9, r0, asr r2
    386c:	ec440000 	mar	acc0, r0, r4
    3870:	42000006 	andmi	r0, r0, #6
    3874:	90000125 	andls	r0, r0, r5, lsr #2
    3878:	01000004 	tsteq	r0, r4
    387c:	03260274 			; <UNDEFINED> instruction: 0x03260274
    3880:	d2000007 	andle	r0, r0, #7
    3884:	26000036 			; <UNDEFINED> instruction: 0x26000036
    3888:	000006f8 	strdeq	r0, [r0], -r8
    388c:	000036f0 	strdeq	r3, [r0], -r0
    3890:	0125bc39 			; <UNDEFINED> instruction: 0x0125bc39
    3894:	000a4900 	andeq	r4, sl, r0, lsl #18
    3898:	00000000 	andeq	r0, r0, r0
    389c:	00070f33 	andeq	r0, r7, r3, lsr pc
    38a0:	01254a00 			; <UNDEFINED> instruction: 0x01254a00
    38a4:	00000600 	andeq	r0, r0, r0, lsl #12
    38a8:	02780100 	rsbseq	r0, r8, #0, 2
    38ac:	000038c3 	andeq	r3, r0, r3, asr #17
    38b0:	00071c26 	andeq	r1, r7, r6, lsr #24
    38b4:	00371900 	eorseq	r1, r7, r0, lsl #18
    38b8:	25502e00 	ldrbcs	r2, [r0, #-3584]	; 0xfffff200
    38bc:	0d980001 	ldceq	0, cr0, [r8, #4]
    38c0:	43000000 	movwmi	r0, #0
    38c4:	0000070f 	andeq	r0, r0, pc, lsl #14
    38c8:	00012568 	andeq	r2, r1, r8, ror #10
    38cc:	000004b8 			; <UNDEFINED> instruction: 0x000004b8
    38d0:	ea027c01 	b	a28dc <__bss_end__+0x7e810>
    38d4:	26000038 			; <UNDEFINED> instruction: 0x26000038
    38d8:	0000071c 	andeq	r0, r0, ip, lsl r7
    38dc:	0000373a 	andeq	r3, r0, sl, lsr r7
    38e0:	0125822e 			; <UNDEFINED> instruction: 0x0125822e
    38e4:	000d9800 	andeq	r9, sp, r0, lsl #16
    38e8:	582e0000 	stmdapl	lr!, {}	; <UNPREDICTABLE>
    38ec:	d3000125 	movwle	r0, #293	; 0x125
    38f0:	3c000036 	stccc	0, cr0, [r0], {54}	; 0x36
    38f4:	00012560 	andeq	r2, r1, r0, ror #10
    38f8:	000008e7 	andeq	r0, r0, r7, ror #17
    38fc:	0000390c 	andeq	r3, r0, ip, lsl #18
    3900:	02500129 	subseq	r0, r0, #1073741834	; 0x4000000a
    3904:	01290075 			; <UNDEFINED> instruction: 0x01290075
    3908:	00310151 	eorseq	r0, r1, r1, asr r1
    390c:	0125682e 			; <UNDEFINED> instruction: 0x0125682e
    3910:	0036d300 	eorseq	sp, r6, r0, lsl #6
    3914:	257a4c00 	ldrbcs	r4, [sl, #-3072]!	; 0xfffff400
    3918:	08e70001 	stmiaeq	r7!, {r0}^
    391c:	39280000 	stmdbcc	r8!, {}	; <UNPREDICTABLE>
    3920:	01290000 			; <UNDEFINED> instruction: 0x01290000
    3924:	00300151 	eorseq	r0, r0, r1, asr r1
    3928:	01258e2c 			; <UNDEFINED> instruction: 0x01258e2c
    392c:	0008e700 	andeq	lr, r8, r0, lsl #14
    3930:	51012900 	tstpl	r1, r0, lsl #18
    3934:	00003001 	andeq	r3, r0, r1
    3938:	0008e725 	andeq	lr, r8, r5, lsr #14
    393c:	0125bc00 			; <UNDEFINED> instruction: 0x0125bc00
    3940:	00004a00 	andeq	r4, r0, r0, lsl #20
    3944:	a09c0100 	addsge	r0, ip, r0, lsl #2
    3948:	26000039 			; <UNDEFINED> instruction: 0x26000039
    394c:	000008f4 	strdeq	r0, [r0], -r4
    3950:	0000375a 	andeq	r3, r0, sl, asr r7
    3954:	00090026 	andeq	r0, r9, r6, lsr #32
    3958:	00379400 	eorseq	r9, r7, r0, lsl #8
    395c:	04d05000 	ldrbeq	r5, [r0], #0
    3960:	39820000 	stmibcc	r2, {}	; <UNPREDICTABLE>
    3964:	0c2f0000 	stceq	0, cr0, [pc], #-0	; 396c <_init-0xce70>
    3968:	ce000009 	cdpgt	0, 0, cr0, cr0, cr9, {0}
    396c:	2f000037 	svccs	0x00000037
    3970:	00000918 	andeq	r0, r0, r8, lsl r9
    3974:	000037f3 	strdeq	r3, [r0], -r3	; <UNPREDICTABLE>
    3978:	0125fc39 	msreq	CPSR_sc, r9, lsr ip
    397c:	0006c900 	andeq	ip, r6, r0, lsl #18
    3980:	e83a0000 	ldmda	sl!, {}	; <UNPREDICTABLE>
    3984:	26000004 	strcs	r0, [r0], -r4
    3988:	00000900 	andeq	r0, r0, r0, lsl #18
    398c:	0000380a 	andeq	r3, r0, sl, lsl #16
    3990:	0008f44b 	andeq	pc, r8, fp, asr #8
    3994:	26063900 	strcs	r3, [r6], -r0, lsl #18
    3998:	088f0001 	stmeq	pc, {r0}	; <UNPREDICTABLE>
    399c:	00000000 	andeq	r0, r0, r0
    39a0:	0002e440 	andeq	lr, r2, r0, asr #8
    39a4:	055f0100 	ldrbeq	r0, [pc, #-256]	; 38ac <_init-0xcf30>
    39a8:	000002fb 	strdeq	r0, [r0], -fp
    39ac:	00012608 	andeq	r2, r1, r8, lsl #12
    39b0:	0000012e 	andeq	r0, r0, lr, lsr #2
    39b4:	3bff9c01 	blcc	fffea9c0 <__bss_end__+0xfffc68f4>
    39b8:	f6410000 			; <UNDEFINED> instruction: 0xf6410000
    39bc:	01000010 	tsteq	r0, r0, lsl r0
    39c0:	00b6055f 	adcseq	r0, r6, pc, asr r5
    39c4:	381d0000 	ldmdacc	sp, {}	; <UNPREDICTABLE>
    39c8:	623e0000 	eorsvs	r0, lr, #0
    39cc:	01006675 	tsteq	r0, r5, ror r6
    39d0:	00b6055f 	adcseq	r0, r6, pc, asr r5
    39d4:	38490000 	stmdacc	r9, {}^	; <UNPREDICTABLE>
    39d8:	6c3e0000 	ldcvs	0, cr0, [lr], #-0
    39dc:	01006e65 	tsteq	r0, r5, ror #28
    39e0:	0311055f 	tsteq	r1, #398458880	; 0x17c00000
    39e4:	38670000 	stmdacc	r7!, {}^	; <UNPREDICTABLE>
    39e8:	d43f0000 	ldrtle	r0, [pc], #-0	; 39f0 <_init-0xcdec>
    39ec:	0100000e 	tsteq	r0, lr
    39f0:	06a20567 	strteq	r0, [r2], r7, ror #10
    39f4:	38930000 	ldmcc	r3, {}	; <UNPREDICTABLE>
    39f8:	ed3f0000 	ldc	0, cr0, [pc, #-0]	; 3a00 <_init-0xcddc>
    39fc:	01000003 	tsteq	r0, r3
    3a00:	06a20568 	strteq	r0, [r2], r8, ror #10
    3a04:	38b30000 	ldmcc	r3!, {}	; <UNPREDICTABLE>
    3a08:	0f3f0000 	svceq	0x003f0000
    3a0c:	01000008 	tsteq	r0, r8
    3a10:	06a20569 	strteq	r0, [r2], r9, ror #10
    3a14:	38f20000 	ldmcc	r2!, {}^	; <UNPREDICTABLE>
    3a18:	8b4a0000 	blhi	1283a20 <__bss_end__+0x125f954>
    3a1c:	01000009 	tsteq	r0, r9
    3a20:	06a2056a 	strteq	r0, [r2], sl, ror #10
    3a24:	5a010000 	bpl	43a2c <__bss_end__+0x1f960>
    3a28:	0005dc3f 	andeq	sp, r5, pc, lsr ip
    3a2c:	056c0100 	strbeq	r0, [ip, #-256]!	; 0xffffff00
    3a30:	00000311 	andeq	r0, r0, r1, lsl r3
    3a34:	00003926 	andeq	r3, r0, r6, lsr #18
    3a38:	01006945 	tsteq	r0, r5, asr #18
    3a3c:	0311056d 	tsteq	r1, #457179136	; 0x1b400000
    3a40:	39690000 	stmdbcc	r9!, {}^	; <UNPREDICTABLE>
    3a44:	6f3f0000 	svcvs	0x003f0000
    3a48:	0100000f 	tsteq	r0, pc
    3a4c:	02fb056e 	rscseq	r0, fp, #461373440	; 0x1b800000
    3a50:	39980000 	ldmibcc	r8, {}	; <UNPREDICTABLE>
    3a54:	303c0000 	eorscc	r0, ip, r0
    3a58:	00000126 	andeq	r0, r0, r6, lsr #2
    3a5c:	7600000e 	strvc	r0, [r0], -lr
    3a60:	2900003a 	stmdbcs	r0, {r1, r3, r4, r5}
    3a64:	7a025001 	bvc	97a70 <__bss_end__+0x739a4>
    3a68:	51012900 	tstpl	r1, r0, lsl #18
    3a6c:	29200802 	stmdbcs	r0!, {r1, fp}
    3a70:	08025201 	stmdaeq	r2, {r0, r9, ip, lr}
    3a74:	3e3c0020 	cdpcc	0, 3, cr0, cr12, cr0, {1}
    3a78:	c9000126 	stmdbgt	r0, {r1, r2, r5, r8}
    3a7c:	91000006 	tstls	r0, r6
    3a80:	2900003a 	stmdbcs	r0, {r1, r3, r4, r5}
    3a84:	77025001 	strvc	r5, [r2, -r1]
    3a88:	51012900 	tstpl	r1, r0, lsl #18
    3a8c:	03020a03 	movweq	r0, #10755	; 0x2a03
    3a90:	26463c00 	strbcs	r3, [r6], -r0, lsl #24
    3a94:	06c90001 	strbeq	r0, [r9], r1
    3a98:	3aaa0000 	bcc	fea83aa0 <__bss_end__+0xfea5f9d4>
    3a9c:	01290000 			; <UNDEFINED> instruction: 0x01290000
    3aa0:	00750250 	rsbseq	r0, r5, r0, asr r2
    3aa4:	01510129 	cmpeq	r1, r9, lsr #2
    3aa8:	503c0031 	eorspl	r0, ip, r1, lsr r0
    3aac:	c9000126 	stmdbgt	r0, {r1, r2, r5, r8}
    3ab0:	c5000006 	strgt	r0, [r0, #-6]
    3ab4:	2900003a 	stmdbcs	r0, {r1, r3, r4, r5}
    3ab8:	7a025001 	bvc	97ac4 <__bss_end__+0x739f8>
    3abc:	51012900 	tstpl	r1, r0, lsl #18
    3ac0:	80000a03 	andhi	r0, r0, r3, lsl #20
    3ac4:	26583c00 	ldrbcs	r3, [r8], -r0, lsl #24
    3ac8:	06c90001 	strbeq	r0, [r9], r1
    3acc:	3ad90000 	bcc	ff643ad4 <__bss_end__+0xff61fa08>
    3ad0:	01290000 			; <UNDEFINED> instruction: 0x01290000
    3ad4:	00780250 	rsbseq	r0, r8, r0, asr r2
    3ad8:	26623c00 	strbtcs	r3, [r2], -r0, lsl #24
    3adc:	06c90001 	strbeq	r0, [r9], r1
    3ae0:	3af40000 	bcc	ffd03ae8 <__bss_end__+0xffcdfa1c>
    3ae4:	01290000 			; <UNDEFINED> instruction: 0x01290000
    3ae8:	007a0250 	rsbseq	r0, sl, r0, asr r2
    3aec:	03510129 	cmpeq	r1, #1073741834	; 0x4000000a
    3af0:	0080800a 	addeq	r8, r0, sl
    3af4:	0126682e 			; <UNDEFINED> instruction: 0x0126682e
    3af8:	00067b00 	andeq	r7, r6, r0, lsl #22
    3afc:	26723c00 	ldrbtcs	r3, [r2], -r0, lsl #24
    3b00:	067b0001 	ldrbteq	r0, [fp], -r1
    3b04:	3b110000 	blcc	443b0c <__bss_end__+0x41fa40>
    3b08:	01290000 			; <UNDEFINED> instruction: 0x01290000
    3b0c:	00770250 	rsbseq	r0, r7, r0, asr r2
    3b10:	26823c00 	strcs	r3, [r2], r0, lsl #24
    3b14:	06c90001 	strbeq	r0, [r9], r1
    3b18:	3b2b0000 	blcc	ac3b20 <__bss_end__+0xa9fa54>
    3b1c:	01290000 			; <UNDEFINED> instruction: 0x01290000
    3b20:	00750250 	rsbseq	r0, r5, r0, asr r2
    3b24:	02510129 	subseq	r0, r1, #1073741834	; 0x4000000a
    3b28:	3c000074 	stccc	0, cr0, [r0], {116}	; 0x74
    3b2c:	0001268e 	andeq	r2, r1, lr, lsl #13
    3b30:	000006c9 	andeq	r0, r0, r9, asr #13
    3b34:	00003b46 	andeq	r3, r0, r6, asr #22
    3b38:	02500129 	subseq	r0, r0, #1073741834	; 0x4000000a
    3b3c:	0129007a 			; <UNDEFINED> instruction: 0x0129007a
    3b40:	810a0351 	tsthi	sl, r1, asr r3
    3b44:	a22e0080 	eorge	r0, lr, #128	; 0x80
    3b48:	d3000126 	movwle	r0, #294	; 0x126
    3b4c:	3c000036 	stccc	0, cr0, [r0], {54}	; 0x36
    3b50:	000126a8 	andeq	r2, r1, r8, lsr #13
    3b54:	0000067b 	andeq	r0, r0, fp, ror r6
    3b58:	00003b63 	andeq	r3, r0, r3, ror #22
    3b5c:	02500129 	subseq	r0, r0, #1073741834	; 0x4000000a
    3b60:	3c000077 	stccc	0, cr0, [r0], {119}	; 0x77
    3b64:	000126ba 			; <UNDEFINED> instruction: 0x000126ba
    3b68:	0000067b 	andeq	r0, r0, fp, ror r6
    3b6c:	00003b77 	andeq	r3, r0, r7, ror fp
    3b70:	02500129 	subseq	r0, r0, #1073741834	; 0x4000000a
    3b74:	3c000077 	stccc	0, cr0, [r0], {119}	; 0x77
    3b78:	000126c6 	andeq	r2, r1, r6, asr #13
    3b7c:	0000067b 	andeq	r0, r0, fp, ror r6
    3b80:	00003b8b 	andeq	r3, r0, fp, lsl #23
    3b84:	02500129 	subseq	r0, r0, #1073741834	; 0x4000000a
    3b88:	3c000078 	stccc	0, cr0, [r0], {120}	; 0x78
    3b8c:	000126d8 	ldrdeq	r2, [r1], -r8
    3b90:	0000067b 	andeq	r0, r0, fp, ror r6
    3b94:	00003b9f 	muleq	r0, pc, fp	; <UNPREDICTABLE>
    3b98:	02500129 	subseq	r0, r0, #1073741834	; 0x4000000a
    3b9c:	2e000077 	mcrcs	0, 0, r0, cr0, cr7, {3}
    3ba0:	000126e6 	andeq	r2, r1, r6, ror #13
    3ba4:	0000067b 	andeq	r0, r0, fp, ror r6
    3ba8:	0126f43c 	msreq	CPSR_sx, ip, lsr r4
    3bac:	00067b00 	andeq	r7, r6, r0, lsl #22
    3bb0:	003bbc00 	eorseq	fp, fp, r0, lsl #24
    3bb4:	50012900 	andpl	r2, r1, r0, lsl #18
    3bb8:	00007702 	andeq	r7, r0, r2, lsl #14
    3bbc:	0127023c 			; <UNDEFINED> instruction: 0x0127023c
    3bc0:	00067b00 	andeq	r7, r6, r0, lsl #22
    3bc4:	003bd000 	eorseq	sp, fp, r0
    3bc8:	50012900 	andpl	r2, r1, r0, lsl #18
    3bcc:	00007702 	andeq	r7, r0, r2, lsl #14
    3bd0:	0127143c 			; <UNDEFINED> instruction: 0x0127143c
    3bd4:	000e0000 	andeq	r0, lr, r0
    3bd8:	003bee00 	eorseq	lr, fp, r0, lsl #28
    3bdc:	50012900 	andpl	r2, r1, r0, lsl #18
    3be0:	29007a02 	stmdbcs	r0, {r1, r9, fp, ip, sp, lr}
    3be4:	32015101 	andcc	r5, r1, #1073741824	; 0x40000000
    3be8:	01520129 	cmpeq	r2, r9, lsr #2
    3bec:	24280032 	strtcs	r0, [r8], #-50	; 0xffffffce
    3bf0:	7b000127 	blvc	4094 <_init-0xc748>
    3bf4:	29000006 	stmdbcs	r0, {r1, r2}
    3bf8:	77025001 	strvc	r5, [r2, -r1]
    3bfc:	40000000 	andmi	r0, r0, r0
    3c00:	00000615 	andeq	r0, r0, r5, lsl r6
    3c04:	fb05ba01 	blx	172412 <__bss_end__+0x14e346>
    3c08:	38000002 	stmdacc	r0, {r1}
    3c0c:	86000127 	strhi	r0, [r0], -r7, lsr #2
    3c10:	01000001 	tsteq	r0, r1
    3c14:	003eae9c 	mlaseq	lr, ip, lr, sl
    3c18:	078a4100 	streq	r4, [sl, r0, lsl #2]
    3c1c:	ba010000 	blt	43c24 <__bss_end__+0x1fb58>
    3c20:	0000b605 	andeq	fp, r0, r5, lsl #12
    3c24:	0039c300 	eorseq	ip, r9, r0, lsl #6
    3c28:	03b64100 			; <UNDEFINED> instruction: 0x03b64100
    3c2c:	ba010000 	blt	43c34 <__bss_end__+0x1fb68>
    3c30:	00031105 	andeq	r1, r3, r5, lsl #2
    3c34:	0039fc00 	eorseq	pc, r9, r0, lsl #24
    3c38:	75623e00 	strbvc	r3, [r2, #-3584]!	; 0xfffff200
    3c3c:	ba010066 	blt	43ddc <__bss_end__+0x1fd10>
    3c40:	0000b605 	andeq	fp, r0, r5, lsl #12
    3c44:	003a2800 	eorseq	r2, sl, r0, lsl #16
    3c48:	13764100 	cmnne	r6, #0, 2
    3c4c:	ba010000 	blt	43c54 <__bss_end__+0x1fb88>
    3c50:	00031105 	andeq	r1, r3, r5, lsl #2
    3c54:	003a4600 	eorseq	r4, sl, r0, lsl #12
    3c58:	0ed43f00 	cdpeq	15, 13, cr3, cr4, cr0, {0}
    3c5c:	c2010000 	andgt	r0, r1, #0
    3c60:	0006a205 	andeq	sl, r6, r5, lsl #4
    3c64:	003a7200 	eorseq	r7, sl, r0, lsl #4
    3c68:	03ed3f00 	mvneq	r3, #0, 30
    3c6c:	c3010000 	movwgt	r0, #4096	; 0x1000
    3c70:	0006a205 	andeq	sl, r6, r5, lsl #4
    3c74:	003aa700 	eorseq	sl, sl, r0, lsl #14
    3c78:	080f3f00 	stmdaeq	pc, {r8, r9, sl, fp, ip, sp}	; <UNPREDICTABLE>
    3c7c:	c4010000 	strgt	r0, [r1], #-0
    3c80:	0006a205 	andeq	sl, r6, r5, lsl #4
    3c84:	003ad000 	eorseq	sp, sl, r0
    3c88:	098b4a00 	stmibeq	fp, {r9, fp, lr}
    3c8c:	c5010000 	strgt	r0, [r1, #-0]
    3c90:	0006a205 	andeq	sl, r6, r5, lsl #4
    3c94:	3f590100 	svccc	0x00590100
    3c98:	000005dc 	ldrdeq	r0, [r0], -ip
    3c9c:	1105c801 	tstne	r5, r1, lsl #16
    3ca0:	ee000003 	cdp	0, 0, cr0, cr0, cr3, {0}
    3ca4:	4500003a 	strmi	r0, [r0, #-58]	; 0xffffffc6
    3ca8:	c9010069 	stmdbgt	r1, {r0, r3, r5, r6}
    3cac:	00031105 	andeq	r1, r3, r5, lsl #2
    3cb0:	003b7200 	eorseq	r7, fp, r0, lsl #4
    3cb4:	0f6f3f00 	svceq	0x006f3f00
    3cb8:	ca010000 	bgt	43cc0 <__bss_end__+0x1fbf4>
    3cbc:	0002fb05 	andeq	pc, r2, r5, lsl #22
    3cc0:	003bb400 	eorseq	fp, fp, r0, lsl #8
    3cc4:	06ec4300 	strbteq	r4, [ip], r0, lsl #6
    3cc8:	27900000 	ldrcs	r0, [r0, r0]
    3ccc:	05000001 	streq	r0, [r0, #-1]
    3cd0:	d8010000 	stmdale	r1, {}	; <UNPREDICTABLE>
    3cd4:	003cf805 	eorseq	pc, ip, r5, lsl #16
    3cd8:	07032600 	streq	r2, [r3, -r0, lsl #12]
    3cdc:	3bdf0000 	blcc	ff7c3ce4 <__bss_end__+0xff79fc18>
    3ce0:	f84b0000 			; <UNDEFINED> instruction: 0xf84b0000
    3ce4:	28000006 	stmdacs	r0, {r1, r2}
    3ce8:	000127b8 			; <UNDEFINED> instruction: 0x000127b8
    3cec:	00000a49 	andeq	r0, r0, r9, asr #20
    3cf0:	02500129 	subseq	r0, r0, #1073741834	; 0x4000000a
    3cf4:	0000007a 	andeq	r0, r0, sl, ror r0
    3cf8:	0006ad43 	andeq	sl, r6, r3, asr #26
    3cfc:	0127d000 			; <UNDEFINED> instruction: 0x0127d000
    3d00:	00052000 	andeq	r2, r5, r0
    3d04:	05e40100 	strbeq	r0, [r4, #256]!	; 0x100
    3d08:	00003d22 	andeq	r3, r0, r2, lsr #26
    3d0c:	0006bd4b 	andeq	fp, r6, fp, asr #26
    3d10:	27f02800 	ldrbcs	r2, [r0, r0, lsl #16]!
    3d14:	09f40001 	ldmibeq	r4!, {r0}^
    3d18:	01290000 			; <UNDEFINED> instruction: 0x01290000
    3d1c:	00770250 	rsbseq	r0, r7, r0, asr r2
    3d20:	ad430000 	stclge	0, cr0, [r3, #-0]
    3d24:	16000006 	strne	r0, [r0], -r6
    3d28:	38000128 	stmdacc	r0, {r3, r5, r8}
    3d2c:	01000005 	tsteq	r0, r5
    3d30:	3d4c05f3 	cfstr64cc	mvdx0, [ip, #-972]	; 0xfffffc34
    3d34:	bd4b0000 	stcllt	0, cr0, [fp, #-0]
    3d38:	28000006 	stmdacs	r0, {r1, r2}
    3d3c:	0001285e 	andeq	r2, r1, lr, asr r8
    3d40:	000009f4 	strdeq	r0, [r0], -r4
    3d44:	02500129 	subseq	r0, r0, #1073741834	; 0x4000000a
    3d48:	00000077 	andeq	r0, r0, r7, ror r0
    3d4c:	0006ad43 	andeq	sl, r6, r3, asr #26
    3d50:	01282e00 			; <UNDEFINED> instruction: 0x01282e00
    3d54:	00055000 	andeq	r5, r5, r0
    3d58:	05f90100 	ldrbeq	r0, [r9, #256]!	; 0x100
    3d5c:	00003d76 	andeq	r3, r0, r6, ror sp
    3d60:	0006bd4b 	andeq	fp, r6, fp, asr #26
    3d64:	28562800 	ldmdacs	r6, {fp, sp}^
    3d68:	09f40001 	ldmibeq	r4!, {r0}^
    3d6c:	01290000 			; <UNDEFINED> instruction: 0x01290000
    3d70:	007a0250 	rsbseq	r0, sl, r0, asr r2
    3d74:	683c0000 	ldmdavs	ip!, {}	; <UNPREDICTABLE>
    3d78:	00000127 	andeq	r0, r0, r7, lsr #2
    3d7c:	9600000e 	strls	r0, [r0], -lr
    3d80:	2900003d 	stmdbcs	r0, {r0, r2, r3, r4, r5}
    3d84:	79025001 	stmdbvc	r2, {r0, ip, lr}
    3d88:	51012900 	tstpl	r1, r0, lsl #18
    3d8c:	29200802 	stmdbcs	r0!, {r1, fp}
    3d90:	08025201 	stmdaeq	r2, {r0, r9, ip, lr}
    3d94:	763c0020 	ldrtvc	r0, [ip], -r0, lsr #32
    3d98:	c9000127 	stmdbgt	r0, {r0, r1, r2, r5, r8}
    3d9c:	b1000006 	tstlt	r0, r6
    3da0:	2900003d 	stmdbcs	r0, {r0, r2, r3, r4, r5}
    3da4:	77025001 	strvc	r5, [r2, -r1]
    3da8:	51012900 	tstpl	r1, r0, lsl #18
    3dac:	03020a03 	movweq	r0, #10755	; 0x2a03
    3db0:	27803c00 	strcs	r3, [r0, r0, lsl #24]
    3db4:	06c90001 	strbeq	r0, [r9], r1
    3db8:	3dcc0000 	stclcc	0, cr0, [ip]
    3dbc:	01290000 			; <UNDEFINED> instruction: 0x01290000
    3dc0:	54910350 	ldrpl	r0, [r1], #848	; 0x350
    3dc4:	51012906 	tstpl	r1, r6, lsl #18
    3dc8:	00007602 	andeq	r7, r0, r2, lsl #12
    3dcc:	0127ce3c 			; <UNDEFINED> instruction: 0x0127ce3c
    3dd0:	0006c900 	andeq	ip, r6, r0, lsl #18
    3dd4:	003de700 	eorseq	lr, sp, r0, lsl #14
    3dd8:	50012900 	andpl	r2, r1, r0, lsl #18
    3ddc:	29007902 	stmdbcs	r0, {r1, r8, fp, ip, sp, lr}
    3de0:	0a035101 	beq	d81ec <__bss_end__+0xb4120>
    3de4:	3c008080 	stccc	0, cr8, [r0], {128}	; 0x80
    3de8:	000127de 	ldrdeq	r2, [r1], -lr
    3dec:	0000067b 	andeq	r0, r0, fp, ror r6
    3df0:	00003dfb 	strdeq	r3, [r0], -fp
    3df4:	02500129 	subseq	r0, r0, #1073741834	; 0x4000000a
    3df8:	3c000077 	stccc	0, cr0, [r0], {119}	; 0x77
    3dfc:	000127fc 	strdeq	r2, [r1], -ip
    3e00:	000006c9 	andeq	r0, r0, r9, asr #13
    3e04:	00003e16 	andeq	r3, r0, r6, lsl lr
    3e08:	03500129 	cmpeq	r0, #1073741834	; 0x4000000a
    3e0c:	29065491 	stmdbcs	r6, {r0, r4, r7, sl, ip, lr}
    3e10:	74025101 	strvc	r5, [r2], #-257	; 0xfffffeff
    3e14:	083c0000 	ldmdaeq	ip!, {}	; <UNPREDICTABLE>
    3e18:	c9000128 	stmdbgt	r0, {r3, r5, r8}
    3e1c:	31000006 	tstcc	r0, r6
    3e20:	2900003e 	stmdbcs	r0, {r1, r2, r3, r4, r5}
    3e24:	79025001 	stmdbvc	r2, {r0, ip, lr}
    3e28:	51012900 	tstpl	r1, r0, lsl #18
    3e2c:	80810a03 	addhi	r0, r1, r3, lsl #20
    3e30:	28162e00 	ldmdacs	r6, {r9, sl, fp, sp}
    3e34:	36d30001 	ldrbcc	r0, [r3], r1
    3e38:	443c0000 	ldrtmi	r0, [ip], #-0
    3e3c:	7b000128 	blvc	42e4 <_init-0xc4f8>
    3e40:	4e000006 	cdpmi	0, 0, cr0, cr0, cr6, {0}
    3e44:	2900003e 	stmdbcs	r0, {r1, r2, r3, r4, r5}
    3e48:	77025001 	strvc	r5, [r2, -r1]
    3e4c:	6c2e0000 	stcvs	0, cr0, [lr], #-0
    3e50:	7b000128 	blvc	42f8 <_init-0xc4e4>
    3e54:	3c000006 	stccc	0, cr0, [r0], {6}
    3e58:	0001287a 	andeq	r2, r1, sl, ror r8
    3e5c:	0000067b 	andeq	r0, r0, fp, ror r6
    3e60:	00003e6b 	andeq	r3, r0, fp, ror #28
    3e64:	02500129 	subseq	r0, r0, #1073741834	; 0x4000000a
    3e68:	3c000077 	stccc	0, cr0, [r0], {119}	; 0x77
    3e6c:	00012888 	andeq	r2, r1, r8, lsl #17
    3e70:	0000067b 	andeq	r0, r0, fp, ror r6
    3e74:	00003e7f 	andeq	r3, r0, pc, ror lr
    3e78:	02500129 	subseq	r0, r0, #1073741834	; 0x4000000a
    3e7c:	3c000077 	stccc	0, cr0, [r0], {119}	; 0x77
    3e80:	0001289a 	muleq	r1, sl, r8
    3e84:	00000e00 	andeq	r0, r0, r0, lsl #28
    3e88:	00003e9d 	muleq	r0, sp, lr
    3e8c:	02500129 	subseq	r0, r0, #1073741834	; 0x4000000a
    3e90:	01290079 			; <UNDEFINED> instruction: 0x01290079
    3e94:	29320151 	ldmdbcs	r2!, {r0, r4, r6, r8}
    3e98:	32015201 	andcc	r5, r1, #268435456	; 0x10000000
    3e9c:	28ac2800 	stmiacs	ip!, {fp, sp}
    3ea0:	067b0001 	ldrbteq	r0, [fp], -r1
    3ea4:	01290000 			; <UNDEFINED> instruction: 0x01290000
    3ea8:	00770250 	rsbseq	r0, r7, r0, asr r2
    3eac:	5d250000 	stcpl	0, cr0, [r5, #-0]
    3eb0:	c0000008 	andgt	r0, r0, r8
    3eb4:	16000128 	strne	r0, [r0], -r8, lsr #2
    3eb8:	01000000 	mrseq	r0, (UNDEF: 0)
    3ebc:	003ee99c 	mlaseq	lr, ip, r9, lr
    3ec0:	086a2600 	stmdaeq	sl!, {r9, sl, sp}^
    3ec4:	3bfd0000 	blcc	fff43ecc <__bss_end__+0xfff1fe00>
    3ec8:	76260000 	strtvc	r0, [r6], -r0
    3ecc:	25000008 	strcs	r0, [r0, #-8]
    3ed0:	4200003c 	andmi	r0, r0, #60	; 0x3c
    3ed4:	00000882 	andeq	r0, r0, r2, lsl #17
    3ed8:	04935406 	ldreq	r5, [r3], #1030	; 0x406
    3edc:	2e049355 	mcrcs	3, 0, r9, cr4, cr5, {2}
    3ee0:	000128cc 	andeq	r2, r1, ip, asr #17
    3ee4:	00003657 	andeq	r3, r0, r7, asr r6
    3ee8:	0c063d00 	stceq	13, cr3, [r6], {-0}
    3eec:	4c010000 	stcmi	0, cr0, [r1], {-0}
    3ef0:	0128d806 			; <UNDEFINED> instruction: 0x0128d806
    3ef4:	0000a200 	andeq	sl, r0, r0, lsl #4
    3ef8:	d39c0100 	orrsle	r0, ip, #0, 2
    3efc:	4100003f 	tstmi	r0, pc, lsr r0
    3f00:	00000cfc 	strdeq	r0, [r0], -ip
    3f04:	11064c01 	tstne	r6, r1, lsl #24
    3f08:	4d000003 	stcmi	0, cr0, [r0, #-12]
    3f0c:	4300003c 	movwmi	r0, #60	; 0x3c
    3f10:	00000926 	andeq	r0, r0, r6, lsr #18
    3f14:	00012900 	andeq	r2, r1, r0, lsl #18
    3f18:	00000568 	andeq	r0, r0, r8, ror #10
    3f1c:	51065601 	tstpl	r6, r1, lsl #12
    3f20:	2600003f 			; <UNDEFINED> instruction: 0x2600003f
    3f24:	00000933 	andeq	r0, r0, r3, lsr r9
    3f28:	00003c76 	andeq	r3, r0, r6, ror ip
    3f2c:	0005683a 	andeq	r6, r5, sl, lsr r8
    3f30:	093f4200 	ldmdbeq	pc!, {r9, lr}	; <UNPREDICTABLE>
    3f34:	91020000 	mrsls	r0, (UNDEF: 2)
    3f38:	2930285c 	ldmdbcs	r0!, {r2, r3, r4, r6, fp, sp}
    3f3c:	46ac0001 	strtmi	r0, [ip], r1
    3f40:	01290000 			; <UNDEFINED> instruction: 0x01290000
    3f44:	5c910250 	lfmpl	f0, 4, [r1], {80}	; 0x50
    3f48:	02510129 	subseq	r0, r1, #1073741834	; 0x4000000a
    3f4c:	00000076 	andeq	r0, r0, r6, ror r0
    3f50:	09264300 	stmdbeq	r6!, {r8, r9, lr}
    3f54:	291c0000 	ldmdbcs	ip, {}	; <UNPREDICTABLE>
    3f58:	05980001 	ldreq	r0, [r8, #1]
    3f5c:	59010000 	stmdbpl	r1, {}	; <UNPREDICTABLE>
    3f60:	003f9306 	eorseq	r9, pc, r6, lsl #6
    3f64:	09332600 	ldmdbeq	r3!, {r9, sl, sp}
    3f68:	3c8b0000 	stccc	0, cr0, [fp], {0}
    3f6c:	983a0000 	ldmdals	sl!, {}	; <UNPREDICTABLE>
    3f70:	42000005 	andmi	r0, r0, #5
    3f74:	0000093f 	andeq	r0, r0, pc, lsr r9
    3f78:	285c9102 	ldmdacs	ip, {r1, r8, ip, pc}^
    3f7c:	0001293e 	andeq	r2, r1, lr, lsr r9
    3f80:	000046ac 	andeq	r4, r0, ip, lsr #13
    3f84:	02500129 	subseq	r0, r0, #1073741834	; 0x4000000a
    3f88:	01295c91 			; <UNDEFINED> instruction: 0x01295c91
    3f8c:	00760251 	rsbseq	r0, r6, r1, asr r2
    3f90:	2e000000 	cdpcs	0, 0, cr0, cr0, cr0, {0}
    3f94:	00012912 	andeq	r2, r1, r2, lsl r9
    3f98:	000006c9 	andeq	r0, r0, r9, asr #13
    3f9c:	0129462e 			; <UNDEFINED> instruction: 0x0129462e
    3fa0:	00067b00 	andeq	r7, r6, r0, lsl #22
    3fa4:	295a3c00 	ldmdbcs	sl, {sl, fp, ip, sp}^
    3fa8:	06c90001 	strbeq	r0, [r9], r1
    3fac:	3fc00000 	svccc	0x00c00000
    3fb0:	01290000 			; <UNDEFINED> instruction: 0x01290000
    3fb4:	00780951 	rsbseq	r0, r8, r1, asr r9
    3fb8:	b408243c 	strlt	r2, [r8], #-1084	; 0xfffffbc4
    3fbc:	00212447 	eoreq	r2, r1, r7, asr #8
    3fc0:	0129682e 			; <UNDEFINED> instruction: 0x0129682e
    3fc4:	0006c900 	andeq	ip, r6, r0, lsl #18
    3fc8:	297a2e00 	ldmdbcs	sl!, {r9, sl, fp, sp}^
    3fcc:	46b80001 	ldrtmi	r0, [r8], r1
    3fd0:	3d000000 	stccc	0, cr0, [r0, #-0]
    3fd4:	00001484 	andeq	r1, r0, r4, lsl #9
    3fd8:	7c065f01 	stcvc	15, cr5, [r6], {1}
    3fdc:	7c000129 	stfvcs	f0, [r0], {41}	; 0x29
    3fe0:	01000000 	mrseq	r0, (UNDEF: 0)
    3fe4:	0040639c 	umaaleq	r6, r0, ip, r3
    3fe8:	082e4100 	stmdaeq	lr!, {r8, lr}
    3fec:	5f010000 	svcpl	0x00010000
    3ff0:	0002fb06 	andeq	pc, r2, r6, lsl #22
    3ff4:	003c9f00 	eorseq	r9, ip, r0, lsl #30
    3ff8:	08f04100 	ldmeq	r0!, {r8, lr}^
    3ffc:	5f010000 	svcpl	0x00010000
    4000:	0002fb06 	andeq	pc, r2, r6, lsl #22
    4004:	003cc000 	eorseq	ip, ip, r0
    4008:	07f24100 	ldrbeq	r4, [r2, r0, lsl #2]!
    400c:	5f010000 	svcpl	0x00010000
    4010:	0002fb06 	andeq	pc, r2, r6, lsl #22
    4014:	003ce100 	eorseq	lr, ip, r0, lsl #2
    4018:	098b3f00 	stmibeq	fp, {r8, r9, sl, fp, ip, sp}
    401c:	65010000 	strvs	r0, [r1, #-0]
    4020:	00031106 	andeq	r1, r3, r6, lsl #2
    4024:	003d0200 	eorseq	r0, sp, r0, lsl #4
    4028:	06ec4300 	strbteq	r4, [ip], r0, lsl #6
    402c:	29a40000 	stmibcs	r4!, {}	; <UNPREDICTABLE>
    4030:	05c00001 	strbeq	r0, [r0, #1]
    4034:	7f010000 	svcvc	0x00010000
    4038:	00405906 	subeq	r5, r0, r6, lsl #18
    403c:	07032600 	streq	r2, [r3, -r0, lsl #12]
    4040:	3d360000 	ldccc	0, cr0, [r6, #-0]
    4044:	f8260000 			; <UNDEFINED> instruction: 0xf8260000
    4048:	5f000006 	svcpl	0x00000006
    404c:	3900003d 	stmdbcc	r0, {r0, r2, r3, r4, r5}
    4050:	000129de 	ldrdeq	r2, [r1], -lr
    4054:	00000a49 	andeq	r0, r0, r9, asr #20
    4058:	299e2e00 	ldmibcs	lr, {r9, sl, fp, sp}
    405c:	067b0001 	ldrbteq	r0, [fp], -r1
    4060:	3d000000 	stccc	0, cr0, [r0, #-0]
    4064:	00000d24 	andeq	r0, r0, r4, lsr #26
    4068:	f8068401 			; <UNDEFINED> instruction: 0xf8068401
    406c:	5e000129 	adfplsp	f0, f0, #1.0
    4070:	01000000 	mrseq	r0, (UNDEF: 0)
    4074:	0040f69c 	umaaleq	pc, r0, ip, r6	; <UNPREDICTABLE>
    4078:	082e4100 	stmdaeq	lr!, {r8, lr}
    407c:	84010000 	strhi	r0, [r1], #-0
    4080:	0002fb06 	andeq	pc, r2, r6, lsl #22
    4084:	003d7d00 	eorseq	r7, sp, r0, lsl #26
    4088:	0d344100 	ldfeqs	f4, [r4, #-0]
    408c:	84010000 	strhi	r0, [r1], #-0
    4090:	00031106 	andeq	r1, r3, r6, lsl #2
    4094:	003db700 	eorseq	fp, sp, r0, lsl #14
    4098:	06ec4300 	strbteq	r4, [ip], r0, lsl #6
    409c:	2a100000 	bcs	4040a4 <__bss_end__+0x3dffd8>
    40a0:	05e80001 	strbeq	r0, [r8, #1]!
    40a4:	8b010000 	blhi	440ac <__bss_end__+0x1ffe0>
    40a8:	0040c906 	subeq	ip, r0, r6, lsl #18
    40ac:	07032600 	streq	r2, [r3, -r0, lsl #12]
    40b0:	3df10000 	ldclcc	0, cr0, [r1]
    40b4:	f8260000 			; <UNDEFINED> instruction: 0xf8260000
    40b8:	1d000006 	stcne	0, cr0, [r0, #-24]	; 0xffffffe8
    40bc:	3900003e 	stmdbcc	r0, {r1, r2, r3, r4, r5}
    40c0:	00012a4a 	andeq	r2, r1, sl, asr #20
    40c4:	00000a49 	andeq	r0, r0, r9, asr #20
    40c8:	06ec4400 	strbteq	r4, [ip], r0, lsl #8
    40cc:	2a2e0000 	bcs	b840d4 <__bss_end__+0xb60008>
    40d0:	06100001 	ldreq	r0, [r0], -r1
    40d4:	8d010000 	stchi	0, cr0, [r1, #-0]
    40d8:	07032606 	streq	r2, [r3, -r6, lsl #12]
    40dc:	3e3f0000 	cdpcc	0, 3, cr0, cr15, cr0, {0}
    40e0:	f8260000 			; <UNDEFINED> instruction: 0xf8260000
    40e4:	6b000006 	blvs	4104 <_init-0xc6d8>
    40e8:	3900003e 	stmdbcc	r0, {r1, r2, r3, r4, r5}
    40ec:	00012a56 	andeq	r2, r1, r6, asr sl
    40f0:	00000a49 	andeq	r0, r0, r9, asr #20
    40f4:	d83d0000 	ldmdale	sp!, {}	; <UNPREDICTABLE>
    40f8:	01000003 	tsteq	r0, r3
    40fc:	2a580690 	bcs	1605b44 <__bss_end__+0x15e1a78>
    4100:	005e0001 	subseq	r0, lr, r1
    4104:	9c010000 	stcls	0, cr0, [r1], {-0}
    4108:	00004189 	andeq	r4, r0, r9, lsl #3
    410c:	00082e41 	andeq	r2, r8, r1, asr #28
    4110:	06900100 	ldreq	r0, [r0], r0, lsl #2
    4114:	000002fb 	strdeq	r0, [r0], -fp
    4118:	00003e8d 	andeq	r3, r0, sp, lsl #29
    411c:	0003e841 	andeq	lr, r3, r1, asr #16
    4120:	06900100 	ldreq	r0, [r0], r0, lsl #2
    4124:	00000311 	andeq	r0, r0, r1, lsl r3
    4128:	00003ec7 	andeq	r3, r0, r7, asr #29
    412c:	0006ec43 	andeq	lr, r6, r3, asr #24
    4130:	012a7000 			; <UNDEFINED> instruction: 0x012a7000
    4134:	00063000 	andeq	r3, r6, r0
    4138:	06970100 	ldreq	r0, [r7], r0, lsl #2
    413c:	0000415c 	andeq	r4, r0, ip, asr r1
    4140:	00070326 	andeq	r0, r7, r6, lsr #6
    4144:	003f0100 	eorseq	r0, pc, r0, lsl #2
    4148:	06f82600 	ldrbteq	r2, [r8], r0, lsl #12
    414c:	3f2d0000 	svccc	0x002d0000
    4150:	aa390000 	bge	e44158 <__bss_end__+0xe2008c>
    4154:	4900012a 	stmdbmi	r0, {r1, r3, r5, r8}
    4158:	0000000a 	andeq	r0, r0, sl
    415c:	0006ec44 	andeq	lr, r6, r4, asr #24
    4160:	012a8e00 			; <UNDEFINED> instruction: 0x012a8e00
    4164:	00065800 	andeq	r5, r6, r0, lsl #16
    4168:	06990100 	ldreq	r0, [r9], r0, lsl #2
    416c:	00070326 	andeq	r0, r7, r6, lsr #6
    4170:	003f4f00 	eorseq	r4, pc, r0, lsl #30
    4174:	06f82600 	ldrbteq	r2, [r8], r0, lsl #12
    4178:	3f7b0000 	svccc	0x007b0000
    417c:	b6390000 	ldrtlt	r0, [r9], -r0
    4180:	4900012a 	stmdbmi	r0, {r1, r3, r5, r8}
    4184:	0000000a 	andeq	r0, r0, sl
    4188:	00944000 	addseq	r4, r4, r0
    418c:	9d010000 	stcls	0, cr0, [r1, #-0]
    4190:	0000a906 	andeq	sl, r0, r6, lsl #18
    4194:	012ab800 			; <UNDEFINED> instruction: 0x012ab800
    4198:	00004200 	andeq	r4, r0, r0, lsl #4
    419c:	f79c0100 			; <UNDEFINED> instruction: 0xf79c0100
    41a0:	41000041 	tstmi	r0, r1, asr #32
    41a4:	000008a3 	andeq	r0, r0, r3, lsr #17
    41a8:	33069d01 	movwcc	r9, #27905	; 0x6d01
    41ac:	9d000000 	stcls	0, cr0, [r0, #-0]
    41b0:	4500003f 	strmi	r0, [r0, #-63]	; 0xffffffc1
    41b4:	006d656d 	rsbeq	r6, sp, sp, ror #10
    41b8:	a9069f01 	stmdbge	r6, {r0, r8, r9, sl, fp, ip, pc}
    41bc:	bb000000 	bllt	41c4 <_init-0xc618>
    41c0:	2e00003f 	mcrcs	0, 0, r0, cr0, cr15, {1}
    41c4:	00012ace 	andeq	r2, r1, lr, asr #21
    41c8:	0000468a 	andeq	r4, r0, sl, lsl #13
    41cc:	012adc3c 			; <UNDEFINED> instruction: 0x012adc3c
    41d0:	0046c100 	subeq	ip, r6, r0, lsl #2
    41d4:	0041ed00 	subeq	lr, r1, r0, lsl #26
    41d8:	50012900 	andpl	r2, r1, r0, lsl #18
    41dc:	29007d02 	stmdbcs	r0, {r1, r8, sl, fp, ip, sp, lr}
    41e0:	0a035101 	beq	d85ec <__bss_end__+0xb4520>
    41e4:	01291000 			; <UNDEFINED> instruction: 0x01291000
    41e8:	00760252 	rsbseq	r0, r6, r2, asr r2
    41ec:	2afa2e00 	bcs	ffe8f9f4 <__bss_end__+0xffe6b928>
    41f0:	46b80001 	ldrtmi	r0, [r8], r1
    41f4:	40000000 	andmi	r0, r0, r0
    41f8:	0000039b 	muleq	r0, fp, r3
    41fc:	6106b801 	tstvs	r6, r1, lsl #16
    4200:	fc000000 	stc2	0, cr0, [r0], {-0}
    4204:	6600012a 	strvs	r0, [r0], -sl, lsr #2
    4208:	01000002 	tsteq	r0, r2
    420c:	0044b19c 	umaaleq	fp, r4, ip, r1
    4210:	00ad3f00 	adceq	r3, sp, r0, lsl #30
    4214:	ba010000 	blt	4421c <__bss_end__+0x20150>
    4218:	00006106 	andeq	r6, r0, r6, lsl #2
    421c:	003fce00 	eorseq	ip, pc, r0, lsl #28
    4220:	6b6f4500 	blvs	1bd5628 <__bss_end__+0x1bb155c>
    4224:	06bb0100 	ldrteq	r0, [fp], r0, lsl #2
    4228:	00000061 	andeq	r0, r0, r1, rrx
    422c:	00004006 	andeq	r4, r0, r6
    4230:	00706645 	rsbseq	r6, r0, r5, asr #12
    4234:	0106bc01 	tsteq	r6, r1, lsl #24
    4238:	56000006 	strpl	r0, [r0], -r6
    423c:	51000040 	tstpl	r0, r0, asr #32
    4240:	0000140c 	andeq	r1, r0, ip, lsl #8
    4244:	50073f01 	andpl	r3, r7, r1, lsl #30
    4248:	00000678 	andeq	r0, r0, r8, ror r6
    424c:	000042e9 	andeq	r4, r0, r9, ror #5
    4250:	6675624e 	ldrbtvs	r6, [r5], -lr, asr #4
    4254:	06d50100 	ldrbeq	r0, [r5], r0, lsl #2
    4258:	000044b1 			; <UNDEFINED> instruction: 0x000044b1
    425c:	3f549102 	svccc	0x00549102
    4260:	00000927 	andeq	r0, r0, r7, lsr #18
    4264:	1106d601 	tstne	r6, r1, lsl #12
    4268:	ab000003 	blge	427c <_init-0xc560>
    426c:	3f000040 	svccc	0x00000040
    4270:	00000897 	muleq	r0, r7, r8
    4274:	1106d701 	tstne	r6, r1, lsl #14
    4278:	ee000003 	cdp	0, 0, cr0, cr0, cr3, {0}
    427c:	33000040 	movwcc	r0, #64	; 0x40
    4280:	00000985 	andeq	r0, r0, r5, lsl #19
    4284:	00012bb0 			; <UNDEFINED> instruction: 0x00012bb0
    4288:	0000000c 	andeq	r0, r0, ip
    428c:	d806d801 	stmdale	r6, {r0, fp, ip, lr, pc}
    4290:	26000042 	strcs	r0, [r0], -r2, asr #32
    4294:	000009ba 			; <UNDEFINED> instruction: 0x000009ba
    4298:	00004144 	andeq	r4, r0, r4, asr #2
    429c:	0009ae26 	andeq	sl, r9, r6, lsr #28
    42a0:	00416d00 	subeq	r6, r1, r0, lsl #26
    42a4:	09a22600 	stmibeq	r2!, {r9, sl, sp}
    42a8:	41810000 	orrmi	r0, r1, r0
    42ac:	96260000 	strtls	r0, [r6], -r0
    42b0:	95000009 	strls	r0, [r0, #-9]
    42b4:	28000041 	stmdacs	r0, {r0, r6}
    42b8:	00012bbc 			; <UNDEFINED> instruction: 0x00012bbc
    42bc:	000046cd 	andeq	r4, r0, sp, asr #13
    42c0:	02500129 	subseq	r0, r0, #1073741834	; 0x4000000a
    42c4:	01295491 			; <UNDEFINED> instruction: 0x01295491
    42c8:	29310151 	ldmdbcs	r1!, {r0, r4, r6, r8}
    42cc:	40015201 	andmi	r5, r1, r1, lsl #4
    42d0:	02530129 	subseq	r0, r3, #1073741834	; 0x4000000a
    42d4:	00000076 	andeq	r0, r0, r6, ror r0
    42d8:	012be028 			; <UNDEFINED> instruction: 0x012be028
    42dc:	0046dd00 	subeq	sp, r6, r0, lsl #26
    42e0:	50012900 	andpl	r2, r1, r0, lsl #18
    42e4:	00007602 	andeq	r7, r0, r2, lsl #12
    42e8:	09cc4300 	stmibeq	ip, {r8, r9, lr}^
    42ec:	2be40000 	blcs	ff9042f4 <__bss_end__+0xff8e0228>
    42f0:	06900001 	ldreq	r0, [r0], r1
    42f4:	10010000 	andne	r0, r1, r0
    42f8:	00432307 	subeq	r2, r3, r7, lsl #6
    42fc:	09e72600 	stmibeq	r7!, {r9, sl, sp}^
    4300:	41c20000 	bicmi	r0, r2, r0
    4304:	dc260000 	stcle	0, cr0, [r6], #-0
    4308:	da000009 	ble	4334 <_init-0xc4a8>
    430c:	28000041 	stmdacs	r0, {r0, r6}
    4310:	00012bfc 	strdeq	r2, [r1], -ip
    4314:	000046e8 	andeq	r4, r0, r8, ror #13
    4318:	05500129 	ldrbeq	r0, [r0, #-297]	; 0xfffffed7
    431c:	01301403 	teqeq	r0, r3, lsl #8
    4320:	33000000 	movwcc	r0, #0
    4324:	000009cc 	andeq	r0, r0, ip, asr #19
    4328:	00012c60 	andeq	r2, r1, r0, ror #24
    432c:	00000010 	andeq	r0, r0, r0, lsl r0
    4330:	5d073001 	stcpl	0, cr3, [r7, #-4]
    4334:	26000043 	strcs	r0, [r0], -r3, asr #32
    4338:	000009e7 	andeq	r0, r0, r7, ror #19
    433c:	000041f2 	strdeq	r4, [r0], -r2
    4340:	0009dc26 	andeq	sp, r9, r6, lsr #24
    4344:	00420a00 	subeq	r0, r2, r0, lsl #20
    4348:	2c702800 	ldclcs	8, cr2, [r0], #-0
    434c:	46e80001 	strbtmi	r0, [r8], r1
    4350:	01290000 			; <UNDEFINED> instruction: 0x01290000
    4354:	4c030550 	cfstr32mi	mvfx0, [r3], {80}	; 0x50
    4358:	00000130 	andeq	r0, r0, r0, lsr r1
    435c:	05d93300 	ldrbeq	r3, [r9, #768]	; 0x300
    4360:	2cb20000 	ldccs	0, cr0, [r2]
    4364:	00120001 	andseq	r0, r2, r1
    4368:	32010000 	andcc	r0, r1, #0
    436c:	0043a207 	subeq	sl, r3, r7, lsl #4
    4370:	05f42600 	ldrbeq	r2, [r4, #1536]!	; 0x600
    4374:	42220000 	eormi	r0, r2, #0
    4378:	e9260000 	stmdb	r6!, {}	; <UNPREDICTABLE>
    437c:	3a000005 	bcc	4398 <_init-0xc444>
    4380:	28000042 	stmdacs	r0, {r1, r6}
    4384:	00012cc4 	andeq	r2, r1, r4, asr #25
    4388:	0000467f 	andeq	r4, r0, pc, ror r6
    438c:	02500129 	subseq	r0, r0, #1073741834	; 0x4000000a
    4390:	01290076 			; <UNDEFINED> instruction: 0x01290076
    4394:	29310151 	ldmdbcs	r1!, {r0, r4, r6, r8}
    4398:	03055201 	movweq	r5, #20993	; 0x5201
    439c:	0001305c 	andeq	r3, r1, ip, asr r0
    43a0:	78330000 	ldmdavc	r3!, {}	; <UNPREDICTABLE>
    43a4:	c4000009 	strgt	r0, [r0], #-9
    43a8:	1200012c 	andne	r0, r0, #44, 2
    43ac:	01000000 	mrseq	r0, (UNDEF: 0)
    43b0:	43c00744 	bicmi	r0, r0, #68, 14	; 0x1100000
    43b4:	d22e0000 	eorle	r0, lr, #0
    43b8:	b100012c 	tstlt	r0, ip, lsr #2
    43bc:	0000000a 	andeq	r0, r0, sl
    43c0:	0005d933 	andeq	sp, r5, r3, lsr r9
    43c4:	012cea00 			; <UNDEFINED> instruction: 0x012cea00
    43c8:	00001400 	andeq	r1, r0, r0, lsl #8
    43cc:	07120100 	ldreq	r0, [r2, -r0, lsl #2]
    43d0:	00004405 	andeq	r4, r0, r5, lsl #8
    43d4:	0005f426 	andeq	pc, r5, r6, lsr #8
    43d8:	00424d00 	subeq	r4, r2, r0, lsl #26
    43dc:	05e92600 	strbeq	r2, [r9, #1536]!	; 0x600
    43e0:	42650000 	rsbmi	r0, r5, #0
    43e4:	fc280000 	stc2	0, cr0, [r8], #-0
    43e8:	7f00012c 	svcvc	0x0000012c
    43ec:	29000046 	stmdbcs	r0, {r1, r2, r6}
    43f0:	76025001 	strvc	r5, [r2], -r1
    43f4:	51012900 	tstpl	r1, r0, lsl #18
    43f8:	01293101 			; <UNDEFINED> instruction: 0x01293101
    43fc:	20030552 	andcs	r0, r3, r2, asr r5
    4400:	00000130 	andeq	r0, r0, r0, lsr r1
    4404:	2bac3c00 	blcs	feb1340c <__bss_end__+0xfeaef340>
    4408:	46f70001 	ldrbtmi	r0, [r7], r1
    440c:	44250000 	strtmi	r0, [r5], #-0
    4410:	01290000 			; <UNDEFINED> instruction: 0x01290000
    4414:	f4030550 	vst3.16	{d0,d2,d4}, [r3 :64], r0
    4418:	2900012f 	stmdbcs	r0, {r0, r1, r2, r3, r5, r8}
    441c:	03055101 	movweq	r5, #20737	; 0x5101
    4420:	00012ff0 	strdeq	r2, [r1], -r0
    4424:	2be42e00 	blcs	ff90fc2c <__bss_end__+0xff8ebb60>
    4428:	47030001 	strmi	r0, [r3, -r1]
    442c:	123c0000 	eorsne	r0, ip, #0
    4430:	f100012c 			; <UNDEFINED> instruction: 0xf100012c
    4434:	4200000a 	andmi	r0, r0, #10
    4438:	29000044 	stmdbcs	r0, {r2, r6}
    443c:	77025101 	strvc	r5, [r2, -r1, lsl #2]
    4440:	8a3c0000 	bhi	f04448 <__bss_end__+0xee037c>
    4444:	f100012c 			; <UNDEFINED> instruction: 0xf100012c
    4448:	5b00000a 	blpl	4478 <_init-0xc364>
    444c:	29000044 	stmdbcs	r0, {r2, r6}
    4450:	77025101 	strvc	r5, [r2, -r1, lsl #2]
    4454:	52012900 	andpl	r2, r1, #0, 18
    4458:	3c003001 	stccc	0, cr3, [r0], {1}
    445c:	00012c9a 	muleq	r1, sl, ip
    4460:	0000470f 	andeq	r4, r0, pc, lsl #14
    4464:	0000446f 	andeq	r4, r0, pc, ror #8
    4468:	02500129 	subseq	r0, r0, #1073741834	; 0x4000000a
    446c:	2e000077 	mcrcs	0, 0, r0, cr0, cr7, {3}
    4470:	00012cac 	andeq	r2, r1, ip, lsr #25
    4474:	0000468a 	andeq	r4, r0, sl, lsl #13
    4478:	012cb22e 			; <UNDEFINED> instruction: 0x012cb22e
    447c:	00469500 	subeq	r9, r6, r0, lsl #10
    4480:	2ce42e00 	stclcs	14, cr2, [r4]
    4484:	468a0001 	strmi	r0, [sl], r1
    4488:	ea2e0000 	b	b84490 <__bss_end__+0xb603c4>
    448c:	9500012c 	strls	r0, [r0, #-300]	; 0xfffffed4
    4490:	3c000046 	stccc	0, cr0, [r0], {70}	; 0x46
    4494:	00012d5c 	andeq	r2, r1, ip, asr sp
    4498:	0000470f 	andeq	r4, r0, pc, lsl #14
    449c:	000044a7 	andeq	r4, r0, r7, lsr #9
    44a0:	02500129 	subseq	r0, r0, #1073741834	; 0x4000000a
    44a4:	2e000077 	mcrcs	0, 0, r0, cr0, cr7, {3}
    44a8:	00012d62 	andeq	r2, r1, r2, ror #26
    44ac:	000046b8 			; <UNDEFINED> instruction: 0x000046b8
    44b0:	003e0b00 	eorseq	r0, lr, r0, lsl #22
    44b4:	44c10000 	strbmi	r0, [r1], #0
    44b8:	970c0000 	strls	r0, [ip, -r0]
    44bc:	0f000000 	svceq	0x00000000
    44c0:	09782500 	ldmdbeq	r8!, {r8, sl, sp}^
    44c4:	2d640000 	stclcs	0, cr0, [r4, #-0]
    44c8:	00160001 	andseq	r0, r6, r1
    44cc:	9c010000 	stcls	0, cr0, [r1], {-0}
    44d0:	000044de 	ldrdeq	r4, [r0], -lr
    44d4:	012d762e 			; <UNDEFINED> instruction: 0x012d762e
    44d8:	000ab100 	andeq	fp, sl, r0, lsl #2
    44dc:	91520000 	cmpls	r2, r0
    44e0:	01000002 	tsteq	r0, r2
    44e4:	0002fb43 	andeq	pc, r2, r3, asr #22
    44e8:	c0030500 	andgt	r0, r3, r0, lsl #10
    44ec:	52000240 	andpl	r0, r0, #64, 4
    44f0:	0000072d 	andeq	r0, r0, sp, lsr #14
    44f4:	02fb4701 	rscseq	r4, fp, #262144	; 0x40000
    44f8:	03050000 	movweq	r0, #20480	; 0x5000
    44fc:	000240c1 	andeq	r4, r2, r1, asr #1
    4500:	000ba252 	andeq	sl, fp, r2, asr r2
    4504:	fb4b0100 	blx	12c490e <__bss_end__+0x12a0842>
    4508:	05000002 	streq	r0, [r0, #-2]
    450c:	0240c203 	subeq	ip, r0, #805306368	; 0x30000000
    4510:	08a85200 	stmiaeq	r8!, {r9, ip, lr}
    4514:	4f010000 	svcmi	0x00010000
    4518:	00000061 	andeq	r0, r0, r1, rrx
    451c:	40c80305 	sbcmi	r0, r8, r5, lsl #6
    4520:	dd520002 	ldclle	0, cr0, [r2, #-8]
    4524:	01000006 	tsteq	r0, r6
    4528:	0002fb54 	andeq	pc, r2, r4, asr fp	; <UNPREDICTABLE>
    452c:	a4030500 	strge	r0, [r3], #-1280	; 0xfffffb00
    4530:	0b000240 	bleq	4e38 <_init-0xb9a4>
    4534:	000002fb 	strdeq	r0, [r0], -fp
    4538:	00004543 	andeq	r4, r0, r3, asr #10
    453c:	0000970c 	andeq	r9, r0, ip, lsl #14
    4540:	5200ff00 	andpl	pc, r0, #0, 30
    4544:	00001269 	andeq	r1, r0, r9, ror #4
    4548:	45545501 	ldrbmi	r5, [r4, #-1281]	; 0xfffffaff
    454c:	03050000 	movweq	r0, #20480	; 0x5000
    4550:	00012e0c 	andeq	r2, r1, ip, lsl #28
    4554:	0045330d 	subeq	r3, r5, sp, lsl #6
    4558:	124d4a00 	subne	r4, sp, #0, 20
    455c:	c7010000 	strgt	r0, [r1, -r0]
    4560:	00031103 	andeq	r1, r3, r3, lsl #2
    4564:	c4030500 	strgt	r0, [r3], #-1280	; 0xfffffb00
    4568:	53000240 	movwpl	r0, #576	; 0x240
    456c:	000006b6 			; <UNDEFINED> instruction: 0x000006b6
    4570:	02c4a808 	sbceq	sl, r4, #8, 16	; 0x80000
    4574:	91530000 	cmpls	r3, r0
    4578:	08000013 	stmdaeq	r0, {r0, r1, r4}
    457c:	0002c4a9 	andeq	ip, r2, r9, lsr #9
    4580:	11575300 	cmpne	r7, r0, lsl #6
    4584:	aa080000 	bge	20458c <__bss_end__+0x1e04c0>
    4588:	000002c4 	andeq	r0, r0, r4, asr #5
    458c:	00132454 	andseq	r2, r3, r4, asr r4
    4590:	36290100 	strtcc	r0, [r9], -r0, lsl #2
    4594:	0500000c 	streq	r0, [r0, #-12]
    4598:	0240a803 	subeq	sl, r0, #196608	; 0x30000
    459c:	01935400 	orrseq	r5, r3, r0, lsl #8
    45a0:	2a010000 	bcs	445a8 <__bss_end__+0x204dc>
    45a4:	00000311 	andeq	r0, r0, r1, lsl r3
    45a8:	40780305 	rsbsmi	r0, r8, r5, lsl #6
    45ac:	79540002 	ldmdbvc	r4, {r1}^
    45b0:	01000006 	tsteq	r0, r6
    45b4:	000c362e 	andeq	r3, ip, lr, lsr #12
    45b8:	74030500 	strvc	r0, [r3], #-1280	; 0xfffffb00
    45bc:	54000240 	strpl	r0, [r0], #-576	; 0xfffffdc0
    45c0:	0000088c 	andeq	r0, r0, ip, lsl #17
    45c4:	06a23901 	strteq	r3, [r2], r1, lsl #18
    45c8:	03050000 	movweq	r0, #20480	; 0x5000
    45cc:	00024098 	muleq	r2, r8, r0
    45d0:	00097e54 	andeq	r7, r9, r4, asr lr
    45d4:	a2320100 	eorsge	r0, r2, #0, 2
    45d8:	05000006 	streq	r0, [r0, #-6]
    45dc:	02407c03 	subeq	r7, r0, #768	; 0x300
    45e0:	085a5400 	ldmdaeq	sl, {sl, ip, lr}^
    45e4:	33010000 	movwcc	r0, #4096	; 0x1000
    45e8:	000006a2 	andeq	r0, r0, r2, lsr #13
    45ec:	40800305 	addmi	r0, r0, r5, lsl #6
    45f0:	76540002 	ldrbvc	r0, [r4], -r2
    45f4:	0100000f 	tsteq	r0, pc
    45f8:	0006a234 	andeq	sl, r6, r4, lsr r2
    45fc:	84030500 	strhi	r0, [r3], #-1280	; 0xfffffb00
    4600:	54000240 	strpl	r0, [r0], #-576	; 0xfffffdc0
    4604:	000004b8 			; <UNDEFINED> instruction: 0x000004b8
    4608:	06a23501 	strteq	r3, [r2], r1, lsl #10
    460c:	03050000 	movweq	r0, #20480	; 0x5000
    4610:	00024088 	andeq	r4, r2, r8, lsl #1
    4614:	000a4b54 	andeq	r4, sl, r4, asr fp
    4618:	a2360100 	eorsge	r0, r6, #0, 2
    461c:	05000006 	streq	r0, [r0, #-6]
    4620:	02408c03 	subeq	r8, r0, #768	; 0x300
    4624:	048a5400 	streq	r5, [sl], #1024	; 0x400
    4628:	37010000 	strcc	r0, [r1, -r0]
    462c:	000006a2 	andeq	r0, r0, r2, lsr #13
    4630:	40900305 	addsmi	r0, r0, r5, lsl #6
    4634:	b3540002 	cmplt	r4, #2
    4638:	01000007 	tsteq	r0, r7
    463c:	0006a238 	andeq	sl, r6, r8, lsr r2
    4640:	94030500 	strls	r0, [r3], #-1280	; 0xfffffb00
    4644:	54000240 	strpl	r0, [r0], #-576	; 0xfffffdc0
    4648:	00000c32 	andeq	r0, r0, r2, lsr ip
    464c:	06a23a01 	strteq	r3, [r2], r1, lsl #20
    4650:	03050000 	movweq	r0, #20480	; 0x5000
    4654:	0002409c 	muleq	r2, ip, r0
    4658:	000a5854 	andeq	r5, sl, r4, asr r8
    465c:	a23b0100 	eorsge	r0, fp, #0, 2
    4660:	05000006 	streq	r0, [r0, #-6]
    4664:	0240a003 	subeq	sl, r0, #3
    4668:	02d75500 	sbcseq	r5, r7, #0, 10
    466c:	02d70000 	sbcseq	r0, r7, #0
    4670:	57020000 	strpl	r0, [r2, -r0]
    4674:	00001f55 	andeq	r1, r0, r5, asr pc
    4678:	00001f00 	andeq	r1, r0, r0, lsl #30
    467c:	554c0c00 	strbpl	r0, [ip, #-3072]	; 0xfffff400
    4680:	000008b9 			; <UNDEFINED> instruction: 0x000008b9
    4684:	000008b9 			; <UNDEFINED> instruction: 0x000008b9
    4688:	60555502 	subsvs	r5, r5, r2, lsl #10
    468c:	60000006 	andvs	r0, r0, r6
    4690:	0d000006 	stceq	0, cr0, [r0, #-24]	; 0xffffffe8
    4694:	04c55632 	strbeq	r5, [r5], #1586	; 0x632
    4698:	04c50000 	strbeq	r0, [r5], #0
    469c:	980e0000 	stmdals	lr, {}	; <UNPREDICTABLE>
    46a0:	06d85501 	ldrbeq	r5, [r8], r1, lsl #10
    46a4:	06d80000 	ldrbeq	r0, [r8], r0
    46a8:	390c0000 	stmdbcc	ip, {}	; <UNPREDICTABLE>
    46ac:	00043156 	andeq	r3, r4, r6, asr r1
    46b0:	00043100 	andeq	r3, r4, r0, lsl #2
    46b4:	014e0700 	cmpeq	lr, r0, lsl #14
    46b8:	0008fa57 	andeq	pc, r8, r7, asr sl	; <UNPREDICTABLE>
    46bc:	0008fa00 	andeq	pc, r8, r0, lsl #20
    46c0:	14115600 	ldrne	r5, [r1], #-1536	; 0xfffffa00
    46c4:	14110000 	ldrne	r0, [r1], #-0
    46c8:	f70f0000 			; <UNDEFINED> instruction: 0xf70f0000
    46cc:	13be5801 			; <UNDEFINED> instruction: 0x13be5801
    46d0:	03a80000 			; <UNDEFINED> instruction: 0x03a80000
    46d4:	0d020000 	stceq	0, cr0, [r2, #-0]
    46d8:	0013be01 	andseq	fp, r3, r1, lsl #28
    46dc:	05595500 	ldrbeq	r5, [r9, #-1280]	; 0xfffffb00
    46e0:	05590000 	ldrbeq	r0, [r9, #-0]
    46e4:	ed080000 	stc	0, cr0, [r8, #-0]
    46e8:	0010ad59 	andseq	sl, r0, r9, asr sp
    46ec:	00087600 	andeq	r7, r8, r0, lsl #12
    46f0:	ad1b0300 	ldcge	3, cr0, [fp, #-0]
    46f4:	56000010 			; <UNDEFINED> instruction: 0x56000010
    46f8:	000010ac 	andeq	r1, r0, ip, lsr #1
    46fc:	000010ac 	andeq	r1, r0, ip, lsr #1
    4700:	56011008 	strpl	r1, [r1], -r8
    4704:	000001c1 	andeq	r0, r0, r1, asr #3
    4708:	000001c1 	andeq	r0, r0, r1, asr #3
    470c:	5602a910 			; <UNDEFINED> instruction: 0x5602a910
    4710:	0000027f 	andeq	r0, r0, pc, ror r2
    4714:	0000027f 	andeq	r0, r0, pc, ror r2
    4718:	00016410 	andeq	r6, r1, r0, lsl r4

Disassembly of section .debug_abbrev:

00000000 <.debug_abbrev>:
   0:	25011101 	strcs	r1, [r1, #-257]	; 0xfffffeff
   4:	030b130e 	movweq	r1, #45838	; 0xb30e
   8:	110e1b0e 	tstne	lr, lr, lsl #22
   c:	10061201 	andne	r1, r6, r1, lsl #4
  10:	02000017 	andeq	r0, r0, #23
  14:	0b0b0024 	bleq	2c00ac <__bss_end__+0x29bfe0>
  18:	0e030b3e 	vmoveq.16	d3[0], r0
  1c:	16030000 	strne	r0, [r3], -r0
  20:	3a0e0300 	bcc	380c28 <__bss_end__+0x35cb5c>
  24:	490b3b0b 	stmdbmi	fp, {r0, r1, r3, r8, r9, fp, ip, sp}
  28:	04000013 	streq	r0, [r0], #-19	; 0xffffffed
  2c:	0b0b0024 	bleq	2c00c4 <__bss_end__+0x29bff8>
  30:	08030b3e 	stmdaeq	r3, {r1, r2, r3, r4, r5, r8, r9, fp}
  34:	0f050000 	svceq	0x00050000
  38:	000b0b00 	andeq	r0, fp, r0, lsl #22
  3c:	000f0600 	andeq	r0, pc, r0, lsl #12
  40:	13490b0b 	movtne	r0, #39691	; 0x9b0b
  44:	13070000 	movwne	r0, #28672	; 0x7000
  48:	0b0e0301 	bleq	380c54 <__bss_end__+0x35cb88>
  4c:	3b0b3a0b 	blcc	2ce880 <__bss_end__+0x2aa7b4>
  50:	0013010b 	andseq	r0, r3, fp, lsl #2
  54:	000d0800 	andeq	r0, sp, r0, lsl #16
  58:	0b3a0e03 	bleq	e8386c <__bss_end__+0xe5f7a0>
  5c:	13490b3b 	movtne	r0, #39739	; 0x9b3b
  60:	00000b38 	andeq	r0, r0, r8, lsr fp
  64:	03000d09 	movweq	r0, #3337	; 0xd09
  68:	3b0b3a0e 	blcc	2ce8a8 <__bss_end__+0x2aa7dc>
  6c:	38134905 	ldmdacc	r3, {r0, r2, r8, fp, lr}
  70:	0a00000b 	beq	a4 <_init-0x10738>
  74:	0e030016 	mcreq	0, 0, r0, cr3, cr6, {0}
  78:	0b3b0b3a 	bleq	ec2d68 <__bss_end__+0xe9ec9c>
  7c:	010b0000 	mrseq	r0, (UNDEF: 11)
  80:	01134901 	tsteq	r3, r1, lsl #18
  84:	0c000013 	stceq	0, cr0, [r0], {19}
  88:	13490021 	movtne	r0, #36897	; 0x9021
  8c:	00000b2f 	andeq	r0, r0, pc, lsr #22
  90:	4900260d 	stmdbmi	r0, {r0, r2, r3, r9, sl, sp}
  94:	0e000013 	mcreq	0, 0, r0, cr0, cr3, {0}
  98:	0b0b0104 	bleq	2c04b0 <__bss_end__+0x29c3e4>
  9c:	0b3a1349 	bleq	e84dc8 <__bss_end__+0xe60cfc>
  a0:	1301053b 	movwne	r0, #5435	; 0x153b
  a4:	280f0000 	stmdacs	pc, {}	; <UNPREDICTABLE>
  a8:	1c0e0300 	stcne	3, cr0, [lr], {-0}
  ac:	1000000b 	andne	r0, r0, fp
  b0:	193f012e 	ldmdbne	pc!, {r1, r2, r3, r5, r8}	; <UNPREDICTABLE>
  b4:	0b3a0e03 	bleq	e838c8 <__bss_end__+0xe5f7fc>
  b8:	19270b3b 	stmdbne	r7!, {r0, r1, r3, r4, r5, r8, r9, fp}
  bc:	0b201349 	bleq	804de8 <__bss_end__+0x7e0d1c>
  c0:	13011934 	movwne	r1, #6452	; 0x1934
  c4:	05110000 	ldreq	r0, [r1, #-0]
  c8:	3a0e0300 	bcc	380cd0 <__bss_end__+0x35cc04>
  cc:	490b3b0b 	stmdbmi	fp, {r0, r1, r3, r8, r9, fp, ip, sp}
  d0:	12000013 	andne	r0, r0, #19
  d4:	00000018 	andeq	r0, r0, r8, lsl r0
  d8:	49003713 	stmdbmi	r0, {r0, r1, r4, r8, r9, sl, ip, sp}
  dc:	14000013 	strne	r0, [r0], #-19	; 0xffffffed
  e0:	0e03012e 	adfeqsp	f0, f3, #0.5
  e4:	053b0b3a 	ldreq	r0, [fp, #-2874]!	; 0xfffff4c6
  e8:	13491927 	movtne	r1, #39207	; 0x9927
  ec:	13010b20 	movwne	r0, #6944	; 0x1b20
  f0:	05150000 	ldreq	r0, [r5, #-0]
  f4:	3a080300 	bcc	200cfc <__bss_end__+0x1dcc30>
  f8:	49053b0b 	stmdbmi	r5, {r0, r1, r3, r8, r9, fp, ip, sp}
  fc:	16000013 			; <UNDEFINED> instruction: 0x16000013
 100:	0e030005 	cdpeq	0, 0, cr0, cr3, cr5, {0}
 104:	053b0b3a 	ldreq	r0, [fp, #-2874]!	; 0xfffff4c6
 108:	00001349 	andeq	r1, r0, r9, asr #6
 10c:	03003417 	movweq	r3, #1047	; 0x417
 110:	3b0b3a08 	blcc	2ce938 <__bss_end__+0x2aa86c>
 114:	00134905 	andseq	r4, r3, r5, lsl #18
 118:	012e1800 			; <UNDEFINED> instruction: 0x012e1800
 11c:	0e03193f 	mcreq	9, 0, r1, cr3, cr15, {1}
 120:	0b3b0b3a 	bleq	ec2e10 <__bss_end__+0xe9ed44>
 124:	13491927 	movtne	r1, #39207	; 0x9927
 128:	13010b20 	movwne	r0, #6944	; 0x1b20
 12c:	34190000 	ldrcc	r0, [r9], #-0
 130:	3a080300 	bcc	200d38 <__bss_end__+0x1dcc6c>
 134:	490b3b0b 	stmdbmi	fp, {r0, r1, r3, r8, r9, fp, ip, sp}
 138:	1a000013 	bne	18c <_init-0x10650>
 13c:	13490035 	movtne	r0, #36917	; 0x9035
 140:	2e1b0000 	cdpcs	0, 1, cr0, cr11, cr0, {0}
 144:	03193f01 	tsteq	r9, #1, 30
 148:	3b0b3a0e 	blcc	2ce988 <__bss_end__+0x2aa8bc>
 14c:	2019270b 	andscs	r2, r9, fp, lsl #14
 150:	0013010b 	andseq	r0, r3, fp, lsl #2
 154:	012e1c00 			; <UNDEFINED> instruction: 0x012e1c00
 158:	0e03193f 	mcreq	9, 0, r1, cr3, cr15, {1}
 15c:	053b0b3a 	ldreq	r0, [fp, #-2874]!	; 0xfffff4c6
 160:	0b201927 	bleq	806604 <__bss_end__+0x7e2538>
 164:	00001301 	andeq	r1, r0, r1, lsl #6
 168:	00010b1d 	andeq	r0, r1, sp, lsl fp
 16c:	00341e00 	eorseq	r1, r4, r0, lsl #28
 170:	0b3a0e03 	bleq	e83984 <__bss_end__+0xe5f8b8>
 174:	1349053b 	movtne	r0, #38203	; 0x953b
 178:	2e1f0000 	cdpcs	0, 1, cr0, cr15, cr0, {0}
 17c:	3a0e0301 	bcc	380d88 <__bss_end__+0x35ccbc>
 180:	270b3b0b 	strcs	r3, [fp, -fp, lsl #22]
 184:	20134919 	andscs	r4, r3, r9, lsl r9
 188:	0013010b 	andseq	r0, r3, fp, lsl #2
 18c:	00052000 	andeq	r2, r5, r0
 190:	0b3a0803 	bleq	e821a4 <__bss_end__+0xe5e0d8>
 194:	13490b3b 	movtne	r0, #39739	; 0x9b3b
 198:	2e210000 	cdpcs	0, 2, cr0, cr1, cr0, {0}
 19c:	03193f01 	tsteq	r9, #1, 30
 1a0:	3b0b3a0e 	blcc	2ce9e0 <__bss_end__+0x2aa914>
 1a4:	49192705 	ldmdbmi	r9, {r0, r2, r8, r9, sl, sp}
 1a8:	010b2013 	tsteq	fp, r3, lsl r0
 1ac:	22000013 	andcs	r0, r0, #19
 1b0:	0e03012e 	adfeqsp	f0, f3, #0.5
 1b4:	053b0b3a 	ldreq	r0, [fp, #-2874]!	; 0xfffff4c6
 1b8:	0b201927 	bleq	80665c <__bss_end__+0x7e2590>
 1bc:	00001301 	andeq	r1, r0, r1, lsl #6
 1c0:	3f002e23 	svccc	0x00002e23
 1c4:	3a0e0319 	bcc	380e30 <__bss_end__+0x35cd64>
 1c8:	27053b0b 	strcs	r3, [r5, -fp, lsl #22]
 1cc:	20134919 	andscs	r4, r3, r9, lsl r9
 1d0:	2400000b 	strcs	r0, [r0], #-11
 1d4:	193f012e 	ldmdbne	pc!, {r1, r2, r3, r5, r8}	; <UNPREDICTABLE>
 1d8:	0b3a0e03 	bleq	e839ec <__bss_end__+0xe5f920>
 1dc:	1927053b 	stmdbne	r7!, {r0, r1, r3, r4, r5, r8, sl}
 1e0:	0b201349 	bleq	804f0c <__bss_end__+0x7e0e40>
 1e4:	13011934 	movwne	r1, #6452	; 0x1934
 1e8:	2e250000 	cdpcs	0, 2, cr0, cr5, cr0, {0}
 1ec:	11133101 	tstne	r3, r1, lsl #2
 1f0:	40061201 	andmi	r1, r6, r1, lsl #4
 1f4:	19429718 	stmdbne	r2, {r3, r4, r8, r9, sl, ip, pc}^
 1f8:	00001301 	andeq	r1, r0, r1, lsl #6
 1fc:	31000526 	tstcc	r0, r6, lsr #10
 200:	00170213 	andseq	r0, r7, r3, lsl r2
 204:	011d2700 	tsteq	sp, r0, lsl #14
 208:	01521331 	cmpeq	r2, r1, lsr r3
 20c:	0b581755 	bleq	1605f68 <__bss_end__+0x15e1e9c>
 210:	00000b59 	andeq	r0, r0, r9, asr fp
 214:	01828928 	orreq	r8, r2, r8, lsr #18
 218:	31011101 	tstcc	r1, r1, lsl #2
 21c:	29000013 	stmdbcs	r0, {r0, r1, r4}
 220:	0001828a 	andeq	r8, r1, sl, lsl #5
 224:	42911802 	addsmi	r1, r1, #131072	; 0x20000
 228:	2a000018 	bcs	290 <_init-0x1054c>
 22c:	1331011d 	teqne	r1, #1073741831	; 0x40000007
 230:	06120111 			; <UNDEFINED> instruction: 0x06120111
 234:	0b590b58 	bleq	1642f9c <__bss_end__+0x161eed0>
 238:	052b0000 	streq	r0, [fp, #-0]!
 23c:	02133100 	andseq	r3, r3, #0, 2
 240:	2c000018 	stccs	0, cr0, [r0], {24}
 244:	01018289 	smlabbeq	r1, r9, r2, r8
 248:	42950111 	addsmi	r0, r5, #1073741828	; 0x40000004
 24c:	00133119 	andseq	r3, r3, r9, lsl r1
 250:	011d2d00 	tsteq	sp, r0, lsl #26
 254:	01111331 	tsteq	r1, r1, lsr r3
 258:	0b580612 	bleq	1601aa8 <__bss_end__+0x15dd9dc>
 25c:	00000559 	andeq	r0, r0, r9, asr r5
 260:	0182892e 	orreq	r8, r2, lr, lsr #18
 264:	31011100 	mrscc	r1, (UNDEF: 17)
 268:	2f000013 	svccs	0x00000013
 26c:	13310034 	teqne	r1, #52	; 0x34
 270:	00001702 	andeq	r1, r0, r2, lsl #14
 274:	11010b30 	tstne	r1, r0, lsr fp
 278:	01061201 	tsteq	r6, r1, lsl #4
 27c:	31000013 	tstcc	r0, r3, lsl r0
 280:	0111010b 	tsteq	r1, fp, lsl #2
 284:	00000612 	andeq	r0, r0, r2, lsl r6
 288:	31003432 	tstcc	r0, r2, lsr r4
 28c:	33000013 	movwcc	r0, #19
 290:	1331011d 	teqne	r1, #1073741831	; 0x40000007
 294:	06120111 			; <UNDEFINED> instruction: 0x06120111
 298:	05590b58 	ldrbeq	r0, [r9, #-2904]	; 0xfffff4a8
 29c:	00001301 	andeq	r1, r0, r1, lsl #6
 2a0:	3f012e34 	svccc	0x00012e34
 2a4:	3a0e0319 	bcc	380f10 <__bss_end__+0x35ce44>
 2a8:	270b3b0b 	strcs	r3, [fp, -fp, lsl #22]
 2ac:	11134919 	tstne	r3, r9, lsl r9
 2b0:	40061201 	andmi	r1, r6, r1, lsl #4
 2b4:	19429718 	stmdbne	r2, {r3, r4, r8, r9, sl, ip, pc}^
 2b8:	00001301 	andeq	r1, r0, r1, lsl #6
 2bc:	03000535 	movweq	r0, #1333	; 0x535
 2c0:	3b0b3a0e 	blcc	2ceb00 <__bss_end__+0x2aaa34>
 2c4:	0213490b 	andseq	r4, r3, #180224	; 0x2c000
 2c8:	36000017 			; <UNDEFINED> instruction: 0x36000017
 2cc:	193f012e 	ldmdbne	pc!, {r1, r2, r3, r5, r8}	; <UNPREDICTABLE>
 2d0:	0b3a0e03 	bleq	e83ae4 <__bss_end__+0xe5fa18>
 2d4:	19270b3b 	stmdbne	r7!, {r0, r1, r3, r4, r5, r8, r9, fp}
 2d8:	06120111 			; <UNDEFINED> instruction: 0x06120111
 2dc:	42971840 	addsmi	r1, r7, #64, 16	; 0x400000
 2e0:	00130119 	andseq	r0, r3, r9, lsl r1
 2e4:	00053700 	andeq	r3, r5, r0, lsl #14
 2e8:	0b3a0803 	bleq	e822fc <__bss_end__+0xe5e230>
 2ec:	13490b3b 	movtne	r0, #39739	; 0x9b3b
 2f0:	00001802 	andeq	r1, r0, r2, lsl #16
 2f4:	3f002e38 	svccc	0x00002e38
 2f8:	3a0e0319 	bcc	380f64 <__bss_end__+0x35ce98>
 2fc:	270b3b0b 	strcs	r3, [fp, -fp, lsl #22]
 300:	11134919 	tstne	r3, r9, lsl r9
 304:	40061201 	andmi	r1, r6, r1, lsl #4
 308:	19429718 	stmdbne	r2, {r3, r4, r8, r9, sl, ip, pc}^
 30c:	89390000 	ldmdbhi	r9!, {}	; <UNPREDICTABLE>
 310:	11000182 	smlabbne	r0, r2, r1, r0
 314:	19429501 	stmdbne	r2, {r0, r8, sl, ip, pc}^
 318:	00001331 	andeq	r1, r0, r1, lsr r3
 31c:	55010b3a 	strpl	r0, [r1, #-2874]	; 0xfffff4c6
 320:	3b000017 	blcc	384 <_init-0x10458>
 324:	08030034 	stmdaeq	r3, {r2, r4, r5}
 328:	0b3b0b3a 	bleq	ec3018 <__bss_end__+0xe9ef4c>
 32c:	17021349 	strne	r1, [r2, -r9, asr #6]
 330:	893c0000 	ldmdbhi	ip!, {}	; <UNPREDICTABLE>
 334:	11010182 	smlabbne	r1, r2, r1, r0
 338:	01133101 	tsteq	r3, r1, lsl #2
 33c:	3d000013 	stccc	0, cr0, [r0, #-76]	; 0xffffffb4
 340:	193f012e 	ldmdbne	pc!, {r1, r2, r3, r5, r8}	; <UNPREDICTABLE>
 344:	0b3a0e03 	bleq	e83b58 <__bss_end__+0xe5fa8c>
 348:	1927053b 	stmdbne	r7!, {r0, r1, r3, r4, r5, r8, sl}
 34c:	06120111 			; <UNDEFINED> instruction: 0x06120111
 350:	42971840 	addsmi	r1, r7, #64, 16	; 0x400000
 354:	00130119 	andseq	r0, r3, r9, lsl r1
 358:	00053e00 	andeq	r3, r5, r0, lsl #28
 35c:	0b3a0803 	bleq	e82370 <__bss_end__+0xe5e2a4>
 360:	1349053b 	movtne	r0, #38203	; 0x953b
 364:	00001702 	andeq	r1, r0, r2, lsl #14
 368:	0300343f 	movweq	r3, #1087	; 0x43f
 36c:	3b0b3a0e 	blcc	2cebac <__bss_end__+0x2aaae0>
 370:	02134905 	andseq	r4, r3, #81920	; 0x14000
 374:	40000017 	andmi	r0, r0, r7, lsl r0
 378:	193f012e 	ldmdbne	pc!, {r1, r2, r3, r5, r8}	; <UNPREDICTABLE>
 37c:	0b3a0e03 	bleq	e83b90 <__bss_end__+0xe5fac4>
 380:	1927053b 	stmdbne	r7!, {r0, r1, r3, r4, r5, r8, sl}
 384:	01111349 	tsteq	r1, r9, asr #6
 388:	18400612 	stmdane	r0, {r1, r4, r9, sl}^
 38c:	01194297 			; <UNDEFINED> instruction: 0x01194297
 390:	41000013 	tstmi	r0, r3, lsl r0
 394:	0e030005 	cdpeq	0, 0, cr0, cr3, cr5, {0}
 398:	053b0b3a 	ldreq	r0, [fp, #-2874]!	; 0xfffff4c6
 39c:	17021349 	strne	r1, [r2, -r9, asr #6]
 3a0:	34420000 	strbcc	r0, [r2], #-0
 3a4:	02133100 	andseq	r3, r3, #0, 2
 3a8:	43000018 	movwmi	r0, #24
 3ac:	1331011d 	teqne	r1, #1073741831	; 0x40000007
 3b0:	17550152 			; <UNDEFINED> instruction: 0x17550152
 3b4:	05590b58 	ldrbeq	r0, [r9, #-2904]	; 0xfffff4a8
 3b8:	00001301 	andeq	r1, r0, r1, lsl #6
 3bc:	31011d44 	tstcc	r1, r4, asr #26
 3c0:	55015213 	strpl	r5, [r1, #-531]	; 0xfffffded
 3c4:	590b5817 	stmdbpl	fp, {r0, r1, r2, r4, fp, ip, lr}
 3c8:	45000005 	strmi	r0, [r0, #-5]
 3cc:	08030034 	stmdaeq	r3, {r2, r4, r5}
 3d0:	053b0b3a 	ldreq	r0, [fp, #-2874]!	; 0xfffff4c6
 3d4:	17021349 	strne	r1, [r2, -r9, asr #6]
 3d8:	05460000 	strbeq	r0, [r6, #-0]
 3dc:	1c133100 	ldfnes	f3, [r3], {-0}
 3e0:	4700000b 	strmi	r0, [r0, -fp]
 3e4:	13310034 	teqne	r1, #52	; 0x34
 3e8:	00000b1c 	andeq	r0, r0, ip, lsl fp
 3ec:	03000548 	movweq	r0, #1352	; 0x548
 3f0:	3b0b3a0e 	blcc	2cec30 <__bss_end__+0x2aab64>
 3f4:	02134905 	andseq	r4, r3, #81920	; 0x14000
 3f8:	49000018 	stmdbmi	r0, {r3, r4}
 3fc:	193f012e 	ldmdbne	pc!, {r1, r2, r3, r5, r8}	; <UNPREDICTABLE>
 400:	0b3a0e03 	bleq	e83c14 <__bss_end__+0xe5fb48>
 404:	1927053b 	stmdbne	r7!, {r0, r1, r3, r4, r5, r8, sl}
 408:	06120111 			; <UNDEFINED> instruction: 0x06120111
 40c:	42961840 	addsmi	r1, r6, #64, 16	; 0x400000
 410:	00130119 	andseq	r0, r3, r9, lsl r1
 414:	00344a00 	eorseq	r4, r4, r0, lsl #20
 418:	0b3a0e03 	bleq	e83c2c <__bss_end__+0xe5fb60>
 41c:	1349053b 	movtne	r0, #38203	; 0x953b
 420:	00001802 	andeq	r1, r0, r2, lsl #16
 424:	3100054b 	tstcc	r0, fp, asr #10
 428:	4c000013 	stcmi	0, cr0, [r0], {19}
 42c:	01018289 	smlabbeq	r1, r9, r2, r8
 430:	42950111 	addsmi	r0, r5, #1073741828	; 0x40000004
 434:	01133119 	tsteq	r3, r9, lsl r1
 438:	4d000013 	stcmi	0, cr0, [r0, #-76]	; 0xffffffb4
 43c:	1331012e 	teqne	r1, #-2147483637	; 0x8000000b
 440:	06120111 			; <UNDEFINED> instruction: 0x06120111
 444:	42961840 	addsmi	r1, r6, #64, 16	; 0x400000
 448:	00130119 	andseq	r0, r3, r9, lsl r1
 44c:	00344e00 	eorseq	r4, r4, r0, lsl #28
 450:	0b3a0803 	bleq	e82464 <__bss_end__+0xe5e398>
 454:	1349053b 	movtne	r0, #38203	; 0x953b
 458:	00001802 	andeq	r1, r0, r2, lsl #16
 45c:	3100344f 	tstcc	r0, pc, asr #8
 460:	00051c13 	andeq	r1, r5, r3, lsl ip
 464:	010b5000 	mrseq	r5, (UNDEF: 11)
 468:	13011755 	movwne	r1, #5973	; 0x1755
 46c:	0a510000 	beq	1440474 <__bss_end__+0x141c3a8>
 470:	3a0e0300 	bcc	381078 <__bss_end__+0x35cfac>
 474:	00053b0b 	andeq	r3, r5, fp, lsl #22
 478:	00345200 	eorseq	r5, r4, r0, lsl #4
 47c:	0b3a0e03 	bleq	e83c90 <__bss_end__+0xe5fbc4>
 480:	13490b3b 	movtne	r0, #39739	; 0x9b3b
 484:	00001802 	andeq	r1, r0, r2, lsl #16
 488:	03003453 	movweq	r3, #1107	; 0x453
 48c:	3b0b3a0e 	blcc	2ceccc <__bss_end__+0x2aac00>
 490:	3f13490b 	svccc	0x0013490b
 494:	00193c19 	andseq	r3, r9, r9, lsl ip
 498:	00345400 	eorseq	r5, r4, r0, lsl #8
 49c:	0b3a0e03 	bleq	e83cb0 <__bss_end__+0xe5fbe4>
 4a0:	13490b3b 	movtne	r0, #39739	; 0x9b3b
 4a4:	1802193f 	stmdane	r2, {r0, r1, r2, r3, r4, r5, r8, fp, ip}
 4a8:	2e550000 	cdpcs	0, 5, cr0, cr5, cr0, {0}
 4ac:	3c193f00 	ldccc	15, cr3, [r9], {-0}
 4b0:	030e6e19 	movweq	r6, #60953	; 0xee19
 4b4:	3b0b3a0e 	blcc	2cecf4 <__bss_end__+0x2aac28>
 4b8:	5600000b 	strpl	r0, [r0], -fp
 4bc:	193f002e 	ldmdbne	pc!, {r1, r2, r3, r5}	; <UNPREDICTABLE>
 4c0:	0e6e193c 	mcreq	9, 3, r1, cr14, cr12, {1}
 4c4:	0b3a0e03 	bleq	e83cd8 <__bss_end__+0xe5fc0c>
 4c8:	0000053b 	andeq	r0, r0, fp, lsr r5
 4cc:	3f002e57 	svccc	0x00002e57
 4d0:	6e193c19 	mrcvs	12, 0, r3, cr9, cr9, {0}
 4d4:	000e030e 	andeq	r0, lr, lr, lsl #6
 4d8:	002e5800 	eoreq	r5, lr, r0, lsl #16
 4dc:	193c193f 	ldmdbne	ip!, {r0, r1, r2, r3, r4, r5, r8, fp, ip}
 4e0:	0e030e6e 	cdpeq	14, 0, cr0, cr3, cr14, {3}
 4e4:	053b0b3a 	ldreq	r0, [fp, #-2874]!	; 0xfffff4c6
 4e8:	00000e6e 	andeq	r0, r0, lr, ror #28
 4ec:	3f002e59 	svccc	0x00002e59
 4f0:	6e193c19 	mrcvs	12, 0, r3, cr9, cr9, {0}
 4f4:	3a0e030e 	bcc	381134 <__bss_end__+0x35d068>
 4f8:	6e0b3b0b 	vmlavs.f64	d3, d11, d11
 4fc:	0000000e 	andeq	r0, r0, lr

Disassembly of section .debug_line:

00000000 <.debug_line>:
   0:	00000a7e 	andeq	r0, r0, lr, ror sl
   4:	014f0002 	cmpeq	pc, r2
   8:	01020000 	mrseq	r0, (UNDEF: 2)
   c:	000d0efb 	strdeq	r0, [sp], -fp
  10:	01010101 	tsteq	r1, r1, lsl #2
  14:	01000000 	mrseq	r0, (UNDEF: 0)
  18:	2f010000 	svccs	0x00010000
  1c:	2f727375 	svccs	0x00727375
  20:	6c636e69 	stclvs	14, cr6, [r3], #-420	; 0xfffffe5c
  24:	2f656475 	svccs	0x00656475
  28:	2d6d7261 	sfmcs	f7, 2, [sp, #-388]!	; 0xfffffe7c
  2c:	756e696c 	strbvc	r6, [lr, #-2412]!	; 0xfffff694
  30:	6e672d78 	mcrvs	13, 3, r2, cr7, cr8, {3}
  34:	62616575 	rsbvs	r6, r1, #490733568	; 0x1d400000
  38:	2f666869 	svccs	0x00666869
  3c:	73746962 	cmnvc	r4, #1605632	; 0x188000
  40:	73752f00 	cmnvc	r5, #0, 30
  44:	696c2f72 	stmdbvs	ip!, {r1, r4, r5, r6, r8, r9, sl, fp, sp}^
  48:	63672f62 	cmnvs	r7, #392	; 0x188
  4c:	72612f63 	rsbvc	r2, r1, #396	; 0x18c
  50:	696c2d6d 	stmdbvs	ip!, {r0, r2, r3, r5, r6, r8, sl, fp, sp}^
  54:	2d78756e 	cfldr64cs	mvdx7, [r8, #-440]!	; 0xfffffe48
  58:	65756e67 	ldrbvs	r6, [r5, #-3687]!	; 0xfffff199
  5c:	68696261 	stmdavs	r9!, {r0, r5, r6, r9, sp, lr}^
  60:	2f352f66 	svccs	0x00352f66
  64:	6c636e69 	stclvs	14, cr6, [r3], #-420	; 0xfffffe5c
  68:	00656475 	rsbeq	r6, r5, r5, ror r4
  6c:	7273752f 	rsbsvc	r7, r3, #197132288	; 0xbc00000
  70:	636e692f 	cmnvs	lr, #770048	; 0xbc000
  74:	6564756c 	strbvs	r7, [r4, #-1388]!	; 0xfffffa94
  78:	6d72612f 	ldfvse	f6, [r2, #-188]!	; 0xffffff44
  7c:	6e696c2d 	cdpvs	12, 6, cr6, cr9, cr13, {1}
  80:	672d7875 			; <UNDEFINED> instruction: 0x672d7875
  84:	6165756e 	cmnvs	r5, lr, ror #10
  88:	66686962 	strbtvs	r6, [r8], -r2, ror #18
  8c:	7379732f 	cmnvc	r9, #-1140850688	; 0xbc000000
  90:	73752f00 	cmnvc	r5, #0, 30
  94:	6e692f72 	mcrvs	15, 3, r2, cr9, cr2, {3}
  98:	64756c63 	ldrbtvs	r6, [r5], #-3171	; 0xfffff39d
  9c:	62000065 	andvs	r0, r0, #101	; 0x65
  a0:	38326d63 	ldmdacc	r2!, {r0, r1, r5, r6, r8, sl, fp, sp, lr}
  a4:	632e3533 			; <UNDEFINED> instruction: 0x632e3533
  a8:	00000000 	andeq	r0, r0, r0
  ac:	69647473 	stmdbvs	r4!, {r0, r1, r4, r5, r6, sl, ip, sp, lr}^
  b0:	682e326f 	stmdavs	lr!, {r0, r1, r2, r3, r5, r6, r9, ip, sp}
  b4:	00000100 	andeq	r0, r0, r0, lsl #2
  b8:	746e6366 	strbtvc	r6, [lr], #-870	; 0xfffffc9a
  bc:	682e326c 	stmdavs	lr!, {r2, r3, r5, r6, r9, ip, sp}
  c0:	00000100 	andeq	r0, r0, r0, lsl #2
  c4:	64647473 	strbtvs	r7, [r4], #-1139	; 0xfffffb8d
  c8:	682e6665 	stmdavs	lr!, {r0, r2, r5, r6, r9, sl, sp, lr}
  cc:	00000200 	andeq	r0, r0, r0, lsl #4
  d0:	65707974 	ldrbvs	r7, [r0, #-2420]!	; 0xfffff68c
  d4:	00682e73 	rsbeq	r2, r8, r3, ror lr
  d8:	74000001 	strvc	r0, [r0], #-1
  dc:	73657079 	cmnvc	r5, #121	; 0x79
  e0:	0300682e 	movweq	r6, #2094	; 0x82e
  e4:	69740000 	ldmdbvs	r4!, {}^	; <UNPREDICTABLE>
  e8:	682e656d 	stmdavs	lr!, {r0, r2, r3, r5, r6, r8, sl, sp, lr}
  ec:	00000400 	andeq	r0, r0, r0, lsl #8
  f0:	69647473 	stmdbvs	r4!, {r0, r1, r4, r5, r6, sl, ip, sp, lr}^
  f4:	00682e6f 	rsbeq	r2, r8, pc, ror #28
  f8:	6c000004 	stcvs	0, cr0, [r0], {4}
  fc:	6f696269 	svcvs	0x00696269
 100:	0400682e 	streq	r6, [r0], #-2094	; 0xfffff7d2
 104:	74730000 	ldrbtvc	r0, [r3], #-0
 108:	746e6964 	strbtvc	r6, [lr], #-2404	; 0xfffff69c
 10c:	0400682e 	streq	r6, [r0], #-2094	; 0xfffff7d2
 110:	63620000 	cmnvs	r2, #0
 114:	3338326d 	teqcc	r8, #-805306362	; 0xd0000006
 118:	00682e35 	rsbeq	r2, r8, r5, lsr lr
 11c:	6d000000 	stcvs	0, cr0, [r0, #-0]
 120:	2e6e616d 	powcsez	f6, f6, #5.0
 124:	00030068 	andeq	r0, r3, r8, rrx
 128:	72726500 	rsbsvc	r6, r2, #0, 10
 12c:	682e6f6e 	stmdavs	lr!, {r1, r2, r3, r5, r6, r8, r9, sl, fp, sp, lr}
 130:	00000100 	andeq	r0, r0, r0, lsl #2
 134:	69727473 	ldmdbvs	r2!, {r0, r1, r4, r5, r6, sl, ip, sp, lr}^
 138:	682e676e 	stmdavs	lr!, {r1, r2, r3, r5, r6, r8, r9, sl, sp, lr}
 13c:	00000400 	andeq	r0, r0, r0, lsl #8
 140:	6c647473 	cfstrdvs	mvd7, [r4], #-460	; 0xfffffe34
 144:	682e6269 	stmdavs	lr!, {r0, r3, r5, r6, r9, sp, lr}
 148:	00000400 	andeq	r0, r0, r0, lsl #8
 14c:	73696e75 	cmnvc	r9, #1872	; 0x750
 150:	682e6474 	stmdavs	lr!, {r2, r4, r5, r6, sl, sp, lr}
 154:	00000400 	andeq	r0, r0, r0, lsl #8
 158:	02050000 	andeq	r0, r5, #0
 15c:	0001127c 	andeq	r1, r1, ip, ror r2
 160:	0101c603 	tsteq	r1, r3, lsl #12
 164:	a1030204 	tstge	r3, r4, lsl #4
 168:	0104017f 	tsteq	r4, pc, ror r1
 16c:	3c00df03 	stccc	15, cr13, [r0], {3}
 170:	a1030204 	tstge	r3, r4, lsl #4
 174:	0104207f 	tsteq	r4, pc, ror r0
 178:	5800ea03 	stmdapl	r0, {r0, r1, r9, fp, sp, lr, pc}
 17c:	043c1403 	ldrteq	r1, [ip], #-1027	; 0xfffffbfd
 180:	7f820302 	svcvc	0x00820302
 184:	03010401 	movweq	r0, #5121	; 0x1401
 188:	039e0de2 	orrseq	r0, lr, #14464	; 0x3880
 18c:	75207ee8 	strvc	r7, [r0, #-3816]!	; 0xfffff118
 190:	3c019c03 	stccc	12, cr9, [r1], {3}
 194:	2121213d 			; <UNDEFINED> instruction: 0x2121213d
 198:	21212121 			; <UNDEFINED> instruction: 0x21212121
 19c:	03222121 			; <UNDEFINED> instruction: 0x03222121
 1a0:	302e7ecd 	eorcc	r7, lr, sp, asr #29
 1a4:	043a3191 	ldrteq	r3, [sl], #-401	; 0xfffffe6f
 1a8:	73b50302 			; <UNDEFINED> instruction: 0x73b50302
 1ac:	0301049e 	movweq	r0, #5278	; 0x149e
 1b0:	03c80ccd 	biceq	r0, r8, #52480	; 0xcd00
 1b4:	133c73d9 	teqne	ip, #1677721603	; 0x64000003
 1b8:	689e1103 	ldmvs	lr, {r0, r1, r8, ip}
 1bc:	66700368 	ldrbtvs	r0, [r0], -r8, ror #6
 1c0:	68686868 	stmdavs	r8!, {r3, r5, r6, fp, sp, lr}^
 1c4:	66090368 	strvs	r0, [r9], -r8, ror #6
 1c8:	6a13312f 	bvs	4cc68c <__bss_end__+0x4a85c0>
 1cc:	6d225014 	stcvs	0, cr5, [r2, #-80]!	; 0xffffffb0
 1d0:	0431212f 	ldrteq	r2, [r1], #-303	; 0xfffffed1
 1d4:	7fa90302 	svcvc	0x00a90302
 1d8:	0301042e 	movweq	r0, #5166	; 0x142e
 1dc:	139e00e0 	orrsne	r0, lr, #224	; 0xe0
 1e0:	2142226d 	cmpcs	r2, sp, ror #4
 1e4:	30212f6c 	eorcc	r2, r1, ip, ror #30
 1e8:	85030204 	strhi	r0, [r3, #-516]	; 0xfffffdfc
 1ec:	01043c7f 	tsteq	r4, pc, ror ip
 1f0:	7400fb03 	strvc	pc, [r0], #-2819	; 0xfffff4fd
 1f4:	85030204 	strhi	r0, [r3, #-516]	; 0xfffffdfc
 1f8:	01042e7f 	tsteq	r4, pc, ror lr
 1fc:	2e02de03 	cdpcs	14, 0, cr13, cr2, cr3, {0}
 200:	99034b19 	stmdbls	r3, {r0, r3, r4, r8, r9, fp, lr}
 204:	6513667e 	ldrvs	r6, [r3, #-1662]	; 0xfffff982
 208:	205e2236 	subscs	r2, lr, r6, lsr r2
 20c:	2d2f5a3d 	vstmdbcs	pc!, {s10-s70}
 210:	223c1a03 	eorscs	r1, ip, #12288	; 0x3000
 214:	6a1c224c 	bvs	708b4c <__bss_end__+0x6e4a80>
 218:	3d30221c 	lfmcc	f2, 4, [r0, #-112]!	; 0xffffff90
 21c:	134f3e1d 	movtne	r3, #65053	; 0xfe1d
 220:	4c13bf4c 	ldcmi	15, cr11, [r3], {76}	; 0x4c
 224:	6b4b13bf 	blvs	12c5128 <__bss_end__+0x12a105c>
 228:	136b4b13 	cmnne	fp, #19456	; 0x4c00
 22c:	1d231d4c 	stcne	13, cr1, [r3, #-304]!	; 0xfffffed0
 230:	4b2d2123 	blmi	b486c4 <__bss_end__+0xb245f8>
 234:	4c135e4b 	ldcmi	14, cr5, [r3], {75}	; 0x4b
 238:	231d231d 	tstcs	sp, #1946157056	; 0x74000000
 23c:	4b4b2d21 	blmi	12cb6c8 <__bss_end__+0x12a75fc>
 240:	2049135b 	subcs	r1, r9, fp, asr r3
 244:	13324c22 	teqne	r2, #8704	; 0x2200
 248:	4b13be4d 	blmi	4efb84 <__bss_end__+0x4cbab8>
 24c:	3d4c136b 	stclcc	3, cr1, [ip, #-428]	; 0xfffffe54
 250:	135b213b 	cmpne	fp, #-1073741810	; 0xc000000e
 254:	4c13db4d 	ldcmi	11, cr13, [r3], {77}	; 0x4d
 258:	5b213b3d 	blpl	84ef54 <__bss_end__+0x82ae88>
 25c:	13db4d13 	bicsne	r4, fp, #1216	; 0x4c0
 260:	213b3d4c 	teqcs	fp, ip, asr #26
 264:	db4d135b 	blle	1344fd8 <__bss_end__+0x1320f0c>
 268:	3b3d4c13 	blcc	f532bc <__bss_end__+0xf2f1f0>
 26c:	4d135b21 	vldrmi	d5, [r3, #-132]	; 0xffffff7c
 270:	3d4c13db 	stclcc	3, cr1, [ip, #-876]	; 0xfffffc94
 274:	135b213b 	cmpne	fp, #-1073741810	; 0xc000000e
 278:	4c13db4d 	ldcmi	11, cr13, [r3], {77}	; 0x4d
 27c:	5b213b3d 	blpl	84ef78 <__bss_end__+0x82aeac>
 280:	13db4d13 	bicsne	r4, fp, #1216	; 0x4c0
 284:	4a1c0368 	bmi	70102c <__bss_end__+0x6dcf60>
 288:	35597813 	ldrbcc	r7, [r9, #-2067]	; 0xfffff7ed
 28c:	23977813 	orrscs	r7, r7, #1245184	; 0x130000
 290:	2d242047 	stccs	0, cr2, [r4, #-284]!	; 0xfffffee4
 294:	2c4f462f 	mcrrcs	6, 2, r4, pc, cr15
 298:	242a242b 	strtcs	r2, [sl], #-1067	; 0xfffffbd5
 29c:	2d032f3d 	stccs	15, cr2, [r3, #-244]	; 0xffffff0c
 2a0:	2c231382 	stccs	3, cr1, [r3], #-520	; 0xfffffdf8
 2a4:	7df50343 	ldclvc	3, cr0, [r5, #268]!	; 0x10c
 2a8:	028c0301 	addeq	r0, ip, #67108864	; 0x4000000
 2ac:	7dfc034a 	ldclvc	3, cr0, [ip, #296]!	; 0x128
 2b0:	58790320 	ldmdapl	r9!, {r5, r8, r9}^
 2b4:	66029303 	strvs	r9, [r2], -r3, lsl #6
 2b8:	207dec03 	rsbscs	lr, sp, r3, lsl #24
 2bc:	4a029403 	bmi	a52d0 <__bss_end__+0x81204>
 2c0:	2e7ded03 	cdpcs	13, 7, cr14, cr13, cr3, {0}
 2c4:	028f035f 	addeq	r0, pc, #2080374785	; 0x7c000001
 2c8:	7df1034a 	ldclvc	3, cr0, [r1, #296]!	; 0x128
 2cc:	02cc032e 	sbceq	r0, ip, #-1207959552	; 0xb8000000
 2d0:	0364152e 	cmneq	r4, #192937984	; 0xb800000
 2d4:	73032012 	movwvc	r2, #12306	; 0x3012
 2d8:	4a7a0320 	bmi	1e80f60 <__bss_end__+0x1e5ce94>
 2dc:	2e7cc503 	cdpcs	5, 7, cr12, cr12, cr3, {0}
 2e0:	2003c103 	andcs	ip, r3, r3, lsl #2
 2e4:	587cbf03 	ldmdapl	ip!, {r0, r1, r8, r9, sl, fp, ip, sp, pc}^
 2e8:	03bd0327 			; <UNDEFINED> instruction: 0x03bd0327
 2ec:	2847b12e 	stmdacs	r7, {r1, r2, r3, r5, r8, ip, sp, pc}^
 2f0:	034a7903 	movteq	r7, #43267	; 0xa903
 2f4:	03233c0b 			; <UNDEFINED> instruction: 0x03233c0b
 2f8:	03747cfc 	cmneq	r4, #252, 24	; 0xfc00
 2fc:	f208038f 	vcgt.s8	d0, d24, d15
 300:	7cbe0321 	ldcvc	3, cr0, [lr], #132	; 0x84
 304:	c0036d4a 	andgt	r6, r3, sl, asr #26
 308:	c0032003 	andgt	r2, r3, r3
 30c:	b003207c 	andlt	r2, r3, ip, ror r0
 310:	11032e03 	tstne	r3, r3, lsl #28
 314:	03325720 	teqeq	r2, #32, 14	; 0x800000
 318:	4e207ce3 	cdpmi	12, 2, cr7, cr0, cr3, {7}
 31c:	0803a003 	stmdaeq	r3, {r0, r1, sp, pc}
 320:	7ce003ac 	stclvc	3, cr0, [r0], #688	; 0x2b0
 324:	03a3032e 			; <UNDEFINED> instruction: 0x03a3032e
 328:	0903133c 	stmdbeq	r3, {r2, r3, r4, r5, r8, r9, ip}
 32c:	6a4b1382 	bvs	12c513c <__bss_end__+0x12a1070>
 330:	747a0321 	ldrbtvc	r0, [sl], #-801	; 0xfffffcdf
 334:	78036e4b 	stmdavc	r3, {r0, r1, r3, r6, r9, sl, fp, sp, lr}
 338:	2e0b032e 	cdpcs	3, 0, cr0, cr11, cr14, {1}
 33c:	216b4c13 	cmncs	fp, r3, lsl ip
 340:	034a0903 	movteq	r0, #43267	; 0xa903
 344:	21212e76 			; <UNDEFINED> instruction: 0x21212e76
 348:	02003f28 	andeq	r3, r0, #40, 30	; 0xa0
 34c:	035b0104 	cmpeq	fp, #4, 2
 350:	31587b8f 	cmpcc	r8, pc, lsl #23
 354:	ec03211d 	stfs	f2, [r3], {29}
 358:	006d5800 	rsbeq	r5, sp, r0, lsl #16
 35c:	03010402 	movweq	r0, #5122	; 0x1402
 360:	0327205a 			; <UNDEFINED> instruction: 0x0327205a
 364:	032004a3 			; <UNDEFINED> instruction: 0x032004a3
 368:	272e7bd6 			; <UNDEFINED> instruction: 0x272e7bd6
 36c:	207fab03 	rsbscs	sl, pc, r3, lsl #22
 370:	2e04fc03 	cdpcs	12, 0, cr15, cr4, cr3, {0}
 374:	207b8403 	rsbscs	r8, fp, r3, lsl #8
 378:	04fe0321 	ldrbteq	r0, [lr], #801	; 0x321
 37c:	2ff65b66 	svccs	0x00f65b66
 380:	0c032049 	stceq	0, cr2, [r3], {73}	; 0x49
 384:	20750320 	rsbscs	r0, r5, r0, lsr #6
 388:	0c031c31 	stceq	12, cr1, [r3], {49}	; 0x31
 38c:	2e76034a 	cdpcs	3, 7, cr0, cr6, cr10, {2}
 390:	312e0a03 			; <UNDEFINED> instruction: 0x312e0a03
 394:	3c7aec03 	ldclcc	12, cr14, [sl], #-12
 398:	2e059403 	cdpcs	4, 0, cr9, cr5, cr3, {0}
 39c:	4a7aec03 	bmi	1ebb3b0 <__bss_end__+0x1e972e4>
 3a0:	2e058803 	cdpcs	8, 0, cr8, cr5, cr3, {0}
 3a4:	03200f03 			; <UNDEFINED> instruction: 0x03200f03
 3a8:	03827bdc 	orreq	r7, r2, #220, 22	; 0x37000
 3ac:	1d2004aa 	cfstrsne	mvf0, [r0, #-680]!	; 0xfffffd58
 3b0:	9e7ae503 	cdpls	5, 7, cr14, cr10, cr3, {0}
 3b4:	2e059d03 	cdpcs	13, 0, cr9, cr5, cr3, {0}
 3b8:	2e7ae303 	cdpcs	3, 7, cr14, cr10, cr3, {0}
 3bc:	00ec0321 	rsceq	r0, ip, r1, lsr #6
 3c0:	8268032e 	rsbhi	r0, r8, #-1207959552	; 0xb8000000
 3c4:	2004d303 	andcs	sp, r4, r3, lsl #6
 3c8:	01040200 	mrseq	r0, R12_usr
 3cc:	2e7ba603 	cdpcs	6, 7, cr10, cr11, cr3, {0}
 3d0:	7404da03 	strvc	sp, [r4], #-2563	; 0xfffff5fd
 3d4:	033b3d32 	teqeq	fp, #3200	; 0xc80
 3d8:	03827ba9 	orreq	r7, r2, #173056	; 0x2a400
 3dc:	2f207fab 	svccs	0x00207fab
 3e0:	2005a203 	andcs	sl, r5, r3, lsl #4
 3e4:	207add03 	rsbscs	sp, sl, r3, lsl #26
 3e8:	05a30321 	streq	r0, [r3, #801]!	; 0x321
 3ec:	032c1f2e 			; <UNDEFINED> instruction: 0x032c1f2e
 3f0:	039e7bad 	orrseq	r7, lr, #177152	; 0x2b400
 3f4:	2f9e04e3 	svccs	0x009e04e3
 3f8:	034a0b03 	movteq	r0, #43779	; 0xab03
 3fc:	032f2074 			; <UNDEFINED> instruction: 0x032f2074
 400:	76032e0b 	strvc	r2, [r3], -fp, lsl #28
 404:	200a033c 	andcs	r0, sl, ip, lsr r3
 408:	bf035a3f 	svclt	0x00035a3f
 40c:	02003c7a 	andeq	r3, r0, #31232	; 0x7a00
 410:	c4030104 	strgt	r0, [r3], #-260	; 0xfffffefc
 414:	bb037405 	bllt	dd430 <__bss_end__+0xb9364>
 418:	c903587a 	stmdbgt	r3, {r1, r3, r4, r5, r6, fp, ip, lr}
 41c:	b7032e05 	strlt	r2, [r3, -r5, lsl #28]
 420:	03212e7a 			; <UNDEFINED> instruction: 0x03212e7a
 424:	432e00ec 			; <UNDEFINED> instruction: 0x432e00ec
 428:	2004d803 	andcs	sp, r4, r3, lsl #16
 42c:	587b8203 	ldmdapl	fp!, {r0, r1, r9, pc}^
 430:	2e04fe03 	cdpcs	14, 0, cr15, cr4, cr3, {0}
 434:	207b8903 	rsbscs	r8, fp, r3, lsl #18
 438:	2004f703 	andcs	pc, r4, r3, lsl #14
 43c:	02040200 	andeq	r0, r4, #0, 4
 440:	034a7603 	movteq	r7, #42499	; 0xa603
 444:	352e7b8c 	strcc	r7, [lr, #-2956]!	; 0xfffff474
 448:	2004fc03 	andcs	pc, r4, r3, lsl #24
 44c:	7afc032f 	bvc	fff01110 <__bss_end__+0xffedd044>
 450:	05840358 	streq	r0, [r4, #856]	; 0x358
 454:	7b83032e 	blvc	fe0c1114 <__bss_end__+0xfe09d048>
 458:	04fd0320 	ldrbteq	r0, [sp], #800	; 0x320
 45c:	7afc0320 	bvc	fff010e4 <__bss_end__+0xffedd018>
 460:	0583034a 	streq	r0, [r3, #842]	; 0x34a
 464:	2d3d34d6 	cfldrscs	mvf3, [sp, #-856]!	; 0xfffffca8
 468:	134e1397 	movtne	r1, #58263	; 0xe397
 46c:	1d166a4c 	vldrne	s12, [r6, #-304]	; 0xfffffed0
 470:	0903784d 	stmdbeq	r3, {r0, r2, r3, r6, fp, ip, sp, lr}
 474:	73034e20 	movwvc	r4, #15904	; 0x3e20
 478:	2009032e 	andcs	r0, r9, lr, lsr #6
 47c:	02003f24 	andeq	r3, r0, #36, 30	; 0x90
 480:	035b0104 	cmpeq	fp, #4, 2
 484:	03587ae8 	cmpeq	r8, #232, 20	; 0xe8000
 488:	034a059c 	movteq	r0, #42396	; 0xa59c
 48c:	35207ae4 	strcc	r7, [r0, #-2788]!	; 0xfffff51c
 490:	20059603 	andcs	r9, r5, r3, lsl #12
 494:	207aea03 	rsbscs	lr, sl, r3, lsl #20
 498:	01040200 	mrseq	r0, R12_usr
 49c:	272e5a03 	strcs	r5, [lr, -r3, lsl #20]!
 4a0:	2005b903 	andcs	fp, r5, r3, lsl #18
 4a4:	3c7ac003 	ldclcc	0, cr12, [sl], #-12
 4a8:	5805c003 	stmdapl	r5, {r0, r1, lr, pc}
 4ac:	032c3e32 			; <UNDEFINED> instruction: 0x032c3e32
 4b0:	f1032e6a 			; <UNDEFINED> instruction: 0xf1032e6a
 4b4:	9d034a7a 	vstrls	s8, [r3, #-488]	; 0xfffffe18
 4b8:	e3032005 	movw	r2, #12293	; 0x3005
 4bc:	aa03207a 	bge	c86ac <__bss_end__+0xa45e0>
 4c0:	4b218205 	blmi	860cdc <__bss_end__+0x83cc10>
 4c4:	8303241f 	movwhi	r2, #13343	; 0x341f
 4c8:	b1033c7b 	tstlt	r3, fp, ror ip
 4cc:	03ba0805 			; <UNDEFINED> instruction: 0x03ba0805
 4d0:	29034a57 	stmdbcs	r3, {r0, r1, r2, r4, r6, r9, fp, lr}
 4d4:	2e57032e 	cdpcs	3, 5, cr0, cr7, cr14, {1}
 4d8:	035a4b2f 	cmpeq	sl, #48128	; 0xbc00
 4dc:	0f032e72 	svceq	0x00032e72
 4e0:	ec032320 	stc	3, cr2, [r3], {32}
 4e4:	034e207a 	movteq	r2, #57466	; 0xe07a
 4e8:	74080596 	strvc	r0, [r8], #-1430	; 0xfffffa6a
 4ec:	2e7aea03 	vaddcs.f32	s29, s20, s6
 4f0:	3c059b03 	stccc	11, cr9, [r5], {3}
 4f4:	276a4c23 	strbcs	r4, [sl, -r3, lsr #24]!
 4f8:	0c03391c 	stceq	9, cr3, [r3], {28}
 4fc:	6a132008 	bvs	4c8524 <__bss_end__+0x4a4458>
 500:	33293321 			; <UNDEFINED> instruction: 0x33293321
 504:	2e750334 	mrccs	3, 3, r0, cr5, cr4, {1}
 508:	03200b03 			; <UNDEFINED> instruction: 0x03200b03
 50c:	7a032e7a 	bvc	cbefc <__bss_end__+0xa7e30>
 510:	362f2320 	strtcc	r2, [pc], -r0, lsr #6
 514:	04020059 	streq	r0, [r2], #-89	; 0xffffffa7
 518:	2f5b4c01 	svccs	0x005b4c01
 51c:	032f312d 			; <UNDEFINED> instruction: 0x032f312d
 520:	73032e0d 	movwvc	r2, #15885	; 0x3e0d
 524:	2e0d032e 	cdpcs	3, 0, cr0, cr13, cr14, {1}
 528:	2e6d0334 	mcrcs	3, 3, r0, cr13, cr4, {1}
 52c:	032e1303 			; <UNDEFINED> instruction: 0x032e1303
 530:	72032e7a 	andvc	r2, r3, #1952	; 0x7a0
 534:	11033120 	tstne	r3, r0, lsr #2
 538:	2070032e 	rsbscs	r0, r0, lr, lsr #6
 53c:	032e1003 			; <UNDEFINED> instruction: 0x032e1003
 540:	0f032e71 	svceq	0x00032e71
 544:	005a2f2e 	subseq	r2, sl, lr, lsr #30
 548:	22010402 	andcs	r0, r1, #33554432	; 0x2000000
 54c:	0200b069 	andeq	fp, r0, #105	; 0x69
 550:	2e060104 	adfcss	f0, f6, f4
 554:	04040200 	streq	r0, [r4], #-512	; 0xfffffe00
 558:	02003d06 	andeq	r3, r0, #384	; 0x180
 55c:	361e0404 	ldrcc	r0, [lr], -r4, lsl #8
 560:	0030322b 	eorseq	r3, r0, fp, lsr #4
 564:	3f010402 	svccc	0x00010402
 568:	3c67035b 	stclcc	3, cr0, [r7], #-364	; 0xfffffe94
 56c:	2f4a1d03 	svccs	0x004a1d03
 570:	032e0f03 			; <UNDEFINED> instruction: 0x032e0f03
 574:	0f032e71 	svceq	0x00032e71
 578:	6b03342e 	blvs	cd638 <__bss_end__+0xa956c>
 57c:	2015032e 	andscs	r0, r5, lr, lsr #6
 580:	032e7a03 			; <UNDEFINED> instruction: 0x032e7a03
 584:	16032070 			; <UNDEFINED> instruction: 0x16032070
 588:	206d033c 	rsbcs	r0, sp, ip, lsr r3
 58c:	032e1303 			; <UNDEFINED> instruction: 0x032e1303
 590:	12032e6e 	andne	r2, r3, #1760	; 0x6e0
 594:	6e032f2e 	cdpvs	15, 0, cr2, cr3, cr14, {1}
 598:	2e12032e 	cdpcs	3, 1, cr0, cr2, cr14, {1}
 59c:	1e2e7303 	cdpne	3, 2, cr7, cr14, cr3, {0}
 5a0:	3e201103 	sufccs	f1, f0, f3
 5a4:	01040200 	mrseq	r0, R12_usr
 5a8:	2f066606 	svccs	0x00066606
 5ac:	040200b0 	streq	r0, [r2], #-176	; 0xffffff50
 5b0:	00580601 	subseq	r0, r8, r1, lsl #12
 5b4:	06040402 	streq	r0, [r4], -r2, lsl #8
 5b8:	0402004b 	streq	r0, [r2], #-75	; 0xffffffb5
 5bc:	2b361e04 	blcs	d87dd4 <__bss_end__+0xd63d08>
 5c0:	02003032 	andeq	r3, r0, #50	; 0x32
 5c4:	304f0104 	subcc	r0, pc, r4, lsl #2
 5c8:	263d4d2d 	ldrtcs	r4, [sp], -sp, lsr #26
 5cc:	302e7a03 	eorcc	r7, lr, r3, lsl #20
 5d0:	3240302c 	subcc	r3, r0, #44	; 0x2c
 5d4:	206d0332 	rsbcs	r0, sp, r2, lsr r3
 5d8:	16031e5a 			; <UNDEFINED> instruction: 0x16031e5a
 5dc:	001e5a20 	andseq	r5, lr, r0, lsr #20
 5e0:	06010402 	streq	r0, [r1], -r2, lsl #8
 5e4:	2d300620 	ldccs	6, cr0, [r0, #-128]!	; 0xffffff80
 5e8:	03263d4d 			; <UNDEFINED> instruction: 0x03263d4d
 5ec:	2c302e7a 	ldccs	14, cr2, [r0], #-488	; 0xfffffe18
 5f0:	32324030 	eorscc	r4, r2, #48	; 0x30
 5f4:	5a206d03 	bpl	81ba08 <__bss_end__+0x7f793c>
 5f8:	2054031e 	subscs	r0, r4, lr, lsl r3
 5fc:	3c00c203 	sfmcc	f4, 1, [r0], {3}
 600:	234e1330 	movtcs	r1, #58160	; 0xe330
 604:	799c0375 	ldmibvc	ip, {r0, r2, r4, r5, r6, r8, r9}
 608:	06f4033c 			; <UNDEFINED> instruction: 0x06f4033c
 60c:	1e684fd6 	mcrne	15, 3, r4, cr8, cr6, {6}
 610:	03bd1d77 			; <UNDEFINED> instruction: 0x03bd1d77
 614:	17032069 	strne	r2, [r3, -r9, rrx]
 618:	fd036920 	stc2	9, cr6, [r3, #-128]	; 0xffffff80
 61c:	034e2078 	movteq	r2, #57464	; 0xe078
 620:	039e0789 	orrseq	r0, lr, #35913728	; 0x2240000
 624:	032e78f7 			; <UNDEFINED> instruction: 0x032e78f7
 628:	173c078c 	ldrne	r0, [ip, -ip, lsl #15]!
 62c:	2a246e4c 	bcs	91bf64 <__bss_end__+0x8f7e98>
 630:	5d262a24 	vstmdbpl	r6!, {s4-s39}
 634:	24867508 	strcs	r7, [r6], #1288	; 0x508
 638:	35412d9f 	strbcc	r2, [r1, #-3487]	; 0xfffff261
 63c:	034a0b03 	movteq	r0, #43779	; 0xab03
 640:	0335206e 	teqeq	r5, #110	; 0x6e
 644:	77032e0b 	strvc	r2, [r3, -fp, lsl #28]
 648:	0a032d20 	beq	cbad0 <__bss_end__+0xa7a04>
 64c:	5a5a3e2e 	bpl	168ff0c <__bss_end__+0x166be40>
 650:	90788903 	rsbsls	r8, r8, r3, lsl #18
 654:	2e07f703 	cdpcs	7, 0, cr15, cr7, cr3, {0}
 658:	82032b23 	andhi	r2, r3, #35840	; 0x8c00
 65c:	80039078 	andhi	r9, r3, r8, ror r0
 660:	80032e08 	andhi	r2, r3, r8, lsl #28
 664:	f4032e78 			; <UNDEFINED> instruction: 0xf4032e78
 668:	12036607 	andne	r6, r3, #7340032	; 0x700000
 66c:	005a5b20 	subseq	r5, sl, r0, lsr #22
 670:	06010402 	streq	r0, [r1], -r2, lsl #8
 674:	0402004a 	streq	r0, [r2], #-74	; 0xffffffb6
 678:	005b0601 	subseq	r0, fp, r1, lsl #12
 67c:	1d010402 	cfstrsne	mvf0, [r1, #-8]
 680:	2b1f2f23 	blcs	7cc314 <__bss_end__+0x7a8248>
 684:	580c032c 	stmdapl	ip, {r2, r3, r5, r8, r9}
 688:	11032c4c 	tstne	r3, ip, asr #24
 68c:	72035b20 	andvc	r5, r3, #32, 22	; 0x8000
 690:	282c4c3c 	stmdacs	ip!, {r2, r3, r4, r5, sl, fp, lr}
 694:	35660a03 	strbcc	r0, [r6, #-2563]!	; 0xfffff5fd
 698:	034a0b03 	movteq	r0, #43779	; 0xab03
 69c:	032077c1 			; <UNDEFINED> instruction: 0x032077c1
 6a0:	034a08b4 	movteq	r0, #43188	; 0xa8b4
 6a4:	12032079 	andne	r2, r3, #121	; 0x79
 6a8:	2076032e 	rsbscs	r0, r6, lr, lsr #6
 6ac:	2e09032f 	cdpcs	3, 0, cr0, cr9, cr15, {1}
 6b0:	3c77c103 	ldfccp	f4, [r7], #-12
 6b4:	82610343 	rsbhi	r0, r1, #201326593	; 0xc000001
 6b8:	27207903 	strcs	r7, [r0, -r3, lsl #18]!
 6bc:	2008e003 	andcs	lr, r8, r3
 6c0:	7796033f 			; <UNDEFINED> instruction: 0x7796033f
 6c4:	e303274a 	movw	r2, #14154	; 0x374a
 6c8:	9d032008 	stcls	0, cr2, [r3, #-32]	; 0xffffffe0
 6cc:	e3032e77 	movw	r2, #15991	; 0x3e77
 6d0:	2d242e08 	stccs	14, cr2, [r4, #-32]!	; 0xffffffe0
 6d4:	7796032b 	ldrvc	r0, [r6, fp, lsr #6]
 6d8:	08ea0320 	stmiaeq	sl!, {r5, r8, r9}^
 6dc:	77960366 	ldrvc	r0, [r6, r6, ror #6]
 6e0:	08e7034a 	stmiaeq	r7!, {r1, r3, r6, r8, r9}^
 6e4:	3c0d0390 	stccc	3, cr0, [sp], {144}	; 0x90
 6e8:	2e779303 	cdpcs	3, 7, cr9, cr7, cr3, {0}
 6ec:	2008ed03 	andcs	lr, r8, r3, lsl #26
 6f0:	2e779303 	cdpcs	3, 7, cr9, cr7, cr3, {0}
 6f4:	2008ed03 	andcs	lr, r8, r3, lsl #26
 6f8:	8c032b23 	stchi	11, cr2, [r3], {35}	; 0x23
 6fc:	f4032077 	vst4.16	{d2-d5}, [r3 :256], r7
 700:	8c036608 	stchi	6, cr6, [r3], {8}
 704:	f4034a77 	vst1.16	{d4-d5}, [r3 :256], r7
 708:	2b235808 	blcs	8d6730 <__bss_end__+0x8b2664>
 70c:	20779303 	rsbscs	r9, r7, r3, lsl #6
 710:	2008f603 	andcs	pc, r8, r3, lsl #12
 714:	11032c4c 	tstne	r3, ip, asr #24
 718:	72035b20 	andvc	r5, r3, #32, 22	; 0x8000
 71c:	032c4c3c 			; <UNDEFINED> instruction: 0x032c4c3c
 720:	c4032058 	strgt	r2, [r3], #-88	; 0xffffffa8
 724:	b9039e77 	stmdblt	r3, {r0, r1, r2, r4, r5, r6, r9, sl, fp, ip, pc}
 728:	252e080a 	strcs	r0, [lr, #-2058]!	; 0xfffff7f6
 72c:	7a032678 	bvc	ca114 <__bss_end__+0xa6048>
 730:	4d5b3f20 	ldclmi	15, cr3, [fp, #-128]	; 0xffffff80
 734:	2339232b 	teqcs	r9, #-1409286144	; 0xac000000
 738:	1e200903 	cdpne	9, 2, cr0, cr0, cr3, {0}
 73c:	90790322 	rsbsls	r0, r9, r2, lsr #6
 740:	4a710321 	bmi	1c413cc <__bss_end__+0x1c1d300>
 744:	032e1803 			; <UNDEFINED> instruction: 0x032e1803
 748:	322e77ca 	eorcc	r7, lr, #52953088	; 0x3280000
 74c:	402a322a 	eormi	r3, sl, sl, lsr #4
 750:	02044e1c 	andeq	r4, r4, #28, 28	; 0x1c0
 754:	207cdb03 	rsbscs	sp, ip, r3, lsl #22
 758:	c2030104 	andgt	r0, r3, #4, 2
 75c:	6d039003 	stcvs	0, cr9, [r3, #-12]
 760:	03444d74 	movteq	r4, #19828	; 0x4d74
 764:	4c7408a2 	ldclmi	8, cr0, [r4], #-648	; 0xfffffd78
 768:	7477d703 	ldrbtvc	sp, [r7], #-1795	; 0xfffff8fd
 76c:	1e2f1f2f 	cdpne	15, 2, cr1, cr15, cr15, {1}
 770:	262f2121 	strtcs	r2, [pc], -r1, lsr #2
 774:	1e2f1f2f 	cdpne	15, 2, cr1, cr15, cr15, {1}
 778:	03405921 	movteq	r5, #2337	; 0x921
 77c:	492f2e35 	stmdbmi	pc!, {r0, r2, r4, r5, r9, sl, fp, sp}	; <UNPREDICTABLE>
 780:	1c323021 	ldcne	0, cr3, [r2], #-132	; 0xffffff7c
 784:	db038a32 	blle	e3054 <__bss_end__+0xbef88>
 788:	a503587c 	strge	r5, [r3, #-2172]	; 0xfffff784
 78c:	db032003 	blle	c87a0 <__bss_end__+0xa46d4>
 790:	a803587c 	stmdage	r3, {r2, r3, r4, r5, r6, fp, ip, lr}
 794:	df032003 	svcle	0x00032003
 798:	a103207c 	tstge	r3, ip, ror r0
 79c:	034b2e03 	movteq	r2, #48643	; 0xbe03
 7a0:	032e7cfd 			; <UNDEFINED> instruction: 0x032e7cfd
 7a4:	4b74038a 	blmi	1d015d4 <__bss_end__+0x1cdd508>
 7a8:	7ecd034b 	cdpvc	3, 12, cr0, cr13, cr11, {2}
 7ac:	b303304a 	movwlt	r3, #12362	; 0x304a
 7b0:	2b312001 	blcs	c487bc <__bss_end__+0xc246f0>
 7b4:	69032b85 	stmdbvs	r3, {r0, r2, r7, r8, r9, fp, sp}
 7b8:	580b0366 	stmdapl	fp, {r1, r2, r5, r6, r8, r9}
 7bc:	207cf703 	rsbscs	pc, ip, r3, lsl #14
 7c0:	20038903 	andcs	r8, r3, r3, lsl #18
 7c4:	7cf6033d 	ldclvc	3, cr0, [r6], #244	; 0xf4
 7c8:	0398032e 	orrseq	r0, r8, #-1207959552	; 0xb8000000
 7cc:	7ed6033c 	mrcvc	3, 6, r0, cr6, cr12, {1}
 7d0:	2149134a 	cmpcs	r9, sl, asr #6
 7d4:	20090330 	andcs	r0, r9, r0, lsr r3
 7d8:	2c924c46 	ldccs	12, cr4, [r2], {70}	; 0x46
 7dc:	28587a03 	ldmdacs	r8, {r0, r1, r9, fp, ip, sp, lr}^
 7e0:	032e7803 			; <UNDEFINED> instruction: 0x032e7803
 7e4:	193c0786 	ldmdbne	ip!, {r1, r2, r7, r8, r9, sl}
 7e8:	2e4a7903 	cdpcs	9, 4, cr7, cr10, cr3, {0}
 7ec:	2e0a0327 	cdpcs	3, 0, cr0, cr10, cr7, {1}
 7f0:	03206f03 			; <UNDEFINED> instruction: 0x03206f03
 7f4:	03362e09 	teqeq	r6, #9, 28	; 0x90
 7f8:	0a032e76 	beq	cc1d8 <__bss_end__+0xa810c>
 7fc:	7503302e 	strvc	r3, [r3, #-46]	; 0xffffffd2
 800:	2e0b033c 	mcrcs	3, 0, r0, cr11, cr12, {1}
 804:	4b594c30 	blmi	16538cc <__bss_end__+0x162f800>
 808:	5b47235b 	blpl	11c957c <__bss_end__+0x11a54b0>
 80c:	034b281d 	movteq	r2, #47133	; 0xb81d
 810:	18033c68 	stmdane	r3, {r3, r5, r6, sl, fp, ip, sp}
 814:	5ba13120 	blpl	fe84cc9c <__bss_end__+0xfe828bd0>
 818:	01040200 	mrseq	r0, R12_usr
 81c:	02004a06 	andeq	r4, r0, #24576	; 0x6000
 820:	5b060104 	blpl	180c38 <__bss_end__+0x15cb6c>
 824:	01040200 	mrseq	r0, R12_usr
 828:	242b231d 	strtcs	r2, [fp], #-797	; 0xfffffce3
 82c:	031d2b2d 	tsteq	sp, #46080	; 0xb400
 830:	2b31660d 	blcs	c5a06c <__bss_end__+0xc35fa0>
 834:	02002b23 	andeq	r2, r0, #35840	; 0x8c00
 838:	20060104 	andcs	r0, r6, r4, lsl #2
 83c:	01040200 	mrseq	r0, R12_usr
 840:	02005b06 	andeq	r5, r0, #6144	; 0x1800
 844:	031d0104 	tsteq	sp, #4, 2
 848:	2c4c2009 	mcrrcs	0, 0, r2, ip, cr9
 84c:	5b201103 	blpl	804c60 <__bss_end__+0x7e0b94>
 850:	3c7fb803 	ldclcc	8, cr11, [pc], #-12	; 84c <_init-0xff90>
 854:	4c2e3a03 	stcmi	10, cr3, [lr], #-12
 858:	0c03282c 	stceq	8, cr2, [r3], {44}	; 0x2c
 85c:	79033566 	stmdbvc	r3, {r1, r2, r5, r6, r8, sl, ip, sp}
 860:	1203204a 	andne	r2, r3, #74	; 0x4a
 864:	20750320 	rsbscs	r0, r5, r0, lsr #6
 868:	432e7903 			; <UNDEFINED> instruction: 0x432e7903
 86c:	2e090330 	mcrcs	3, 0, r0, cr9, cr0, {1}
 870:	032e7503 			; <UNDEFINED> instruction: 0x032e7503
 874:	03312e0b 	teqeq	r1, #11, 28	; 0xb0
 878:	0d033c73 	stceq	12, cr3, [r3, #-460]	; 0xfffffe34
 87c:	1d31312e 	ldfnes	f3, [r1, #-184]!	; 0xffffff48
 880:	76990385 	ldrvc	r0, [r9], r5, lsl #7
 884:	09ea032e 	stmibeq	sl!, {r1, r2, r3, r5, r8, r9}^
 888:	92031d2e 	andls	r1, r3, #2944	; 0xb80
 88c:	f0037476 			; <UNDEFINED> instruction: 0xf0037476
 890:	90032e09 	andls	r2, r3, r9, lsl #28
 894:	f6032e76 			; <UNDEFINED> instruction: 0xf6032e76
 898:	035bba09 	cmpeq	fp, #36864	; 0x9000
 89c:	032075ef 			; <UNDEFINED> instruction: 0x032075ef
 8a0:	2b2e0a94 	blcs	b832f8 <__bss_end__+0xb5f22c>
 8a4:	5875e803 	ldmdapl	r5!, {r0, r1, fp, sp, lr, pc}^
 8a8:	740a9b03 	strvc	r9, [sl], #-2819	; 0xfffff4fd
 8ac:	24384b36 	ldrtcs	r4, [r8], #-2870	; 0xfffff4ca
 8b0:	75d90331 	ldrbvc	r0, [r9, #817]	; 0x331
 8b4:	a3034374 	movwge	r4, #13172	; 0x3374
 8b8:	03312e0a 	teqeq	r1, #10, 28	; 0xa0
 8bc:	035875da 	cmpeq	r8, #914358272	; 0x36800000
 8c0:	242e0aa6 	strtcs	r0, [lr], #-2726	; 0xfffff55a
 8c4:	02002b2d 	andeq	r2, r0, #46080	; 0xb400
 8c8:	20060104 	andcs	r0, r6, r4, lsl #2
 8cc:	75d30306 	ldrbvc	r0, [r3, #774]	; 0x306
 8d0:	0aaa0358 	beq	fea81638 <__bss_end__+0xfea5d56c>
 8d4:	3c0d03ac 	stccc	3, cr0, [sp], {172}	; 0xac
 8d8:	2b232b31 	blcs	8cb5a4 <__bss_end__+0x8a74d8>
 8dc:	01040200 	mrseq	r0, R12_usr
 8e0:	02002006 	andeq	r2, r0, #6
 8e4:	5b060104 	blpl	180cfc <__bss_end__+0x15cc30>
 8e8:	01040200 	mrseq	r0, R12_usr
 8ec:	2009031d 	andcs	r0, r9, sp, lsl r3
 8f0:	11032c4c 	tstne	r3, ip, asr #24
 8f4:	4c035b20 	stcmi	11, cr5, [r3], {32}
 8f8:	2e26034a 	cdpcs	3, 2, cr0, cr6, cr10, {2}
 8fc:	03282c4c 			; <UNDEFINED> instruction: 0x03282c4c
 900:	0021662c 	eoreq	r6, r1, ip, lsr #12
 904:	3e010402 	cdpcc	4, 0, cr0, cr1, cr2, {0}
 908:	492f3368 	stmdbmi	pc!, {r3, r5, r6, r8, r9, ip, sp}	; <UNPREDICTABLE>
 90c:	21201f59 			; <UNDEFINED> instruction: 0x21201f59
 910:	0321211f 			; <UNDEFINED> instruction: 0x0321211f
 914:	033c77b3 	teqeq	ip, #46923776	; 0x2cc0000
 918:	482008d3 	stmdami	r0!, {r0, r1, r4, r6, r7, fp}
 91c:	77af0330 			; <UNDEFINED> instruction: 0x77af0330
 920:	2d212c2e 	stccs	12, cr2, [r1, #-184]!	; 0xffffff48
 924:	21567521 	cmpcs	r6, r1, lsr #10
 928:	08d40321 	ldmeq	r4, {r0, r5, r8, r9}^
 92c:	7583692e 	strvc	r6, [r3, #2350]	; 0x92e
 930:	4d7521a1 	ldfmie	f2, [r5, #-644]!	; 0xfffffd7c
 934:	200b035a 	andcs	r0, fp, sl, asr r3
 938:	2e74f603 	cdpcs	6, 7, cr15, cr4, cr3, {0}
 93c:	4a0b9703 	bmi	2e6550 <__bss_end__+0x2c2484>
 940:	2074e903 	rsbscs	lr, r4, r3, lsl #18
 944:	0afa0335 	beq	ffe81620 <__bss_end__+0xffe5d554>
 948:	2131212e 	teqcs	r1, lr, lsr #2
 94c:	03312f3a 	teqeq	r1, #58, 30	; 0xe8
 950:	72035812 	andvc	r5, r3, #1179648	; 0x120000
 954:	2131214a 	teqcs	r1, sl, asr #2
 958:	0a03403a 	beq	d0a48 <__bss_end__+0xac97c>
 95c:	3a75133c 	bcc	1d45654 <__bss_end__+0x1d21588>
 960:	74de0325 	ldrbvc	r0, [lr], #805	; 0x325
 964:	0ba60320 	bleq	fe9815ec <__bss_end__+0xfe95d520>
 968:	74e10366 	strbtvc	r0, [r1], #870	; 0x366
 96c:	0b9f032e 	bleq	fe7c162c <__bss_end__+0xfe79d560>
 970:	03301e20 	teqeq	r0, #32, 28	; 0x200
 974:	6d3c74da 	cfldrsvs	mvf7, [ip, #-872]!	; 0xfffffc98
 978:	4a0b9f03 	bmi	2e858c <__bss_end__+0x2c44c0>
 97c:	3a7513af 	bcc	1d45840 <__bss_end__+0x1d21774>
 980:	74d20325 	ldrbvc	r0, [r2], #805	; 0x325
 984:	0bb20320 	bleq	fec8160c <__bss_end__+0xfec5d540>
 988:	74d50366 	ldrbvc	r0, [r5], #870	; 0x366
 98c:	0bab032e 	bleq	feac164c <__bss_end__+0xfea9d580>
 990:	03301e20 	teqeq	r0, #32, 28	; 0x200
 994:	6d3c74ce 	cfldrsvs	mvf7, [ip, #-824]!	; 0xfffffcc8
 998:	4a0bab03 	bmi	2eb5ac <__bss_end__+0x2c74e0>
 99c:	003e66b0 	ldrhteq	r6, [lr], -r0
 9a0:	ca040402 	bgt	1019b0 <__bss_end__+0xdd8e4>
 9a4:	2c064a06 	stccs	10, cr4, [r6], {6}
 9a8:	17032f21 	strne	r2, [r3, -r1, lsr #30]
 9ac:	3329413c 			; <UNDEFINED> instruction: 0x3329413c
 9b0:	1b252029 	blne	948a5c <__bss_end__+0x924990>
 9b4:	0d033025 	stceq	0, cr3, [r3, #-148]	; 0xffffff6c
 9b8:	2073034a 	rsbscs	r0, r3, sl, asr #6
 9bc:	2f221e30 	svccs	0x00221e30
 9c0:	1f2f212d 	svcne	0x002f212d
 9c4:	212d2f21 			; <UNDEFINED> instruction: 0x212d2f21
 9c8:	2f212d2f 	svccs	0x00212d2f
 9cc:	2d2f212d 	stfcss	f2, [pc, #-180]!	; 920 <_init-0xfebc>
 9d0:	212d2f21 			; <UNDEFINED> instruction: 0x212d2f21
 9d4:	2f212d2f 	svccs	0x00212d2f
 9d8:	fc03212d 	stc2	1, cr2, [r3], {45}	; 0x2d
 9dc:	8c033c00 	stchi	12, cr3, [r3], {-0}
 9e0:	0204747f 	andeq	r7, r4, #2130706432	; 0x7f000000
 9e4:	ba74d403 	blt	1d359f8 <__bss_end__+0x1d1192c>
 9e8:	b1030104 	tstlt	r3, r4, lsl #2
 9ec:	0c03660b 	stceq	6, cr6, [r3], {11}
 9f0:	26253166 	strtcs	r3, [r5], -r6, ror #2
 9f4:	03581003 	cmpeq	r8, #3
 9f8:	03043c0b 	movweq	r3, #19467	; 0x4c0b
 9fc:	2e72a803 	cdpcs	8, 7, cr10, cr2, cr3, {0}
 a00:	d8030104 	stmdale	r3, {r2, r8}
 a04:	03042e0d 	movweq	r2, #19981	; 0x4e0d
 a08:	2e72a803 	cdpcs	8, 7, cr10, cr2, cr3, {0}
 a0c:	db030104 	blle	c0e24 <__bss_end__+0x9cd58>
 a10:	9136820d 	teqls	r6, sp, lsl #4
 a14:	3036211f 	eorscc	r2, r6, pc, lsl r1
 a18:	232b2c32 			; <UNDEFINED> instruction: 0x232b2c32
 a1c:	231e302a 	tstcs	lr, #42	; 0x2a
 a20:	2f231f2f 	svccs	0x00231f2f
 a24:	7703212d 	strvc	r2, [r3, -sp, lsr #2]
 a28:	272d2f20 	strcs	r2, [sp, -r0, lsr #30]!
 a2c:	262e7a03 	strtcs	r7, [lr], -r3, lsl #20
 a30:	8f030304 	svchi	0x00030304
 a34:	01042e72 	tsteq	r4, r2, ror lr
 a38:	820dfb03 	andhi	pc, sp, #3072	; 0xc00
 a3c:	213b5936 	teqcs	fp, r6, lsr r9
 a40:	2d221f2f 	stccs	15, cr1, [r2, #-188]!	; 0xffffff44
 a44:	58710327 	ldmdapl	r1!, {r0, r1, r2, r5, r8, r9}^
 a48:	02042d59 	andeq	r2, r4, #5696	; 0x1640
 a4c:	3c72af03 	ldclcc	15, cr10, [r2], #-12
 a50:	eb030104 	bl	c0e68 <__bss_end__+0x9cd9c>
 a54:	4603900d 	strmi	r9, [r3], -sp
 a58:	042d5990 	strteq	r5, [sp], #-2448	; 0xfffff670
 a5c:	72cf0302 	sbcvc	r0, pc, #134217728	; 0x8000000
 a60:	0001043c 	andeq	r0, r1, ip, lsr r4
 a64:	03010402 	movweq	r0, #5122	; 0x1402
 a68:	599e0d91 	ldmibpl	lr, {r0, r4, r7, r8, sl, fp}
 a6c:	2cf65a59 	vldmiacs	r6!, {s11-s99}
 a70:	03232b5c 			; <UNDEFINED> instruction: 0x03232b5c
 a74:	503c00c5 	eorspl	r0, ip, r5, asr #1
 a78:	0f032140 	svceq	0x00032140
 a7c:	00020282 	andeq	r0, r2, r2, lsl #5
 a80:	Address 0x00000a80 is out of bounds.


Disassembly of section .debug_frame:

00000000 <.debug_frame>:
   0:	0000000c 	andeq	r0, r0, ip
   4:	ffffffff 			; <UNDEFINED> instruction: 0xffffffff
   8:	7c020001 	stcvc	0, cr0, [r2], {1}
   c:	000d0c0e 	andeq	r0, sp, lr, lsl #24
  10:	00000014 	andeq	r0, r0, r4, lsl r0
  14:	00000000 	andeq	r0, r0, r0
  18:	0001127c 	andeq	r1, r1, ip, ror r2
  1c:	00000016 	andeq	r0, r0, r6, lsl r0
  20:	83080e44 	movwhi	r0, #36420	; 0x8e44
  24:	00018e02 	andeq	r8, r1, r2, lsl #28
  28:	0000000c 	andeq	r0, r0, ip
  2c:	00000000 	andeq	r0, r0, r0
  30:	00011294 	muleq	r1, r4, r2
  34:	00000012 	andeq	r0, r0, r2, lsl r0
  38:	00000014 	andeq	r0, r0, r4, lsl r0
  3c:	00000000 	andeq	r0, r0, r0
  40:	000112a8 	andeq	r1, r1, r8, lsr #5
  44:	00000032 	andeq	r0, r0, r2, lsr r0
  48:	84080e41 	strhi	r0, [r8], #-3649	; 0xfffff1bf
  4c:	00018e02 	andeq	r8, r1, r2, lsl #28
  50:	00000024 	andeq	r0, r0, r4, lsr #32
  54:	00000000 	andeq	r0, r0, r0
  58:	000112dc 	ldrdeq	r1, [r1], -ip
  5c:	00000054 	andeq	r0, r0, r4, asr r0
  60:	840c0e41 	strhi	r0, [ip], #-3649	; 0xfffff1bf
  64:	8e028503 	cfsh32hi	mvfx8, mvfx2, #3
  68:	180e4101 	stmdane	lr, {r0, r8, lr}
  6c:	0c0e0a4d 	stceq	10, cr0, [lr], {77}	; 0x4d
  70:	0e590b41 	vnmlaeq.f64	d16, d9, d1
  74:	0000000c 	andeq	r0, r0, ip
  78:	0000000c 	andeq	r0, r0, ip
  7c:	00000000 	andeq	r0, r0, r0
  80:	00011330 	andeq	r1, r1, r0, lsr r3
  84:	00000086 	andeq	r0, r0, r6, lsl #1
  88:	0000000c 	andeq	r0, r0, ip
  8c:	00000000 	andeq	r0, r0, r0
  90:	000113b8 			; <UNDEFINED> instruction: 0x000113b8
  94:	0000000c 	andeq	r0, r0, ip
  98:	0000000c 	andeq	r0, r0, ip
  9c:	00000000 	andeq	r0, r0, r0
  a0:	000113c4 	andeq	r1, r1, r4, asr #7
  a4:	00000006 	andeq	r0, r0, r6
  a8:	00000014 	andeq	r0, r0, r4, lsl r0
  ac:	00000000 	andeq	r0, r0, r0
  b0:	000113cc 	andeq	r1, r1, ip, asr #7
  b4:	0000002e 	andeq	r0, r0, lr, lsr #32
  b8:	83080e41 	movwhi	r0, #36417	; 0x8e41
  bc:	00018e02 	andeq	r8, r1, r2, lsl #28
  c0:	0000000c 	andeq	r0, r0, ip
  c4:	00000000 	andeq	r0, r0, r0
  c8:	000113fc 	strdeq	r1, [r1], -ip
  cc:	00000012 	andeq	r0, r0, r2, lsl r0
  d0:	0000001c 	andeq	r0, r0, ip, lsl r0
  d4:	00000000 	andeq	r0, r0, r0
  d8:	00011410 	andeq	r1, r1, r0, lsl r4
  dc:	00000034 	andeq	r0, r0, r4, lsr r0
  e0:	84040e41 	strhi	r0, [r4], #-3649	; 0xfffff1bf
  e4:	c40a4d01 	strgt	r4, [sl], #-3329	; 0xfffff2ff
  e8:	0b41000e 	bleq	1040128 <__bss_end__+0x101c05c>
  ec:	000ec449 	andeq	ip, lr, r9, asr #8
  f0:	0000000c 	andeq	r0, r0, ip
  f4:	00000000 	andeq	r0, r0, r0
  f8:	00011444 	andeq	r1, r1, r4, asr #8
  fc:	00000012 	andeq	r0, r0, r2, lsl r0
 100:	00000018 	andeq	r0, r0, r8, lsl r0
 104:	00000000 	andeq	r0, r0, r0
 108:	00011458 	andeq	r1, r1, r8, asr r4
 10c:	0000001a 	andeq	r0, r0, sl, lsl r0
 110:	84040e47 	strhi	r0, [r4], #-3655	; 0xfffff1b9
 114:	0ec44401 	cdpeq	4, 12, cr4, cr4, cr1, {0}
 118:	00000000 	andeq	r0, r0, r0
 11c:	00000020 	andeq	r0, r0, r0, lsr #32
 120:	00000000 	andeq	r0, r0, r0
 124:	00011474 	andeq	r1, r1, r4, ror r4
 128:	0000001e 	andeq	r0, r0, lr, lsl r0
 12c:	84100e41 	ldrhi	r0, [r0], #-3649	; 0xfffff1bf
 130:	86038504 	strhi	r8, [r3], -r4, lsl #10
 134:	4c018e02 	stcmi	14, cr8, [r1], {2}
 138:	c4c5c6ce 	strbgt	ip, [r5], #1742	; 0x6ce
 13c:	0000000e 	andeq	r0, r0, lr
 140:	0000001c 	andeq	r0, r0, ip, lsl r0
 144:	00000000 	andeq	r0, r0, r0
 148:	00011494 	muleq	r1, r4, r4
 14c:	00000038 	andeq	r0, r0, r8, lsr r0
 150:	840c0e41 	strhi	r0, [ip], #-3649	; 0xfffff1bf
 154:	86028503 	strhi	r8, [r2], -r3, lsl #10
 158:	c5c65401 	strbgt	r5, [r6, #1025]	; 0x401
 15c:	00000ec4 	andeq	r0, r0, r4, asr #29
 160:	0000000c 	andeq	r0, r0, ip
 164:	00000000 	andeq	r0, r0, r0
 168:	000114cc 	andeq	r1, r1, ip, asr #9
 16c:	00000020 	andeq	r0, r0, r0, lsr #32
 170:	0000000c 	andeq	r0, r0, ip
 174:	00000000 	andeq	r0, r0, r0
 178:	000114ec 	andeq	r1, r1, ip, ror #9
 17c:	00000020 	andeq	r0, r0, r0, lsr #32
 180:	0000000c 	andeq	r0, r0, ip
 184:	00000000 	andeq	r0, r0, r0
 188:	0001150c 	andeq	r1, r1, ip, lsl #10
 18c:	00000012 	andeq	r0, r0, r2, lsl r0
 190:	0000000c 	andeq	r0, r0, ip
 194:	00000000 	andeq	r0, r0, r0
 198:	00011520 	andeq	r1, r1, r0, lsr #10
 19c:	00000012 	andeq	r0, r0, r2, lsl r0
 1a0:	00000014 	andeq	r0, r0, r4, lsl r0
 1a4:	00000000 	andeq	r0, r0, r0
 1a8:	00011534 	andeq	r1, r1, r4, lsr r5
 1ac:	0000002e 	andeq	r0, r0, lr, lsr #32
 1b0:	84080e46 	strhi	r0, [r8], #-3654	; 0xfffff1ba
 1b4:	00018e02 	andeq	r8, r1, r2, lsl #28
 1b8:	00000014 	andeq	r0, r0, r4, lsl r0
 1bc:	00000000 	andeq	r0, r0, r0
 1c0:	00011564 	andeq	r1, r1, r4, ror #10
 1c4:	0000002e 	andeq	r0, r0, lr, lsr #32
 1c8:	84080e46 	strhi	r0, [r8], #-3654	; 0xfffff1ba
 1cc:	00018e02 	andeq	r8, r1, r2, lsl #28
 1d0:	00000014 	andeq	r0, r0, r4, lsl r0
 1d4:	00000000 	andeq	r0, r0, r0
 1d8:	00011594 	muleq	r1, r4, r5
 1dc:	00000018 	andeq	r0, r0, r8, lsl r0
 1e0:	84080e45 	strhi	r0, [r8], #-3653	; 0xfffff1bb
 1e4:	00018e02 	andeq	r8, r1, r2, lsl #28
 1e8:	0000000c 	andeq	r0, r0, ip
 1ec:	00000000 	andeq	r0, r0, r0
 1f0:	000115ac 	andeq	r1, r1, ip, lsr #11
 1f4:	00000020 	andeq	r0, r0, r0, lsr #32
 1f8:	0000000c 	andeq	r0, r0, ip
 1fc:	00000000 	andeq	r0, r0, r0
 200:	000115cc 	andeq	r1, r1, ip, asr #11
 204:	00000012 	andeq	r0, r0, r2, lsl r0
 208:	0000000c 	andeq	r0, r0, ip
 20c:	00000000 	andeq	r0, r0, r0
 210:	000115e0 	andeq	r1, r1, r0, ror #11
 214:	00000020 	andeq	r0, r0, r0, lsr #32
 218:	0000000c 	andeq	r0, r0, ip
 21c:	00000000 	andeq	r0, r0, r0
 220:	00011600 	andeq	r1, r1, r0, lsl #12
 224:	00000022 	andeq	r0, r0, r2, lsr #32
 228:	0000000c 	andeq	r0, r0, ip
 22c:	00000000 	andeq	r0, r0, r0
 230:	00011624 	andeq	r1, r1, r4, lsr #12
 234:	00000020 	andeq	r0, r0, r0, lsr #32
 238:	0000000c 	andeq	r0, r0, ip
 23c:	00000000 	andeq	r0, r0, r0
 240:	00011644 	andeq	r1, r1, r4, asr #12
 244:	00000022 	andeq	r0, r0, r2, lsr #32
 248:	0000000c 	andeq	r0, r0, ip
 24c:	00000000 	andeq	r0, r0, r0
 250:	00011668 	andeq	r1, r1, r8, ror #12
 254:	00000020 	andeq	r0, r0, r0, lsr #32
 258:	0000000c 	andeq	r0, r0, ip
 25c:	00000000 	andeq	r0, r0, r0
 260:	00011688 	andeq	r1, r1, r8, lsl #13
 264:	00000022 	andeq	r0, r0, r2, lsr #32
 268:	0000000c 	andeq	r0, r0, ip
 26c:	00000000 	andeq	r0, r0, r0
 270:	000116ac 	andeq	r1, r1, ip, lsr #13
 274:	00000020 	andeq	r0, r0, r0, lsr #32
 278:	0000000c 	andeq	r0, r0, ip
 27c:	00000000 	andeq	r0, r0, r0
 280:	000116cc 	andeq	r1, r1, ip, asr #13
 284:	00000022 	andeq	r0, r0, r2, lsr #32
 288:	0000000c 	andeq	r0, r0, ip
 28c:	00000000 	andeq	r0, r0, r0
 290:	000116f0 	strdeq	r1, [r1], -r0
 294:	00000020 	andeq	r0, r0, r0, lsr #32
 298:	0000000c 	andeq	r0, r0, ip
 29c:	00000000 	andeq	r0, r0, r0
 2a0:	00011710 	andeq	r1, r1, r0, lsl r7
 2a4:	00000022 	andeq	r0, r0, r2, lsr #32
 2a8:	0000000c 	andeq	r0, r0, ip
 2ac:	00000000 	andeq	r0, r0, r0
 2b0:	00011734 	andeq	r1, r1, r4, lsr r7
 2b4:	00000020 	andeq	r0, r0, r0, lsr #32
 2b8:	0000000c 	andeq	r0, r0, ip
 2bc:	00000000 	andeq	r0, r0, r0
 2c0:	00011754 	andeq	r1, r1, r4, asr r7
 2c4:	00000022 	andeq	r0, r0, r2, lsr #32
 2c8:	0000000c 	andeq	r0, r0, ip
 2cc:	00000000 	andeq	r0, r0, r0
 2d0:	00011778 	andeq	r1, r1, r8, ror r7
 2d4:	00000012 	andeq	r0, r0, r2, lsl r0
 2d8:	0000000c 	andeq	r0, r0, ip
 2dc:	00000000 	andeq	r0, r0, r0
 2e0:	0001178c 	andeq	r1, r1, ip, lsl #15
 2e4:	0000001c 	andeq	r0, r0, ip, lsl r0
 2e8:	0000000c 	andeq	r0, r0, ip
 2ec:	00000000 	andeq	r0, r0, r0
 2f0:	000117a8 	andeq	r1, r1, r8, lsr #15
 2f4:	0000001e 	andeq	r0, r0, lr, lsl r0
 2f8:	00000024 	andeq	r0, r0, r4, lsr #32
 2fc:	00000000 	andeq	r0, r0, r0
 300:	000117c8 	andeq	r1, r1, r8, asr #15
 304:	00000050 	andeq	r0, r0, r0, asr r0
 308:	84140e41 	ldrhi	r0, [r4], #-3649	; 0xfffff1bf
 30c:	86048505 	strhi	r8, [r4], -r5, lsl #10
 310:	8e028703 	cdphi	7, 0, cr8, cr2, cr3, {0}
 314:	280e4501 	stmdacs	lr, {r0, r8, sl, lr}
 318:	140e0a5f 	strne	r0, [lr], #-2655	; 0xfffff5a1
 31c:	00000b41 	andeq	r0, r0, r1, asr #22
 320:	0000000c 	andeq	r0, r0, ip
 324:	00000000 	andeq	r0, r0, r0
 328:	00011818 	andeq	r1, r1, r8, lsl r8
 32c:	0000000a 	andeq	r0, r0, sl
 330:	0000000c 	andeq	r0, r0, ip
 334:	00000000 	andeq	r0, r0, r0
 338:	00011824 	andeq	r1, r1, r4, lsr #16
 33c:	0000001e 	andeq	r0, r0, lr, lsl r0
 340:	00000020 	andeq	r0, r0, r0, lsr #32
 344:	00000000 	andeq	r0, r0, r0
 348:	00011844 	andeq	r1, r1, r4, asr #16
 34c:	00000028 	andeq	r0, r0, r8, lsr #32
 350:	84100e41 	ldrhi	r0, [r0], #-3649	; 0xfffff1bf
 354:	86038504 	strhi	r8, [r3], -r4, lsl #10
 358:	51018e02 	tstpl	r1, r2, lsl #28
 35c:	c4c5c6ce 	strbgt	ip, [r5], #1742	; 0x6ce
 360:	0000000e 	andeq	r0, r0, lr
 364:	00000014 	andeq	r0, r0, r4, lsl r0
 368:	00000000 	andeq	r0, r0, r0
 36c:	0001186c 	andeq	r1, r1, ip, ror #16
 370:	0000005a 	andeq	r0, r0, sl, asr r0
 374:	84080e4d 	strhi	r0, [r8], #-3661	; 0xfffff1b3
 378:	00018e02 	andeq	r8, r1, r2, lsl #28
 37c:	00000014 	andeq	r0, r0, r4, lsl r0
 380:	00000000 	andeq	r0, r0, r0
 384:	000118c8 	andeq	r1, r1, r8, asr #17
 388:	00000080 	andeq	r0, r0, r0, lsl #1
 38c:	84080e41 	strhi	r0, [r8], #-3649	; 0xfffff1bf
 390:	00018e02 	andeq	r8, r1, r2, lsl #28
 394:	00000018 	andeq	r0, r0, r8, lsl r0
 398:	00000000 	andeq	r0, r0, r0
 39c:	00011948 	andeq	r1, r1, r8, asr #18
 3a0:	0000004a 	andeq	r0, r0, sl, asr #32
 3a4:	84080e41 	strhi	r0, [r8], #-3649	; 0xfffff1bf
 3a8:	62018e02 	andvs	r8, r1, #2, 28
 3ac:	000ec4ce 	andeq	ip, lr, lr, asr #9
 3b0:	0000000c 	andeq	r0, r0, ip
 3b4:	00000000 	andeq	r0, r0, r0
 3b8:	00011994 	muleq	r1, r4, r9
 3bc:	0000000e 	andeq	r0, r0, lr
 3c0:	0000000c 	andeq	r0, r0, ip
 3c4:	00000000 	andeq	r0, r0, r0
 3c8:	000119a4 	andeq	r1, r1, r4, lsr #19
 3cc:	00000012 	andeq	r0, r0, r2, lsl r0
 3d0:	00000018 	andeq	r0, r0, r8, lsl r0
 3d4:	00000000 	andeq	r0, r0, r0
 3d8:	000119b8 			; <UNDEFINED> instruction: 0x000119b8
 3dc:	0000002c 	andeq	r0, r0, ip, lsr #32
 3e0:	83080e41 	movwhi	r0, #36417	; 0x8e41
 3e4:	53018e02 	movwpl	r8, #7682	; 0x1e02
 3e8:	000ec3ce 	andeq	ip, lr, lr, asr #7
 3ec:	0000000c 	andeq	r0, r0, ip
 3f0:	00000000 	andeq	r0, r0, r0
 3f4:	000119e4 	andeq	r1, r1, r4, ror #19
 3f8:	00000012 	andeq	r0, r0, r2, lsl r0
 3fc:	0000001c 	andeq	r0, r0, ip, lsl r0
 400:	00000000 	andeq	r0, r0, r0
 404:	000119f8 	strdeq	r1, [r1], -r8
 408:	00000098 	muleq	r0, r8, r0
 40c:	83180e41 	tsthi	r8, #1040	; 0x410
 410:	85058406 	strhi	r8, [r5, #-1030]	; 0xfffffbfa
 414:	87038604 	strhi	r8, [r3, -r4, lsl #12]
 418:	00018e02 	andeq	r8, r1, r2, lsl #28
 41c:	00000038 	andeq	r0, r0, r8, lsr r0
 420:	00000000 	andeq	r0, r0, r0
 424:	00011a90 	muleq	r1, r0, sl
 428:	000000fc 	strdeq	r0, [r0], -ip
 42c:	84240e42 	strthi	r0, [r4], #-3650	; 0xfffff1be
 430:	86088509 	strhi	r8, [r8], -r9, lsl #10
 434:	88068707 	stmdahi	r6, {r0, r1, r2, r8, r9, sl, pc}
 438:	8a048905 	bhi	122854 <__bss_end__+0xfe788>
 43c:	8e028b03 	vmlahi.f64	d8, d2, d3
 440:	380e4501 	stmdacc	lr, {r0, r8, sl, lr}
 444:	0e0a4e02 	cdpeq	14, 0, cr4, cr10, cr2, {0}
 448:	cbce4224 	blgt	ff390ce0 <__bss_end__+0xff36cc14>
 44c:	c7c8c9ca 	strbgt	ip, [r8, sl, asr #19]
 450:	0ec4c5c6 	cdpeq	5, 12, cr12, cr4, cr6, {6}
 454:	000b4200 	andeq	r4, fp, r0, lsl #4
 458:	00000030 	andeq	r0, r0, r0, lsr r0
 45c:	00000000 	andeq	r0, r0, r0
 460:	00011b8c 	andeq	r1, r1, ip, lsl #23
 464:	000000e0 	andeq	r0, r0, r0, ror #1
 468:	84200e42 	strthi	r0, [r0], #-3650	; 0xfffff1be
 46c:	86078508 	strhi	r8, [r7], -r8, lsl #10
 470:	88058706 	stmdahi	r5, {r1, r2, r8, r9, sl, pc}
 474:	8a038904 	bhi	e288c <__bss_end__+0xbe7c0>
 478:	02018e02 	andeq	r8, r1, #2, 28
 47c:	cace0a65 	bgt	ff382e18 <__bss_end__+0xff35ed4c>
 480:	c6c7c8c9 	strbgt	ip, [r7], r9, asr #17
 484:	000ec4c5 	andeq	ip, lr, r5, asr #9
 488:	00000b42 	andeq	r0, r0, r2, asr #22
 48c:	0000000c 	andeq	r0, r0, ip
 490:	00000000 	andeq	r0, r0, r0
 494:	00011c6c 	andeq	r1, r1, ip, ror #24
 498:	00000008 	andeq	r0, r0, r8
 49c:	0000000c 	andeq	r0, r0, ip
 4a0:	00000000 	andeq	r0, r0, r0
 4a4:	00011c74 	andeq	r1, r1, r4, ror ip
 4a8:	00000012 	andeq	r0, r0, r2, lsl r0
 4ac:	0000000c 	andeq	r0, r0, ip
 4b0:	00000000 	andeq	r0, r0, r0
 4b4:	00011c88 	andeq	r1, r1, r8, lsl #25
 4b8:	00000018 	andeq	r0, r0, r8, lsl r0
 4bc:	00000028 	andeq	r0, r0, r8, lsr #32
 4c0:	00000000 	andeq	r0, r0, r0
 4c4:	00011ca0 	andeq	r1, r1, r0, lsr #25
 4c8:	00000082 	andeq	r0, r0, r2, lsl #1
 4cc:	83180e41 	tsthi	r8, #1040	; 0x410
 4d0:	85058406 	strhi	r8, [r5, #-1030]	; 0xfffffbfa
 4d4:	87038604 	strhi	r8, [r3, -r4, lsl #12]
 4d8:	71018e02 	tstvc	r1, r2, lsl #28
 4dc:	c6c7ce0a 	strbgt	ip, [r7], sl, lsl #28
 4e0:	0ec3c4c5 	cdpeq	4, 12, cr12, cr3, cr5, {6}
 4e4:	000b4200 	andeq	r4, fp, r0, lsl #4
 4e8:	0000001c 	andeq	r0, r0, ip, lsl r0
 4ec:	00000000 	andeq	r0, r0, r0
 4f0:	00011d24 	andeq	r1, r1, r4, lsr #26
 4f4:	0000007c 	andeq	r0, r0, ip, ror r0
 4f8:	83180e41 	tsthi	r8, #1040	; 0x410
 4fc:	85058406 	strhi	r8, [r5, #-1030]	; 0xfffffbfa
 500:	87038604 	strhi	r8, [r3, -r4, lsl #12]
 504:	00018e02 	andeq	r8, r1, r2, lsl #28
 508:	00000018 	andeq	r0, r0, r8, lsl r0
 50c:	00000000 	andeq	r0, r0, r0
 510:	00011da0 	andeq	r1, r1, r0, lsr #27
 514:	00000042 	andeq	r0, r0, r2, asr #32
 518:	84080e41 	strhi	r0, [r8], #-3649	; 0xfffff1bf
 51c:	5e018e02 	cdppl	14, 0, cr8, cr1, cr2, {0}
 520:	000ec4ce 	andeq	ip, lr, lr, asr #9
 524:	00000014 	andeq	r0, r0, r4, lsl r0
 528:	00000000 	andeq	r0, r0, r0
 52c:	00011de4 	andeq	r1, r1, r4, ror #27
 530:	00000044 	andeq	r0, r0, r4, asr #32
 534:	83080e41 	movwhi	r0, #36417	; 0x8e41
 538:	00018e02 	andeq	r8, r1, r2, lsl #28
 53c:	0000000c 	andeq	r0, r0, ip
 540:	00000000 	andeq	r0, r0, r0
 544:	00011e28 	andeq	r1, r1, r8, lsr #28
 548:	0000000c 	andeq	r0, r0, ip
 54c:	00000024 	andeq	r0, r0, r4, lsr #32
 550:	00000000 	andeq	r0, r0, r0
 554:	00011e34 	andeq	r1, r1, r4, lsr lr
 558:	00000050 	andeq	r0, r0, r0, asr r0
 55c:	83180e41 	tsthi	r8, #1040	; 0x410
 560:	85058406 	strhi	r8, [r5, #-1030]	; 0xfffffbfa
 564:	87038604 	strhi	r8, [r3, -r4, lsl #12]
 568:	65018e02 	strvs	r8, [r1, #-3586]	; 0xfffff1fe
 56c:	c5c6c7ce 	strbgt	ip, [r6, #1998]	; 0x7ce
 570:	000ec3c4 	andeq	ip, lr, r4, asr #7
 574:	00000020 	andeq	r0, r0, r0, lsr #32
 578:	00000000 	andeq	r0, r0, r0
 57c:	00011e84 	andeq	r1, r1, r4, lsl #29
 580:	000000a4 	andeq	r0, r0, r4, lsr #1
 584:	83200e42 			; <UNDEFINED> instruction: 0x83200e42
 588:	85078408 	strhi	r8, [r7, #-1032]	; 0xfffffbf8
 58c:	87058606 	strhi	r8, [r5, -r6, lsl #12]
 590:	89038804 	stmdbhi	r3, {r2, fp, pc}
 594:	00018e02 	andeq	r8, r1, r2, lsl #28
 598:	00000024 	andeq	r0, r0, r4, lsr #32
 59c:	00000000 	andeq	r0, r0, r0
 5a0:	00011f28 	andeq	r1, r1, r8, lsr #30
 5a4:	00000144 	andeq	r0, r0, r4, asr #2
 5a8:	83280e42 			; <UNDEFINED> instruction: 0x83280e42
 5ac:	8509840a 	strhi	r8, [r9, #-1034]	; 0xfffffbf6
 5b0:	87078608 	strhi	r8, [r7, -r8, lsl #12]
 5b4:	89058806 	stmdbhi	r5, {r1, r2, fp, pc}
 5b8:	8b038a04 	blhi	e2dd0 <__bss_end__+0xbed04>
 5bc:	00018e02 	andeq	r8, r1, r2, lsl #28
 5c0:	0000000c 	andeq	r0, r0, ip
 5c4:	00000000 	andeq	r0, r0, r0
 5c8:	0001206c 	andeq	r2, r1, ip, rrx
 5cc:	00000008 	andeq	r0, r0, r8
 5d0:	00000018 	andeq	r0, r0, r8, lsl r0
 5d4:	00000000 	andeq	r0, r0, r0
 5d8:	00012074 	andeq	r2, r1, r4, ror r0
 5dc:	00000080 	andeq	r0, r0, r0, lsl #1
 5e0:	83100e41 	tsthi	r0, #1040	; 0x410
 5e4:	85038404 	strhi	r8, [r3, #-1028]	; 0xfffffbfc
 5e8:	00018e02 	andeq	r8, r1, r2, lsl #28
 5ec:	00000018 	andeq	r0, r0, r8, lsl r0
 5f0:	00000000 	andeq	r0, r0, r0
 5f4:	000120f4 	strdeq	r2, [r1], -r4
 5f8:	00000026 	andeq	r0, r0, r6, lsr #32
 5fc:	84080e41 	strhi	r0, [r8], #-3649	; 0xfffff1bf
 600:	50018e02 	andpl	r8, r1, r2, lsl #28
 604:	000ec4ce 	andeq	ip, lr, lr, asr #9
 608:	0000000c 	andeq	r0, r0, ip
 60c:	00000000 	andeq	r0, r0, r0
 610:	0001211c 	andeq	r2, r1, ip, lsl r1
 614:	00000012 	andeq	r0, r0, r2, lsl r0
 618:	00000018 	andeq	r0, r0, r8, lsl r0
 61c:	00000000 	andeq	r0, r0, r0
 620:	00012130 	andeq	r2, r1, r0, lsr r1
 624:	00000058 	andeq	r0, r0, r8, asr r0
 628:	8e040e41 	cdphi	14, 0, cr0, cr4, cr1, {2}
 62c:	100e4301 	andne	r4, lr, r1, lsl #6
 630:	00040e61 	andeq	r0, r4, r1, ror #28
 634:	00000018 	andeq	r0, r0, r8, lsl r0
 638:	00000000 	andeq	r0, r0, r0
 63c:	00012188 	andeq	r2, r1, r8, lsl #3
 640:	0000001e 	andeq	r0, r0, lr, lsl r0
 644:	83080e41 	movwhi	r0, #36417	; 0x8e41
 648:	4c018e02 	stcmi	14, cr8, [r1], {2}
 64c:	000ec3ce 	andeq	ip, lr, lr, asr #7
 650:	00000024 	andeq	r0, r0, r4, lsr #32
 654:	00000000 	andeq	r0, r0, r0
 658:	000121a8 	andeq	r2, r1, r8, lsr #3
 65c:	000000f6 	strdeq	r0, [r0], -r6
 660:	83280e42 			; <UNDEFINED> instruction: 0x83280e42
 664:	8509840a 	strhi	r8, [r9, #-1034]	; 0xfffffbf6
 668:	87078608 	strhi	r8, [r7, -r8, lsl #12]
 66c:	89058806 	stmdbhi	r5, {r1, r2, fp, pc}
 670:	8b038a04 	blhi	e2e88 <__bss_end__+0xbedbc>
 674:	00018e02 	andeq	r8, r1, r2, lsl #28
 678:	00000024 	andeq	r0, r0, r4, lsr #32
 67c:	00000000 	andeq	r0, r0, r0
 680:	000122a0 	andeq	r2, r1, r0, lsr #5
 684:	0000013a 	andeq	r0, r0, sl, lsr r1
 688:	83280e42 			; <UNDEFINED> instruction: 0x83280e42
 68c:	8509840a 	strhi	r8, [r9, #-1034]	; 0xfffffbf6
 690:	87078608 	strhi	r8, [r7, -r8, lsl #12]
 694:	89058806 	stmdbhi	r5, {r1, r2, fp, pc}
 698:	8b038a04 	blhi	e2eb0 <__bss_end__+0xbede4>
 69c:	00018e02 	andeq	r8, r1, r2, lsl #28
 6a0:	0000001c 	andeq	r0, r0, ip, lsl r0
 6a4:	00000000 	andeq	r0, r0, r0
 6a8:	000123dc 	ldrdeq	r2, [r1], -ip
 6ac:	00000062 	andeq	r0, r0, r2, rrx
 6b0:	83180e41 	tsthi	r8, #1040	; 0x410
 6b4:	85058406 	strhi	r8, [r5, #-1030]	; 0xfffffbfa
 6b8:	87038604 	strhi	r8, [r3, -r4, lsl #12]
 6bc:	00018e02 	andeq	r8, r1, r2, lsl #28
 6c0:	00000028 	andeq	r0, r0, r8, lsr #32
 6c4:	00000000 	andeq	r0, r0, r0
 6c8:	00012440 	andeq	r2, r1, r0, asr #8
 6cc:	000000ac 	andeq	r0, r0, ip, lsr #1
 6d0:	841c0e42 	ldrhi	r0, [ip], #-3650	; 0xfffff1be
 6d4:	86068507 	strhi	r8, [r6], -r7, lsl #10
 6d8:	88048705 	stmdahi	r4, {r0, r2, r8, r9, sl, pc}
 6dc:	8e028903 	cdphi	9, 0, cr8, cr2, cr3, {0}
 6e0:	300e4901 	andcc	r4, lr, r1, lsl #18
 6e4:	1c0e0a54 	stcne	10, cr0, [lr], {84}	; 0x54
 6e8:	00000b42 	andeq	r0, r0, r2, asr #22
 6ec:	00000048 	andeq	r0, r0, r8, asr #32
 6f0:	00000000 	andeq	r0, r0, r0
 6f4:	000124ec 	andeq	r2, r1, ip, ror #9
 6f8:	000000d0 	ldrdeq	r0, [r0], -r0	; <UNPREDICTABLE>
 6fc:	83200e42 			; <UNDEFINED> instruction: 0x83200e42
 700:	85078408 	strhi	r8, [r7, #-1032]	; 0xfffffbf8
 704:	87058606 	strhi	r8, [r5, -r6, lsl #12]
 708:	89038804 	stmdbhi	r3, {r2, fp, pc}
 70c:	02018e02 	andeq	r8, r1, #2, 28
 710:	c9ce0a43 	stmibgt	lr, {r0, r1, r6, r9, fp}^
 714:	c5c6c7c8 	strbgt	ip, [r6, #1992]	; 0x7c8
 718:	000ec3c4 	andeq	ip, lr, r4, asr #7
 71c:	0a480b42 	beq	120342c <__bss_end__+0x11df360>
 720:	c6c5c4c3 	strbgt	ip, [r5], r3, asr #9
 724:	cec9c8c7 	cdpgt	8, 12, cr12, cr9, cr7, {6}
 728:	0b42000e 	bleq	1080768 <__bss_end__+0x105c69c>
 72c:	c8c9ce55 	stmiagt	r9, {r0, r2, r4, r6, r9, sl, fp, lr, pc}^
 730:	c4c5c6c7 	strbgt	ip, [r5], #1735	; 0x6c7
 734:	00000ec3 	andeq	r0, r0, r3, asr #29
 738:	00000024 	andeq	r0, r0, r4, lsr #32
 73c:	00000000 	andeq	r0, r0, r0
 740:	000125bc 			; <UNDEFINED> instruction: 0x000125bc
 744:	0000004a 	andeq	r0, r0, sl, asr #32
 748:	84040e45 	strhi	r0, [r4], #-3653	; 0xfffff1bb
 74c:	c40a4501 	strgt	r4, [sl], #-1281	; 0xfffffaff
 750:	0b41000e 	bleq	1040790 <__bss_end__+0x101c6c4>
 754:	0ec40a50 	mcreq	10, 6, r0, cr4, cr0, {2}
 758:	430b4500 	movwmi	r4, #46336	; 0xb500
 75c:	00000ec4 	andeq	r0, r0, r4, asr #29
 760:	00000020 	andeq	r0, r0, r0, lsr #32
 764:	00000000 	andeq	r0, r0, r0
 768:	00012608 	andeq	r2, r1, r8, lsl #12
 76c:	0000012e 	andeq	r0, r0, lr, lsr #2
 770:	84200e46 	strthi	r0, [r0], #-3654	; 0xfffff1ba
 774:	86078508 	strhi	r8, [r7], -r8, lsl #10
 778:	88058706 	stmdahi	r5, {r1, r2, r8, r9, sl, pc}
 77c:	8a038904 	bhi	e2b94 <__bss_end__+0xbeac8>
 780:	00018e02 	andeq	r8, r1, r2, lsl #28
 784:	0000002c 	andeq	r0, r0, ip, lsr #32
 788:	00000000 	andeq	r0, r0, r0
 78c:	00012738 	andeq	r2, r1, r8, lsr r7
 790:	00000186 	andeq	r0, r0, r6, lsl #3
 794:	84240e42 	strthi	r0, [r4], #-3650	; 0xfffff1be
 798:	86088509 	strhi	r8, [r8], -r9, lsl #10
 79c:	88068707 	stmdahi	r6, {r0, r1, r2, r8, r9, sl, pc}
 7a0:	8a048905 	bhi	122bbc <__bss_end__+0xfeaf0>
 7a4:	8e028b03 	vmlahi.f64	d8, d2, d3
 7a8:	300e4501 	andcc	r4, lr, r1, lsl #10
 7ac:	0e0aac02 	cdpeq	12, 0, cr10, cr10, cr2, {0}
 7b0:	000b4224 	andeq	r4, fp, r4, lsr #4
 7b4:	00000018 	andeq	r0, r0, r8, lsl r0
 7b8:	00000000 	andeq	r0, r0, r0
 7bc:	000128c0 	andeq	r2, r1, r0, asr #17
 7c0:	00000016 	andeq	r0, r0, r6, lsl r0
 7c4:	83100e41 	tsthi	r0, #1040	; 0x410
 7c8:	85038404 	strhi	r8, [r3, #-1028]	; 0xfffffbfc
 7cc:	00018e02 	andeq	r8, r1, r2, lsl #28
 7d0:	00000028 	andeq	r0, r0, r8, lsr #32
 7d4:	00000000 	andeq	r0, r0, r0
 7d8:	000128d8 	ldrdeq	r2, [r1], -r8
 7dc:	000000a2 	andeq	r0, r0, r2, lsr #1
 7e0:	84180e42 	ldrhi	r0, [r8], #-3650	; 0xfffff1be
 7e4:	86058506 	strhi	r8, [r5], -r6, lsl #10
 7e8:	88038704 	stmdahi	r3, {r2, r8, r9, sl, pc}
 7ec:	4b018e02 	blmi	63ffc <__bss_end__+0x3ff30>
 7f0:	4002280e 	andmi	r2, r2, lr, lsl #16
 7f4:	42180e0a 	andsmi	r0, r8, #10, 28	; 0xa0
 7f8:	0000000b 	andeq	r0, r0, fp
 7fc:	00000028 	andeq	r0, r0, r8, lsr #32
 800:	00000000 	andeq	r0, r0, r0
 804:	0001297c 	andeq	r2, r1, ip, ror r9
 808:	0000007c 	andeq	r0, r0, ip, ror r0
 80c:	83180e41 	tsthi	r8, #1040	; 0x410
 810:	85058406 	strhi	r8, [r5, #-1030]	; 0xfffffbfa
 814:	87038604 	strhi	r8, [r3, -r4, lsl #12]
 818:	6e018e02 	cdpvs	14, 0, cr8, cr1, cr2, {0}
 81c:	c6c7ce0a 	strbgt	ip, [r7], sl, lsl #28
 820:	0ec3c4c5 	cdpeq	4, 12, cr12, cr3, cr5, {6}
 824:	000b4200 	andeq	r4, fp, r0, lsl #4
 828:	0000002c 	andeq	r0, r0, ip, lsr #32
 82c:	00000000 	andeq	r0, r0, r0
 830:	000129f8 	strdeq	r2, [r1], -r8
 834:	0000005e 	andeq	r0, r0, lr, asr r0
 838:	84040e4b 	strhi	r0, [r4], #-3659	; 0xfffff1b5
 83c:	0ec44901 	cdpeq	9, 12, cr4, cr4, cr1, {0}
 840:	040e4200 	streq	r4, [lr], #-512	; 0xfffffe00
 844:	0a440184 	beq	1100e5c <__bss_end__+0x10dcd90>
 848:	41000ec4 	smlabtmi	r0, r4, lr, r0
 84c:	c40a4c0b 	strgt	r4, [sl], #-3083	; 0xfffff3f5
 850:	0b42000e 	bleq	1080890 <__bss_end__+0x105c7c4>
 854:	000ec444 	andeq	ip, lr, r4, asr #8
 858:	0000002c 	andeq	r0, r0, ip, lsr #32
 85c:	00000000 	andeq	r0, r0, r0
 860:	00012a58 	andeq	r2, r1, r8, asr sl
 864:	0000005e 	andeq	r0, r0, lr, asr r0
 868:	84040e4b 	strhi	r0, [r4], #-3659	; 0xfffff1b5
 86c:	0ec44901 	cdpeq	9, 12, cr4, cr4, cr1, {0}
 870:	040e4200 	streq	r4, [lr], #-512	; 0xfffffe00
 874:	0a440184 	beq	1100e8c <__bss_end__+0x10dcdc0>
 878:	41000ec4 	smlabtmi	r0, r4, lr, r0
 87c:	c40a4c0b 	strgt	r4, [sl], #-3083	; 0xfffff3f5
 880:	0b42000e 	bleq	10808c0 <__bss_end__+0x105c7f4>
 884:	000ec444 	andeq	ip, lr, r4, asr #8
 888:	00000020 	andeq	r0, r0, r0, lsr #32
 88c:	00000000 	andeq	r0, r0, r0
 890:	00012ab8 			; <UNDEFINED> instruction: 0x00012ab8
 894:	00000042 	andeq	r0, r0, r2, asr #32
 898:	84100e41 	ldrhi	r0, [r0], #-3649	; 0xfffff1bf
 89c:	86038504 	strhi	r8, [r3], -r4, lsl #10
 8a0:	45018e02 	strmi	r8, [r1, #-3586]	; 0xfffff1fe
 8a4:	0a55180e 	beq	15468e4 <__bss_end__+0x1522818>
 8a8:	0b41100e 	bleq	10448e8 <__bss_end__+0x102081c>
 8ac:	00000024 	andeq	r0, r0, r4, lsr #32
 8b0:	00000000 	andeq	r0, r0, r0
 8b4:	00012afc 	strdeq	r2, [r1], -ip
 8b8:	00000266 	andeq	r0, r0, r6, ror #4
 8bc:	84140e41 	ldrhi	r0, [r4], #-3649	; 0xfffff1bf
 8c0:	86048505 	strhi	r8, [r4], -r5, lsl #10
 8c4:	8e028703 	cdphi	7, 0, cr8, cr2, cr3, {0}
 8c8:	300e4901 	andcc	r4, lr, r1, lsl #18
 8cc:	0e0a4302 	cdpeq	3, 0, cr4, cr10, cr2, {0}
 8d0:	000b4114 	andeq	r4, fp, r4, lsl r1
 8d4:	00000014 	andeq	r0, r0, r4, lsl r0
 8d8:	00000000 	andeq	r0, r0, r0
 8dc:	00012d64 	andeq	r2, r1, r4, ror #26
 8e0:	00000016 	andeq	r0, r0, r6, lsl r0
 8e4:	83080e41 	movwhi	r0, #36417	; 0x8e41
 8e8:	00018e02 	andeq	r8, r1, r2, lsl #28

Disassembly of section .debug_str:

00000000 <.debug_str>:
       0:	74735f5f 	ldrbtvc	r5, [r3], #-3935	; 0xfffff0a1
       4:	6d616572 	cfstr64vs	mvdx6, [r1, #-456]!	; 0xfffffe38
       8:	7a697300 	bvc	1a5cc10 <__bss_end__+0x1a38b44>
       c:	00745f65 	rsbseq	r5, r4, r5, ror #30
      10:	657a6973 	ldrbvs	r6, [sl, #-2419]!	; 0xfffff68d
      14:	65707974 	ldrbvs	r7, [r0, #-2420]!	; 0xfffff68c
      18:	61747300 	cmnvs	r4, r0, lsl #6
      1c:	6d007472 	cfstrsvs	mvf7, [r0, #-456]	; 0xfffffe38
      20:	616d6e75 	smcvs	55013	; 0xd6e5
      24:	5f5f0070 	svcpl	0x005f0070
      28:	00746d66 	rsbseq	r6, r4, r6, ror #26
      2c:	5f495052 	svcpl	0x00495052
      30:	554c5042 	strbpl	r5, [ip, #-66]	; 0xffffffbe
      34:	50475f53 	subpl	r5, r7, r3, asr pc
      38:	4a5f4f49 	bmi	17d3d64 <__bss_end__+0x17afc98>
      3c:	33305f38 	teqcc	r0, #56, 30	; 0xe0
      40:	49505200 	ldmdbmi	r0, {r9, ip, lr}^
      44:	4c50425f 	lfmmi	f4, 2, [r0], {95}	; 0x5f
      48:	475f5355 			; <UNDEFINED> instruction: 0x475f5355
      4c:	5f4f4950 	svcpl	0x004f4950
      50:	305f384a 	subscc	r3, pc, sl, asr #16
      54:	50520035 	subspl	r0, r2, r5, lsr r0
      58:	50425f49 	subpl	r5, r2, r9, asr #30
      5c:	5f53554c 	svcpl	0x0053554c
      60:	4f495047 	svcmi	0x00495047
      64:	5f384a5f 	svcpl	0x00384a5f
      68:	52003730 	andpl	r3, r0, #48, 14	; 0xc00000
      6c:	425f4950 	subsmi	r4, pc, #80, 18	; 0x140000
      70:	53554c50 	cmppl	r5, #80, 24	; 0x5000
      74:	4950475f 	ldmdbmi	r0, {r0, r1, r2, r3, r4, r6, r8, r9, sl, lr}^
      78:	384a5f4f 	stmdacc	sl, {r0, r1, r2, r3, r6, r8, r9, sl, fp, ip, lr}^
      7c:	0038305f 	eorseq	r3, r8, pc, asr r0
      80:	746e635f 	strbtvc	r6, [lr], #-863	; 0xfffffca1
      84:	5f00306c 	svcpl	0x0000306c
      88:	735f4f49 	cmpvc	pc, #292	; 0x124
      8c:	5f657661 	svcpl	0x00657661
      90:	00646e65 	rsbeq	r6, r4, r5, ror #28
      94:	6c6c616d 	stfvse	f6, [ip], #-436	; 0xfffffe4c
      98:	615f636f 	cmpvs	pc, pc, ror #6
      9c:	6e67696c 	cdpvs	9, 6, cr6, cr7, cr12, {3}
      a0:	73006465 	movwvc	r6, #1125	; 0x465
      a4:	74666968 	strbtvc	r6, [r6], #-2408	; 0xfffff698
      a8:	73746962 	cmnvc	r4, #1605632	; 0x188000
      ac:	6d656d00 	stclvs	13, cr6, [r5, #-0]
      b0:	62006466 	andvs	r6, r0, #1711276032	; 0x66000000
      b4:	38326d63 	ldmdacc	r2!, {r0, r1, r5, r6, r8, sl, fp, sp, lr}
      b8:	695f3533 	ldmdbvs	pc, {r0, r1, r4, r5, r8, sl, ip, sp}^	; <UNPREDICTABLE>
      bc:	775f6332 	smmlarvc	pc, r2, r3, r6	; <UNPREDICTABLE>
      c0:	65746972 	ldrbvs	r6, [r4, #-2418]!	; 0xfffff68e
      c4:	49505200 	ldmdbmi	r0, {r9, ip, lr}^
      c8:	4c50425f 	lfmmi	f4, 2, [r0], {95}	; 0x5f
      cc:	475f5355 			; <UNDEFINED> instruction: 0x475f5355
      d0:	5f4f4950 	svcpl	0x004f4950
      d4:	315f384a 	cmpcc	pc, sl, asr #16
      d8:	495f0030 	ldmdbmi	pc, {r4, r5}^	; <UNPREDICTABLE>
      dc:	72775f4f 	rsbsvc	r5, r7, #316	; 0x13c
      e0:	5f657469 	svcpl	0x00657469
      e4:	65736162 	ldrbvs	r6, [r3, #-354]!	; 0xfffffe9e
      e8:	49505200 	ldmdbmi	r0, {r9, ip, lr}^
      ec:	4c50425f 	lfmmi	f4, 2, [r0], {95}	; 0x5f
      f0:	475f5355 			; <UNDEFINED> instruction: 0x475f5355
      f4:	5f4f4950 	svcpl	0x004f4950
      f8:	315f384a 	cmpcc	pc, sl, asr #16
      fc:	50520032 	subspl	r0, r2, r2, lsr r0
     100:	50425f49 	subpl	r5, r2, r9, asr #30
     104:	5f53554c 	svcpl	0x0053554c
     108:	4f495047 	svcmi	0x00495047
     10c:	5f384a5f 	svcpl	0x00384a5f
     110:	52003331 	andpl	r3, r0, #-1006632960	; 0xc4000000
     114:	425f4950 	subsmi	r4, pc, #80, 18	; 0x140000
     118:	53554c50 	cmppl	r5, #80, 24	; 0x5000
     11c:	4950475f 	ldmdbmi	r0, {r0, r1, r2, r3, r4, r6, r8, r9, sl, lr}^
     120:	384a5f4f 	stmdacc	sl, {r0, r1, r2, r3, r6, r8, r9, sl, fp, ip, lr}^
     124:	0035315f 	eorseq	r3, r5, pc, asr r1
     128:	5f495052 	svcpl	0x00495052
     12c:	554c5042 	strbpl	r5, [ip, #-66]	; 0xffffffbe
     130:	50475f53 	subpl	r5, r7, r3, asr pc
     134:	4a5f4f49 	bmi	17d3e60 <__bss_end__+0x17afd94>
     138:	36315f38 	shasxcc	r5, r1, r8
     13c:	49505200 	ldmdbmi	r0, {r9, ip, lr}^
     140:	4c50425f 	lfmmi	f4, 2, [r0], {95}	; 0x5f
     144:	475f5355 			; <UNDEFINED> instruction: 0x475f5355
     148:	5f4f4950 	svcpl	0x004f4950
     14c:	315f384a 	cmpcc	pc, sl, asr #16
     150:	50520038 	subspl	r0, r2, r8, lsr r0
     154:	50425f49 	subpl	r5, r2, r9, asr #30
     158:	5f53554c 	svcpl	0x0053554c
     15c:	4f495047 	svcmi	0x00495047
     160:	5f384a5f 	svcpl	0x00384a5f
     164:	62003931 	andvs	r3, r0, #802816	; 0xc4000
     168:	38326d63 	ldmdacc	r2!, {r0, r1, r5, r6, r8, sl, fp, sp, lr}
     16c:	675f3533 	smmlarvs	pc, r3, r5, r3	; <UNPREDICTABLE>
     170:	5f6f6970 	svcpl	0x006f6970
     174:	006e6566 	rsbeq	r6, lr, r6, ror #10
     178:	326d6362 	rsbcc	r6, sp, #-2013265919	; 0x88000001
     17c:	5f353338 	svcpl	0x00353338
     180:	6f697067 	svcvs	0x00697067
     184:	7465735f 	strbtvc	r7, [r5], #-863	; 0xfffffca1
     188:	6461705f 	strbtvs	r7, [r1], #-95	; 0xffffffa1
     18c:	6f6c5f00 	svcvs	0x006c5f00
     190:	62006b63 	andvs	r6, r0, #101376	; 0x18c00
     194:	38326d63 	ldmdacc	r2!, {r0, r1, r5, r6, r8, sl, fp, sp, lr}
     198:	705f3533 	subsvc	r3, pc, r3, lsr r5	; <UNPREDICTABLE>
     19c:	70697265 	rsbvc	r7, r9, r5, ror #4
     1a0:	61726568 	cmnvs	r2, r8, ror #10
     1a4:	735f736c 	cmpvc	pc, #108, 6	; 0xb0000001
     1a8:	00657a69 	rsbeq	r7, r5, r9, ror #20
     1ac:	326d6362 	rsbcc	r6, sp, #-2013265919	; 0x88000001
     1b0:	5f353338 	svcpl	0x00353338
     1b4:	5f697073 	svcpl	0x00697073
     1b8:	6e617274 	mcrvs	2, 3, r7, cr1, cr4, {3}
     1bc:	72656673 	rsbvc	r6, r5, #120586240	; 0x7300000
     1c0:	74656700 	strbtvc	r6, [r5], #-1792	; 0xfffff900
     1c4:	64697565 	strbtvs	r7, [r9], #-1381	; 0xfffffa9b
     1c8:	6d636200 	sfmvs	f6, 2, [r3, #-0]
     1cc:	35333832 	ldrcc	r3, [r3, #-2098]!	; 0xfffff7ce
     1d0:	7265705f 	rsbvc	r7, r5, #95	; 0x5f
     1d4:	65735f69 	ldrbvs	r5, [r3, #-3945]!	; 0xfffff097
     1d8:	69625f74 	stmdbvs	r2!, {r2, r4, r5, r6, r8, r9, sl, fp, ip, lr}^
     1dc:	73007374 	movwvc	r7, #884	; 0x374
     1e0:	00746174 	rsbseq	r6, r4, r4, ror r1
     1e4:	5f4f495f 	svcpl	0x004f495f
     1e8:	65766173 	ldrbvs	r6, [r6, #-371]!	; 0xfffffe8d
     1ec:	7361625f 	cmnvc	r1, #-268435451	; 0xf0000005
     1f0:	50520065 	subspl	r0, r2, r5, rrx
     1f4:	50425f49 	subpl	r5, r2, r9, asr #30
     1f8:	5f53554c 	svcpl	0x0053554c
     1fc:	4f495047 	svcmi	0x00495047
     200:	5f384a5f 	svcpl	0x00384a5f
     204:	52003132 	andpl	r3, r0, #-2147483636	; 0x8000000c
     208:	425f4950 	subsmi	r4, pc, #80, 18	; 0x140000
     20c:	53554c50 	cmppl	r5, #80, 24	; 0x5000
     210:	4950475f 	ldmdbmi	r0, {r0, r1, r2, r3, r4, r6, r8, r9, sl, lr}^
     214:	384a5f4f 	stmdacc	sl, {r0, r1, r2, r3, r6, r8, r9, sl, fp, ip, lr}^
     218:	0032325f 	eorseq	r3, r2, pc, asr r2
     21c:	5f495052 	svcpl	0x00495052
     220:	554c5042 	strbpl	r5, [ip, #-66]	; 0xffffffbe
     224:	50475f53 	subpl	r5, r7, r3, asr pc
     228:	4a5f4f49 	bmi	17d3f54 <__bss_end__+0x17afe88>
     22c:	33325f38 	teqcc	r2, #56, 30	; 0xe0
     230:	49505200 	ldmdbmi	r0, {r9, ip, lr}^
     234:	4c50425f 	lfmmi	f4, 2, [r0], {95}	; 0x5f
     238:	475f5355 			; <UNDEFINED> instruction: 0x475f5355
     23c:	5f4f4950 	svcpl	0x004f4950
     240:	325f384a 	subscc	r3, pc, #4849664	; 0x4a0000
     244:	50520034 	subspl	r0, r2, r4, lsr r0
     248:	50425f49 	subpl	r5, r2, r9, asr #30
     24c:	5f53554c 	svcpl	0x0053554c
     250:	4f495047 	svcmi	0x00495047
     254:	5f384a5f 	svcpl	0x00384a5f
     258:	52003632 	andpl	r3, r0, #52428800	; 0x3200000
     25c:	425f4950 	subsmi	r4, pc, #80, 18	; 0x140000
     260:	53554c50 	cmppl	r5, #80, 24	; 0x5000
     264:	4950475f 	ldmdbmi	r0, {r0, r1, r2, r3, r4, r6, r8, r9, sl, lr}^
     268:	384a5f4f 	stmdacc	sl, {r0, r1, r2, r3, r6, r8, r9, sl, fp, ip, lr}^
     26c:	0039325f 	eorseq	r3, r9, pc, asr r2
     270:	6168635f 	cmnvs	r8, pc, asr r3
     274:	62006e69 	andvs	r6, r0, #1680	; 0x690
     278:	38326d63 	ldmdacc	r2!, {r0, r1, r5, r6, r8, sl, fp, sp, lr}
     27c:	635f3533 	cmpvs	pc, #213909504	; 0xcc00000
     280:	65736f6c 	ldrbvs	r6, [r3, #-3948]!	; 0xfffff094
     284:	6d636200 	sfmvs	f6, 2, [r3, #-0]
     288:	35333832 	ldrcc	r3, [r3, #-2098]!	; 0xfffff7ce
     28c:	7465735f 	strbtvc	r7, [r5], #-863	; 0xfffffca1
     290:	6265645f 	rsbvs	r6, r5, #1593835520	; 0x5f000000
     294:	5f006775 	svcpl	0x00006775
     298:	5f727563 	svcpl	0x00727563
     29c:	756c6f63 	strbvc	r6, [ip, #-3939]!	; 0xfffff09d
     2a0:	62006e6d 	andvs	r6, r0, #1744	; 0x6d0
     2a4:	38326d63 	ldmdacc	r2!, {r0, r1, r5, r6, r8, sl, fp, sp, lr}
     2a8:	615f3533 	cmpvs	pc, r3, lsr r5	; <UNPREDICTABLE>
     2ac:	735f7875 	cmpvc	pc, #7667712	; 0x750000
     2b0:	655f6970 	ldrbvs	r6, [pc, #-2416]	; fffff948 <__bss_end__+0xfffdb87c>
     2b4:	6200646e 	andvs	r6, r0, #1845493760	; 0x6e000000
     2b8:	38326d63 	ldmdacc	r2!, {r0, r1, r5, r6, r8, sl, fp, sp, lr}
     2bc:	615f3533 	cmpvs	pc, r3, lsr r5	; <UNPREDICTABLE>
     2c0:	735f7875 	cmpvc	pc, #7667712	; 0x750000
     2c4:	735f6970 	cmpvc	pc, #112, 18	; 0x1c0000
     2c8:	6c437465 	cfstrdvs	mvd7, [r3], {101}	; 0x65
     2cc:	446b636f 	strbtmi	r6, [fp], #-879	; 0xfffffc91
     2d0:	64697669 	strbtvs	r7, [r9], #-1641	; 0xfffff997
     2d4:	5f007265 	svcpl	0x00007265
     2d8:	6972705f 	ldmdbvs	r2!, {r0, r1, r2, r3, r4, r6, ip, sp, lr}^
     2dc:	5f66746e 	svcpl	0x0066746e
     2e0:	006b6863 	rsbeq	r6, fp, r3, ror #16
     2e4:	326d6362 	rsbcc	r6, sp, #-2013265919	; 0x88000001
     2e8:	5f353338 	svcpl	0x00353338
     2ec:	5f633269 	svcpl	0x00633269
     2f0:	64616572 	strbtvs	r6, [r1], #-1394	; 0xfffffa8e
     2f4:	6765725f 			; <UNDEFINED> instruction: 0x6765725f
     2f8:	65747369 	ldrbvs	r7, [r4, #-873]!	; 0xfffffc97
     2fc:	73725f72 	cmnvc	r2, #456	; 0x1c8
     300:	705f5f00 	subsvc	r5, pc, r0, lsl #30
     304:	00687461 	rsbeq	r7, r8, r1, ror #8
     308:	5f495052 	svcpl	0x00495052
     30c:	554c5042 	strbpl	r5, [ip, #-66]	; 0xffffffbe
     310:	50475f53 	subpl	r5, r7, r3, asr pc
     314:	4a5f4f49 	bmi	17d4040 <__bss_end__+0x17aff74>
     318:	31335f38 	teqcc	r3, r8, lsr pc
     31c:	49505200 	ldmdbmi	r0, {r9, ip, lr}^
     320:	4c50425f 	lfmmi	f4, 2, [r0], {95}	; 0x5f
     324:	475f5355 			; <UNDEFINED> instruction: 0x475f5355
     328:	5f4f4950 	svcpl	0x004f4950
     32c:	335f384a 	cmpcc	pc, #4849664	; 0x4a0000
     330:	50520032 	subspl	r0, r2, r2, lsr r0
     334:	50425f49 	subpl	r5, r2, r9, asr #30
     338:	5f53554c 	svcpl	0x0053554c
     33c:	4f495047 	svcmi	0x00495047
     340:	5f384a5f 	svcpl	0x00384a5f
     344:	52003333 	andpl	r3, r0, #-872415232	; 0xcc000000
     348:	425f4950 	subsmi	r4, pc, #80, 18	; 0x140000
     34c:	53554c50 	cmppl	r5, #80, 24	; 0x5000
     350:	4950475f 	ldmdbmi	r0, {r0, r1, r2, r3, r4, r6, r8, r9, sl, lr}^
     354:	384a5f4f 	stmdacc	sl, {r0, r1, r2, r3, r6, r8, r9, sl, fp, ip, lr}^
     358:	0035335f 	eorseq	r3, r5, pc, asr r3
     35c:	5f495052 	svcpl	0x00495052
     360:	554c5042 	strbpl	r5, [ip, #-66]	; 0xffffffbe
     364:	50475f53 	subpl	r5, r7, r3, asr pc
     368:	4a5f4f49 	bmi	17d4094 <__bss_end__+0x17affc8>
     36c:	36335f38 	shasxcc	r5, r3, r8
     370:	49505200 	ldmdbmi	r0, {r9, ip, lr}^
     374:	4c50425f 	lfmmi	f4, 2, [r0], {95}	; 0x5f
     378:	475f5355 			; <UNDEFINED> instruction: 0x475f5355
     37c:	5f4f4950 	svcpl	0x004f4950
     380:	335f384a 	cmpcc	pc, #4849664	; 0x4a0000
     384:	50520037 	subspl	r0, r2, r7, lsr r0
     388:	50425f49 	subpl	r5, r2, r9, asr #30
     38c:	5f53554c 	svcpl	0x0053554c
     390:	4f495047 	svcmi	0x00495047
     394:	5f384a5f 	svcpl	0x00384a5f
     398:	62003833 	andvs	r3, r0, #3342336	; 0x330000
     39c:	38326d63 	ldmdacc	r2!, {r0, r1, r5, r6, r8, sl, fp, sp, lr}
     3a0:	695f3533 	ldmdbvs	pc, {r0, r1, r4, r5, r8, sl, ip, sp}^	; <UNPREDICTABLE>
     3a4:	0074696e 	rsbseq	r6, r4, lr, ror #18
     3a8:	72665f5f 	rsbvc	r5, r6, #380	; 0x17c
     3ac:	5f646165 	svcpl	0x00646165
     3b0:	61696c61 	cmnvs	r9, r1, ror #24
     3b4:	6d630073 	stclvs	0, cr0, [r3, #-460]!	; 0xfffffe34
     3b8:	6c5f7364 	mrrcvs	3, 6, r7, pc, cr4	; <UNPREDICTABLE>
     3bc:	62006e65 	andvs	r6, r0, #1616	; 0x650
     3c0:	38326d63 	ldmdacc	r2!, {r0, r1, r5, r6, r8, sl, fp, sp, lr}
     3c4:	675f3533 	smmlarvs	pc, r3, r5, r3	; <UNPREDICTABLE>
     3c8:	5f6f6970 	svcpl	0x006f6970
     3cc:	74697277 	strbtvc	r7, [r9], #-631	; 0xfffffd89
     3d0:	756d5f65 	strbvc	r5, [sp, #-3941]!	; 0xfffff09b
     3d4:	0069746c 	rsbeq	r7, r9, ip, ror #8
     3d8:	326d6362 	rsbcc	r6, sp, #-2013265919	; 0x88000001
     3dc:	5f353338 	svcpl	0x00353338
     3e0:	5f6d7770 	svcpl	0x006d7770
     3e4:	5f746573 	svcpl	0x00746573
     3e8:	61746164 	cmnvs	r4, r4, ror #2
     3ec:	66696600 	strbtvs	r6, [r9], -r0, lsl #12
     3f0:	4342006f 	movtmi	r0, #8303	; 0x206f
     3f4:	3338324d 	teqcc	r8, #-805306364	; 0xd0000004
     3f8:	50475f35 	subpl	r5, r7, r5, lsr pc
     3fc:	505f4f49 	subspl	r4, pc, r9, asr #30
     400:	4f5f4455 	svcmi	0x005f4455
     404:	42004646 	andmi	r4, r0, #73400320	; 0x4600000
     408:	38324d43 	ldmdacc	r2!, {r0, r1, r6, r8, sl, fp, lr}
     40c:	525f3533 	subspl	r3, pc, #213909504	; 0xcc00000
     410:	41424745 	cmpmi	r2, r5, asr #14
     414:	425f4553 	subsmi	r4, pc, #348127232	; 0x14c00000
     418:	00304353 	eorseq	r4, r0, r3, asr r3
     41c:	324d4342 	subcc	r4, sp, #134217729	; 0x8000001
     420:	5f353338 	svcpl	0x00353338
     424:	42474552 	submi	r4, r7, #343932928	; 0x14800000
     428:	5f455341 	svcpl	0x00455341
     42c:	31435342 	cmpcc	r3, r2, asr #6
     430:	6e616e00 	cdpvs	14, 6, cr6, cr1, cr0, {0}
     434:	656c736f 	strbvs	r7, [ip, #-879]!	; 0xfffffc91
     438:	62007065 	andvs	r7, r0, #101	; 0x65
     43c:	38326d63 	ldmdacc	r2!, {r0, r1, r5, r6, r8, sl, fp, sp, lr}
     440:	675f3533 	smmlarvs	pc, r3, r5, r3	; <UNPREDICTABLE>
     444:	5f6f6970 	svcpl	0x006f6970
     448:	6e657261 	cdpvs	2, 6, cr7, cr5, cr1, {3}
     44c:	49505200 	ldmdbmi	r0, {r9, ip, lr}^
     450:	4c50425f 	lfmmi	f4, 2, [r0], {95}	; 0x5f
     454:	475f5355 			; <UNDEFINED> instruction: 0x475f5355
     458:	5f4f4950 	svcpl	0x004f4950
     45c:	345f384a 	ldrbcc	r3, [pc], #-2122	; 464 <_init-0x10378>
     460:	495f0030 	ldmdbmi	pc, {r4, r5}^	; <UNPREDICTABLE>
     464:	616d5f4f 	cmnvs	sp, pc, asr #30
     468:	72656b72 	rsbvc	r6, r5, #116736	; 0x1c800
     46c:	4d434200 	sfmmi	f4, 2, [r3, #-0]
     470:	35333832 	ldrcc	r3, [r3, #-2098]!	; 0xfffff7ce
     474:	4950475f 	ldmdbmi	r0, {r0, r1, r2, r3, r4, r6, r8, r9, sl, lr}^
     478:	53465f4f 	movtpl	r5, #28495	; 0x6f4f
     47c:	495f4c45 	ldmdbmi	pc, {r0, r2, r6, sl, fp, lr}^	; <UNPREDICTABLE>
     480:	0054504e 	subseq	r5, r4, lr, asr #32
     484:	66696873 			; <UNDEFINED> instruction: 0x66696873
     488:	63620074 	cmnvs	r2, #116	; 0x74
     48c:	3338326d 	teqcc	r8, #-805306362	; 0xd0000006
     490:	73625f35 	cmnvc	r2, #53, 30	; 0xd4
     494:	54003063 	strpl	r3, [r0], #-99	; 0xffffff9d
     498:	746e4358 	strbtvc	r4, [lr], #-856	; 0xfffffca8
     49c:	6d636200 	sfmvs	f6, 2, [r3, #-0]
     4a0:	35333832 	ldrcc	r3, [r3, #-2098]!	; 0xfffff7ce
     4a4:	6970675f 	ldmdbvs	r0!, {r0, r1, r2, r3, r4, r6, r8, r9, sl, sp, lr}^
     4a8:	65735f6f 	ldrbvs	r5, [r3, #-3951]!	; 0xfffff091
     4ac:	64655f74 	strbtvs	r5, [r5], #-3956	; 0xfffff08c
     4b0:	756d5f73 	strbvc	r5, [sp, #-3955]!	; 0xfffff08d
     4b4:	0069746c 	rsbeq	r7, r9, ip, ror #8
     4b8:	326d6362 	rsbcc	r6, sp, #-2013265919	; 0x88000001
     4bc:	5f353338 	svcpl	0x00353338
     4c0:	73646170 	cmnvc	r4, #112, 2
     4c4:	72747300 	rsbsvc	r7, r4, #0, 6
     4c8:	6f727265 	svcvs	0x00727265
     4cc:	63620072 	cmnvs	r2, #114	; 0x72
     4d0:	3338326d 	teqcc	r8, #-805306362	; 0xd0000006
     4d4:	70675f35 	rsbvc	r5, r7, r5, lsr pc
     4d8:	725f6f69 	subsvc	r6, pc, #420	; 0x1a4
     4dc:	42006e65 	andmi	r6, r0, #1616	; 0x650
     4e0:	38324d43 	ldmdacc	r2!, {r0, r1, r6, r8, sl, fp, lr}
     4e4:	475f3533 	smmlarmi	pc, r3, r5, r3	; <UNPREDICTABLE>
     4e8:	5f4f4950 	svcpl	0x004f4950
     4ec:	5f445550 	svcpl	0x00445550
     4f0:	75005055 	strvc	r5, [r0, #-85]	; 0xffffffab
     4f4:	38746e69 	ldmdacc	r4!, {r0, r3, r5, r6, r9, sl, fp, sp, lr}^
     4f8:	5f00745f 	svcpl	0x0000745f
     4fc:	465f4f49 	ldrbmi	r4, [pc], -r9, asr #30
     500:	00454c49 	subeq	r4, r5, r9, asr #24
     504:	69736e75 	ldmdbvs	r3!, {r0, r2, r4, r5, r6, r9, sl, fp, sp, lr}^
     508:	64656e67 	strbtvs	r6, [r5], #-3687	; 0xfffff199
     50c:	61686320 	cmnvs	r8, r0, lsr #6
     510:	63620072 	cmnvs	r2, #114	; 0x72
     514:	3338326d 	teqcc	r8, #-805306362	; 0xd0000006
     518:	75615f35 	strbvc	r5, [r1, #-3893]!	; 0xfffff0cb
     51c:	70735f78 	rsbsvc	r5, r3, r8, ror pc
     520:	72745f69 	rsbsvc	r5, r4, #420	; 0x1a4
     524:	66736e61 	ldrbtvs	r6, [r3], -r1, ror #28
     528:	006e7265 	rsbeq	r7, lr, r5, ror #4
     52c:	324d4342 	subcc	r4, sp, #134217729	; 0x8000001
     530:	5f353338 	svcpl	0x00353338
     534:	5f495053 	svcpl	0x00495053
     538:	5f544942 	svcpl	0x00544942
     53c:	4544524f 	strbmi	r5, [r4, #-591]	; 0xfffffdb1
     540:	534c5f52 	movtpl	r5, #53074	; 0xcf52
     544:	52494642 	subpl	r4, r9, #69206016	; 0x4200000
     548:	62005453 	andvs	r5, r0, #1392508928	; 0x53000000
     54c:	38326d63 	ldmdacc	r2!, {r0, r1, r5, r6, r8, sl, fp, sp, lr}
     550:	645f3533 	ldrbvs	r3, [pc], #-1331	; 558 <_init-0x10284>
     554:	79616c65 	stmdbvc	r1!, {r0, r2, r5, r6, sl, fp, sp, lr}^
     558:	6c636600 	stclvs	6, cr6, [r3], #-0
     55c:	0065736f 	rsbeq	r7, r5, pc, ror #6
     560:	326d6362 	rsbcc	r6, sp, #-2013265919	; 0x88000001
     564:	5f353338 	svcpl	0x00353338
     568:	645f7473 	ldrbvs	r7, [pc], #-1139	; 570 <_init-0x1026c>
     56c:	79616c65 	stmdbvc	r1!, {r0, r2, r5, r6, sl, fp, sp, lr}^
     570:	735f5f00 	cmpvc	pc, #0, 30
     574:	61637379 	smcvs	14137	; 0x3739
     578:	735f6c6c 	cmpvc	pc, #108, 24	; 0x6c00
     57c:	676e6f6c 	strbvs	r6, [lr, -ip, ror #30]!
     580:	7600745f 			; <UNDEFINED> instruction: 0x7600745f
     584:	65756c61 	ldrbvs	r6, [r5, #-3169]!	; 0xfffff39f
     588:	6d636200 	sfmvs	f6, 2, [r3, #-0]
     58c:	35333832 	ldrcc	r3, [r3, #-2098]!	; 0xfffff7ce
     590:	6970675f 	ldmdbvs	r0!, {r0, r1, r2, r3, r4, r6, r8, r9, sl, sp, lr}^
     594:	72775f6f 	rsbsvc	r5, r7, #444	; 0x1bc
     598:	00657469 	rsbeq	r7, r5, r9, ror #8
     59c:	326d6362 	rsbcc	r6, sp, #-2013265919	; 0x88000001
     5a0:	5f353338 	svcpl	0x00353338
     5a4:	5f633269 	svcpl	0x00633269
     5a8:	69676562 	stmdbvs	r7!, {r1, r5, r6, r8, sl, sp, lr}^
     5ac:	6362006e 	cmnvs	r2, #110	; 0x6e
     5b0:	3338326d 	teqcc	r8, #-805306362	; 0xd0000006
     5b4:	75615f35 	strbvc	r5, [r1, #-3893]!	; 0xfffff0cb
     5b8:	70735f78 	rsbsvc	r5, r3, r8, ror pc
     5bc:	61435f69 	cmpvs	r3, r9, ror #30
     5c0:	6c43636c 	mcrrvs	3, 6, r6, r3, cr12
     5c4:	446b636f 	strbtmi	r6, [fp], #-879	; 0xfffffc91
     5c8:	64697669 	strbtvs	r7, [r9], #-1641	; 0xfffff997
     5cc:	74007265 	strvc	r7, [r0], #-613	; 0xfffffd9b
     5d0:	656c5f78 	strbvs	r5, [ip, #-3960]!	; 0xfffff088
     5d4:	5f5f006e 	svcpl	0x005f006e
     5d8:	00727470 	rsbseq	r7, r2, r0, ror r4
     5dc:	616d6572 	smcvs	54866	; 0xd652
     5e0:	6e696e69 	cdpvs	14, 6, cr6, cr9, cr9, {3}
     5e4:	43420067 	movtmi	r0, #8295	; 0x2067
     5e8:	3338324d 	teqcc	r8, #-805306364	; 0xd0000004
     5ec:	32495f35 	subcc	r5, r9, #53, 30	; 0xd4
     5f0:	45525f43 	ldrbmi	r5, [r2, #-3907]	; 0xfffff0bd
     5f4:	4e4f5341 	cdpmi	3, 4, cr5, cr15, cr1, {2}
     5f8:	5252455f 	subspl	r4, r2, #398458880	; 0x17c00000
     5fc:	445f524f 	ldrbmi	r5, [pc], #-591	; 604 <_init-0x101d8>
     600:	00415441 	subeq	r5, r1, r1, asr #8
     604:	326d6362 	rsbcc	r6, sp, #-2013265919	; 0x88000001
     608:	5f353338 	svcpl	0x00353338
     60c:	6f697067 	svcvs	0x00697067
     610:	6e656c5f 	mcrvs	12, 3, r6, cr5, cr15, {2}
     614:	6d636200 	sfmvs	f6, 2, [r3, #-0]
     618:	35333832 	ldrcc	r3, [r3, #-2098]!	; 0xfffff7ce
     61c:	6332695f 	teqvs	r2, #1556480	; 0x17c000
     620:	6972775f 	ldmdbvs	r2!, {r0, r1, r2, r3, r4, r6, r8, r9, sl, ip, sp, lr}^
     624:	725f6574 	subsvc	r6, pc, #116, 10	; 0x1d000000
     628:	5f646165 	svcpl	0x00646165
     62c:	62007372 	andvs	r7, r0, #-939524095	; 0xc8000001
     630:	38326d63 	ldmdacc	r2!, {r0, r1, r5, r6, r8, sl, fp, sp, lr}
     634:	675f3533 	smmlarvs	pc, r3, r5, r3	; <UNPREDICTABLE>
     638:	5f6f6970 	svcpl	0x006f6970
     63c:	0076656c 	rsbseq	r6, r6, ip, ror #10
     640:	5f4f495f 	svcpl	0x004f495f
     644:	6b636f6c 	blvs	18dc3fc <__bss_end__+0x18b8330>
     648:	4200745f 	andmi	r7, r0, #1593835520	; 0x5f000000
     64c:	38324d43 	ldmdacc	r2!, {r0, r1, r6, r8, sl, fp, lr}
     650:	525f3533 	subspl	r3, pc, #213909504	; 0xcc00000
     654:	41424745 	cmpmi	r2, r5, asr #14
     658:	475f4553 			; <UNDEFINED> instruction: 0x475f4553
     65c:	004f4950 	subeq	r4, pc, r0, asr r9	; <UNPREDICTABLE>
     660:	72655f5f 	rsbvc	r5, r5, #380	; 0x17c
     664:	5f6f6e72 	svcpl	0x006f6e72
     668:	61636f6c 	cmnvs	r3, ip, ror #30
     66c:	6e6f6974 	mcrvs	9, 3, r6, cr15, cr4, {3}
     670:	76696400 	strbtvc	r6, [r9], -r0, lsl #8
     674:	72656469 	rsbvc	r6, r5, #1761607680	; 0x69000000
     678:	6d636200 	sfmvs	f6, 2, [r3, #-0]
     67c:	35333832 	ldrcc	r3, [r3, #-2098]!	; 0xfffff7ce
     680:	7265705f 	rsbvc	r7, r5, #95	; 0x5f
     684:	65687069 	strbvs	r7, [r8, #-105]!	; 0xffffff97
     688:	736c6172 	cmnvc	ip, #-2147483620	; 0x8000001c
     68c:	4f495f00 	svcmi	0x00495f00
     690:	6165725f 	cmnvs	r5, pc, asr r2
     694:	74705f64 	ldrbtvc	r5, [r0], #-3940	; 0xfffff09c
     698:	63620072 	cmnvs	r2, #114	; 0x72
     69c:	3338326d 	teqcc	r8, #-805306362	; 0xd0000006
     6a0:	70735f35 	rsbsvc	r5, r3, r5, lsr pc
     6a4:	68635f69 	stmdavs	r3!, {r0, r3, r5, r6, r8, r9, sl, fp, ip, lr}^
     6a8:	65537069 	ldrbvs	r7, [r3, #-105]	; 0xffffff97
     6ac:	7463656c 	strbtvc	r6, [r3], #-1388	; 0xfffffa94
     6b0:	6f705f00 	svcvs	0x00705f00
     6b4:	74730073 	ldrbtvc	r0, [r3], #-115	; 0xffffff8d
     6b8:	006e6964 	rsbeq	r6, lr, r4, ror #18
     6bc:	326d6362 	rsbcc	r6, sp, #-2013265919	; 0x88000001
     6c0:	5f353338 	svcpl	0x00353338
     6c4:	5f633269 	svcpl	0x00633269
     6c8:	53746573 	cmnpl	r4, #482344960	; 0x1cc00000
     6cc:	6576616c 	ldrbvs	r6, [r6, #-364]!	; 0xfffffe94
     6d0:	72646441 	rsbvc	r6, r4, #1090519040	; 0x41000000
     6d4:	00737365 	rsbseq	r7, r3, r5, ror #6
     6d8:	70616d6d 	rsbvc	r6, r1, sp, ror #26
     6dc:	6d636200 	sfmvs	f6, 2, [r3, #-0]
     6e0:	35333832 	ldrcc	r3, [r3, #-2098]!	; 0xfffff7ce
     6e4:	6970735f 	ldmdbvs	r0!, {r0, r1, r2, r3, r4, r6, r8, r9, ip, sp, lr}^
     6e8:	7469625f 	strbtvc	r6, [r9], #-607	; 0xfffffda1
     6ec:	64726f5f 	ldrbtvs	r6, [r2], #-3935	; 0xfffff0a1
     6f0:	42007265 	andmi	r7, r0, #1342177286	; 0x50000006
     6f4:	38324d43 	ldmdacc	r2!, {r0, r1, r6, r8, sl, fp, lr}
     6f8:	525f3533 	subspl	r3, pc, #213909504	; 0xcc00000
     6fc:	41424745 	cmpmi	r2, r5, asr #14
     700:	535f4553 	cmppl	pc, #348127232	; 0x14c00000
     704:	00304950 	eorseq	r4, r0, r0, asr r9
     708:	324d4342 	subcc	r4, sp, #134217729	; 0x8000001
     70c:	5f353338 	svcpl	0x00353338
     710:	42474552 	submi	r4, r7, #343932928	; 0x14800000
     714:	5f455341 	svcpl	0x00455341
     718:	31495053 	qdaddcc	r5, r3, r9
     71c:	6c696d00 	stclvs	13, cr6, [r9], #-0
     720:	0073696c 	rsbseq	r6, r3, ip, ror #18
     724:	72616d5f 	rsbvc	r6, r1, #6080	; 0x17c0
     728:	7372656b 	cmnvc	r2, #448790528	; 0x1ac00000
     72c:	64757000 	ldrbtvs	r7, [r5], #-0
     730:	7079745f 	rsbsvc	r7, r9, pc, asr r4
     734:	70725f65 	rsbsvc	r5, r2, r5, ror #30
     738:	63003469 	movwvs	r3, #1129	; 0x469
     73c:	61706d6f 	cmnvs	r0, pc, ror #26
     740:	62006572 	andvs	r6, r0, #478150656	; 0x1c800000
     744:	38326d63 	ldmdacc	r2!, {r0, r1, r5, r6, r8, sl, fp, sp, lr}
     748:	675f3533 	smmlarvs	pc, r3, r5, r3	; <UNPREDICTABLE>
     74c:	5f6f6970 	svcpl	0x006f6970
     750:	5f726c63 	svcpl	0x00726c63
     754:	006e6566 	rsbeq	r6, lr, r6, ror #10
     758:	326d6362 	rsbcc	r6, sp, #-2013265919	; 0x88000001
     75c:	5f353338 	svcpl	0x00353338
     760:	5f633269 	svcpl	0x00633269
     764:	43746573 	cmnmi	r4, #482344960	; 0x1cc00000
     768:	6b636f6c 	blvs	18dc520 <__bss_end__+0x18b8454>
     76c:	69766944 	ldmdbvs	r6!, {r2, r6, r8, fp, sp, lr}^
     770:	00726564 	rsbseq	r6, r2, r4, ror #10
     774:	326d6362 	rsbcc	r6, sp, #-2013265919	; 0x88000001
     778:	5f353338 	svcpl	0x00353338
     77c:	6f697067 	svcvs	0x00697067
     780:	726c635f 	rsbvc	r6, ip, #2080374785	; 0x7c000001
     784:	6572615f 	ldrbvs	r6, [r2, #-351]!	; 0xfffffea1
     788:	6d63006e 	stclvs	0, cr0, [r3, #-440]!	; 0xfffffe48
     78c:	52007364 	andpl	r7, r0, #100, 6	; 0x90000001
     790:	565f4950 			; <UNDEFINED> instruction: 0x565f4950
     794:	50475f32 	subpl	r5, r7, r2, lsr pc
     798:	505f4f49 	subspl	r4, pc, r9, asr #30
     79c:	36335f31 	shasxcc	r5, r3, r1
     7a0:	49505200 	ldmdbmi	r0, {r9, ip, lr}^
     7a4:	5f32565f 	svcpl	0x0032565f
     7a8:	4f495047 	svcmi	0x00495047
     7ac:	5f31505f 	svcpl	0x0031505f
     7b0:	62003833 	andvs	r3, r0, #3342336	; 0x330000
     7b4:	38326d63 	ldmdacc	r2!, {r0, r1, r5, r6, r8, sl, fp, sp, lr}
     7b8:	625f3533 	subsvs	r3, pc, #213909504	; 0xcc00000
     7bc:	00316373 	eorseq	r6, r1, r3, ror r3
     7c0:	326d6362 	rsbcc	r6, sp, #-2013265919	; 0x88000001
     7c4:	5f353338 	svcpl	0x00353338
     7c8:	616c6564 	cmnvs	ip, r4, ror #10
     7cc:	63694d79 	cmnvs	r9, #7744	; 0x1e40
     7d0:	65736f72 	ldrbvs	r6, [r3, #-3954]!	; 0xfffff08e
     7d4:	646e6f63 	strbtvs	r6, [lr], #-3939	; 0xfffff09d
     7d8:	63620073 	cmnvs	r2, #115	; 0x73
     7dc:	3338326d 	teqcc	r8, #-805306362	; 0xd0000006
     7e0:	70735f35 	rsbsvc	r5, r3, r5, lsr pc
     7e4:	65735f69 	ldrbvs	r5, [r3, #-3945]!	; 0xfffff097
     7e8:	74694274 	strbtvc	r4, [r9], #-628	; 0xfffffd8c
     7ec:	6564724f 	strbvs	r7, [r4, #-591]!	; 0xfffffdb1
     7f0:	6e650072 	mcrvs	0, 3, r0, cr5, cr2, {3}
     7f4:	656c6261 	strbvs	r6, [ip, #-609]!	; 0xfffffd9f
     7f8:	50520064 	subspl	r0, r2, r4, rrx
     7fc:	50425f49 	subpl	r5, r2, r9, asr #30
     800:	5f53554c 	svcpl	0x0053554c
     804:	4f495047 	svcmi	0x00495047
     808:	5f384a5f 	svcpl	0x00384a5f
     80c:	73003131 	movwvc	r3, #305	; 0x131
     810:	75746174 	ldrbvc	r6, [r4, #-372]!	; 0xfffffe8c
     814:	665f0073 			; <UNDEFINED> instruction: 0x665f0073
     818:	7367616c 	cmnvc	r7, #108, 2
     81c:	63620032 	cmnvs	r2, #50	; 0x32
     820:	3338326d 	teqcc	r8, #-805306362	; 0xd0000006
     824:	74735f35 	ldrbtvc	r5, [r3], #-3893	; 0xfffff0cb
     828:	6165725f 	cmnvs	r5, pc, asr r2
     82c:	68630064 	stmdavs	r3!, {r2, r5, r6}^
     830:	656e6e61 	strbvs	r6, [lr, #-3681]!	; 0xfffff19f
     834:	495f006c 	ldmdbmi	pc, {r2, r3, r5, r6}^	; <UNPREDICTABLE>
     838:	65725f4f 	ldrbvs	r5, [r2, #-3919]!	; 0xfffff0b1
     83c:	625f6461 	subsvs	r6, pc, #1627389952	; 0x61000000
     840:	00657361 	rsbeq	r7, r5, r1, ror #6
     844:	324d4342 	subcc	r4, sp, #134217729	; 0x8000001
     848:	5f353338 	svcpl	0x00353338
     84c:	5f433249 	svcpl	0x00433249
     850:	53414552 	movtpl	r4, #5458	; 0x1552
     854:	4f5f4e4f 	svcmi	0x005f4e4f
     858:	6362004b 	cmnvs	r2, #75	; 0x4b
     85c:	3338326d 	teqcc	r8, #-805306362	; 0xd0000006
     860:	77705f35 			; <UNDEFINED> instruction: 0x77705f35
     864:	6361006d 	cmnvs	r1, #109	; 0x6d
     868:	65766974 	ldrbvs	r6, [r6, #-2420]!	; 0xfffff68c
     86c:	6e755f00 	cdpvs	15, 7, cr5, cr5, cr0, {0}
     870:	64657375 	strbtvs	r7, [r5], #-885	; 0xfffffc8b
     874:	5f5f0032 	svcpl	0x005f0032
     878:	6e65706f 	cdpvs	0, 6, cr7, cr5, cr15, {3}
     87c:	696c615f 	stmdbvs	ip!, {r0, r1, r2, r3, r4, r6, r8, sp, lr}^
     880:	5f007361 	svcpl	0x00007361
     884:	6175715f 	cmnvs	r5, pc, asr r1
     888:	00745f64 	rsbseq	r5, r4, r4, ror #30
     88c:	326d6362 	rsbcc	r6, sp, #-2013265919	; 0x88000001
     890:	5f353338 	svcpl	0x00353338
     894:	70007473 	andvc	r7, r0, r3, ror r4
     898:	5f697265 	svcpl	0x00697265
     89c:	657a6973 	ldrbvs	r6, [sl, #-2419]!	; 0xfffff68d
     8a0:	735f5f00 	cmpvc	pc, #0, 30
     8a4:	00657a69 	rsbeq	r7, r5, r9, ror #20
     8a8:	5f633269 	svcpl	0x00633269
     8ac:	65747962 	ldrbvs	r7, [r4, #-2402]!	; 0xfffff69e
     8b0:	6961775f 	stmdbvs	r1!, {r0, r1, r2, r3, r4, r6, r8, r9, sl, ip, sp, lr}^
     8b4:	73755f74 	cmnvc	r5, #116, 30	; 0x1d0
     8b8:	665f5f00 	ldrbvs	r5, [pc], -r0, lsl #30
     8bc:	6e697270 	mcrvs	2, 3, r7, cr9, cr0, {3}
     8c0:	635f6674 	cmpvs	pc, #116, 12	; 0x7400000
     8c4:	67006b68 	strvs	r6, [r0, -r8, ror #22]
     8c8:	70756f72 	rsbsvc	r6, r5, r2, ror pc
     8cc:	6c6f5f00 	stclvs	15, cr5, [pc], #-0	; 8d4 <_init-0xff08>
     8d0:	666f5f64 	strbtvs	r5, [pc], -r4, ror #30
     8d4:	74657366 	strbtvc	r7, [r5], #-870	; 0xfffffc9a
     8d8:	6d636200 	sfmvs	f6, 2, [r3, #-0]
     8dc:	35333832 	ldrcc	r3, [r3, #-2098]!	; 0xfffff7ce
     8e0:	6970675f 	ldmdbvs	r0!, {r0, r1, r2, r3, r4, r6, r8, r9, sl, sp, lr}^
     8e4:	65685f6f 	strbvs	r5, [r8, #-3951]!	; 0xfffff091
     8e8:	5852006e 	ldmdapl	r2, {r1, r2, r3, r5, r6}^
     8ec:	00746e43 	rsbseq	r6, r4, r3, asr #28
     8f0:	6b72616d 	blvs	1c98eac <__bss_end__+0x1c74de0>
     8f4:	63617073 	cmnvs	r1, #115	; 0x73
     8f8:	5f5f0065 	svcpl	0x005f0065
     8fc:	63617473 	cmnvs	r1, #1929379840	; 0x73000000
     900:	68635f6b 	stmdavs	r3!, {r0, r1, r3, r5, r6, r8, r9, sl, fp, ip, lr}^
     904:	61665f6b 	cmnvs	r6, fp, ror #30
     908:	6c006c69 	stcvs	12, cr6, [r0], {105}	; 0x69
     90c:	20676e6f 	rsbcs	r6, r7, pc, ror #28
     910:	676e6f6c 	strbvs	r6, [lr, -ip, ror #30]!
     914:	746e6920 	strbtvc	r6, [lr], #-2336	; 0xfffff6e0
     918:	5f787200 	svcpl	0x00787200
     91c:	006e656c 	rsbeq	r6, lr, ip, ror #10
     920:	62616e65 	rsbvs	r6, r1, #1616	; 0x650
     924:	6200656c 	andvs	r6, r0, #108, 10	; 0x1b000000
     928:	5f657361 	svcpl	0x00657361
     92c:	72646461 	rsbvc	r6, r4, #1627389952	; 0x61000000
     930:	00737365 	rsbseq	r7, r3, r5, ror #6
     934:	5f495052 	svcpl	0x00495052
     938:	4f495047 	svcmi	0x00495047
     93c:	5f31505f 	svcpl	0x0031505f
     940:	52003330 	andpl	r3, r0, #48, 6	; 0xc0000000
     944:	475f4950 			; <UNDEFINED> instruction: 0x475f4950
     948:	5f4f4950 	svcpl	0x004f4950
     94c:	305f3150 	subscc	r3, pc, r0, asr r1	; <UNPREDICTABLE>
     950:	50520035 	subspl	r0, r2, r5, lsr r0
     954:	50475f49 	subpl	r5, r7, r9, asr #30
     958:	505f4f49 	subspl	r4, pc, r9, asr #30
     95c:	37305f31 			; <UNDEFINED> instruction: 0x37305f31
     960:	49505200 	ldmdbmi	r0, {r9, ip, lr}^
     964:	4950475f 	ldmdbmi	r0, {r0, r1, r2, r3, r4, r6, r8, r9, sl, lr}^
     968:	31505f4f 	cmpcc	r0, pc, asr #30
     96c:	0038305f 	eorseq	r3, r8, pc, asr r0
     970:	5f4f495f 	svcpl	0x004f495f
     974:	74697277 	strbtvc	r7, [r9], #-631	; 0xfffffd89
     978:	6e655f65 	cdpvs	15, 6, cr5, cr5, cr5, {3}
     97c:	63620064 	cmnvs	r2, #100	; 0x64
     980:	3338326d 	teqcc	r8, #-805306362	; 0xd0000006
     984:	70675f35 	rsbvc	r5, r7, r5, lsr pc
     988:	63006f69 	movwvs	r6, #3945	; 0xf69
     98c:	72746e6f 	rsbsvc	r6, r4, #1776	; 0x6f0
     990:	52006c6f 	andpl	r6, r0, #28416	; 0x6f00
     994:	475f4950 			; <UNDEFINED> instruction: 0x475f4950
     998:	5f4f4950 	svcpl	0x004f4950
     99c:	315f3150 	cmpcc	pc, r0, asr r1	; <UNPREDICTABLE>
     9a0:	50520030 	subspl	r0, r2, r0, lsr r0
     9a4:	50475f49 	subpl	r5, r7, r9, asr #30
     9a8:	505f4f49 	subspl	r4, pc, r9, asr #30
     9ac:	31315f31 	teqcc	r1, r1, lsr pc
     9b0:	49505200 	ldmdbmi	r0, {r9, ip, lr}^
     9b4:	4950475f 	ldmdbmi	r0, {r0, r1, r2, r3, r4, r6, r8, r9, sl, lr}^
     9b8:	31505f4f 	cmpcc	r0, pc, asr #30
     9bc:	0032315f 	eorseq	r3, r2, pc, asr r1
     9c0:	5f495052 	svcpl	0x00495052
     9c4:	4f495047 	svcmi	0x00495047
     9c8:	5f31505f 	svcpl	0x0031505f
     9cc:	52003331 	andpl	r3, r0, #-1006632960	; 0xc4000000
     9d0:	475f4950 			; <UNDEFINED> instruction: 0x475f4950
     9d4:	5f4f4950 	svcpl	0x004f4950
     9d8:	315f3150 	cmpcc	pc, r0, asr r1	; <UNPREDICTABLE>
     9dc:	50520035 	subspl	r0, r2, r5, lsr r0
     9e0:	50475f49 	subpl	r5, r7, r9, asr #30
     9e4:	505f4f49 	subspl	r4, pc, r9, asr #30
     9e8:	36315f31 	shasxcc	r5, r1, r1
     9ec:	49505200 	ldmdbmi	r0, {r9, ip, lr}^
     9f0:	4950475f 	ldmdbmi	r0, {r0, r1, r2, r3, r4, r6, r8, r9, sl, lr}^
     9f4:	31505f4f 	cmpcc	r0, pc, asr #30
     9f8:	0038315f 	eorseq	r3, r8, pc, asr r1
     9fc:	5f495052 	svcpl	0x00495052
     a00:	4f495047 	svcmi	0x00495047
     a04:	5f31505f 	svcpl	0x0031505f
     a08:	63003931 	movwvs	r3, #2353	; 0x931
     a0c:	746e756f 	strbtvc	r7, [lr], #-1391	; 0xfffffa91
     a10:	6d636200 	sfmvs	f6, 2, [r3, #-0]
     a14:	35333832 	ldrcc	r3, [r3, #-2098]!	; 0xfffff7ce
     a18:	6970675f 	ldmdbvs	r0!, {r0, r1, r2, r3, r4, r6, r8, r9, sl, sp, lr}^
     a1c:	6c635f6f 	stclvs	15, cr5, [r3], #-444	; 0xfffffe44
     a20:	656c5f72 	strbvs	r5, [ip, #-3954]!	; 0xfffff08e
     a24:	6362006e 	cmnvs	r2, #110	; 0x6e
     a28:	3338326d 	teqcc	r8, #-805306362	; 0xd0000006
     a2c:	70675f35 	rsbvc	r5, r7, r5, lsr pc
     a30:	775f6f69 	ldrbvc	r6, [pc, -r9, ror #30]
     a34:	65746972 	ldrbvs	r6, [r4, #-2418]!	; 0xfffff68e
     a38:	73616d5f 	cmnvc	r1, #6080	; 0x17c0
     a3c:	495f006b 	ldmdbmi	pc, {r0, r1, r3, r5, r6}^	; <UNPREDICTABLE>
     a40:	75625f4f 	strbvc	r5, [r2, #-3919]!	; 0xfffff0b1
     a44:	61625f66 	cmnvs	r2, r6, ror #30
     a48:	62006573 	andvs	r6, r0, #482344960	; 0x1cc00000
     a4c:	38326d63 	ldmdacc	r2!, {r0, r1, r5, r6, r8, sl, fp, sp, lr}
     a50:	735f3533 	cmpvc	pc, #213909504	; 0xcc00000
     a54:	00306970 	eorseq	r6, r0, r0, ror r9
     a58:	326d6362 	rsbcc	r6, sp, #-2013265919	; 0x88000001
     a5c:	5f353338 	svcpl	0x00353338
     a60:	31697073 	smccc	38659	; 0x9703
     a64:	6d636200 	sfmvs	f6, 2, [r3, #-0]
     a68:	35333832 	ldrcc	r3, [r3, #-2098]!	; 0xfffff7ce
     a6c:	726f635f 	rsbvc	r6, pc, #2080374785	; 0x7c000001
     a70:	74636572 	strbtvc	r6, [r3], #-1394	; 0xfffffa8e
     a74:	64726f5f 	ldrbtvs	r6, [r2], #-3935	; 0xfffff0a1
     a78:	52007265 	andpl	r7, r0, #1342177286	; 0x50000006
     a7c:	475f4950 			; <UNDEFINED> instruction: 0x475f4950
     a80:	5f4f4950 	svcpl	0x004f4950
     a84:	325f3150 	subscc	r3, pc, #80, 2
     a88:	50520031 	subspl	r0, r2, r1, lsr r0
     a8c:	50475f49 	subpl	r5, r7, r9, asr #30
     a90:	505f4f49 	subspl	r4, pc, r9, asr #30
     a94:	32325f31 	eorscc	r5, r2, #49, 30	; 0xc4
     a98:	49505200 	ldmdbmi	r0, {r9, ip, lr}^
     a9c:	4950475f 	ldmdbmi	r0, {r0, r1, r2, r3, r4, r6, r8, r9, sl, lr}^
     aa0:	31505f4f 	cmpcc	r0, pc, asr #30
     aa4:	0033325f 	eorseq	r3, r3, pc, asr r2
     aa8:	5f495052 	svcpl	0x00495052
     aac:	4f495047 	svcmi	0x00495047
     ab0:	5f31505f 	svcpl	0x0031505f
     ab4:	52003432 	andpl	r3, r0, #838860800	; 0x32000000
     ab8:	475f4950 			; <UNDEFINED> instruction: 0x475f4950
     abc:	5f4f4950 	svcpl	0x004f4950
     ac0:	325f3150 	subscc	r3, pc, #80, 2
     ac4:	5f5f0036 	svcpl	0x005f0036
     ac8:	31646170 	smccc	17936	; 0x4610
     acc:	705f5f00 	subsvc	r5, pc, r0, lsl #30
     ad0:	00326461 	eorseq	r6, r2, r1, ror #8
     ad4:	61705f5f 	cmnvs	r0, pc, asr pc
     ad8:	47003364 	strmi	r3, [r0, -r4, ror #6]
     adc:	4320554e 			; <UNDEFINED> instruction: 0x4320554e
     ae0:	35203131 	strcc	r3, [r0, #-305]!	; 0xfffffecf
     ae4:	302e342e 	eorcc	r3, lr, lr, lsr #8
     ae8:	31303220 	teqcc	r0, r0, lsr #4
     aec:	30363036 	eorscc	r3, r6, r6, lsr r0
     af0:	6d2d2039 	stcvs	0, cr2, [sp, #-228]!	; 0xffffff1c
     af4:	68637261 	stmdavs	r3!, {r0, r5, r6, r9, ip, sp, lr}^
     af8:	6d72613d 	ldfvse	f6, [r2, #-244]!	; 0xffffff0c
     afc:	612d3776 			; <UNDEFINED> instruction: 0x612d3776
     b00:	666d2d20 	strbtvs	r2, [sp], -r0, lsr #26
     b04:	74616f6c 	strbtvc	r6, [r1], #-3948	; 0xfffff094
     b08:	6962612d 	stmdbvs	r2!, {r0, r2, r3, r5, r8, sp, lr}^
     b0c:	7261683d 	rsbvc	r6, r1, #3997696	; 0x3d0000
     b10:	6d2d2064 	stcvs	0, cr2, [sp, #-400]!	; 0xfffffe70
     b14:	3d757066 	ldclcc	0, cr7, [r5, #-408]!	; 0xfffffe68
     b18:	76706676 			; <UNDEFINED> instruction: 0x76706676
     b1c:	31642d33 	cmncc	r4, r3, lsr sp
     b20:	6d2d2036 	stcvs	0, cr2, [sp, #-216]!	; 0xffffff28
     b24:	6d756874 	ldclvs	8, cr6, [r5, #-464]!	; 0xfffffe30
     b28:	6d2d2062 	stcvs	0, cr2, [sp, #-392]!	; 0xfffffe78
     b2c:	2d736c74 	ldclcs	12, cr6, [r3, #-464]!	; 0xfffffe30
     b30:	6c616964 	stclvs	9, cr6, [r1], #-400	; 0xfffffe70
     b34:	3d746365 	ldclcc	3, cr6, [r4, #-404]!	; 0xfffffe6c
     b38:	20756e67 	rsbscs	r6, r5, r7, ror #28
     b3c:	2d20672d 	stccs	7, cr6, [r0, #-180]!	; 0xffffff4c
     b40:	2d20324f 	sfmcs	f3, 4, [r0, #-316]!	; 0xfffffec4
     b44:	61747366 	cmnvs	r4, r6, ror #6
     b48:	702d6b63 	eorvc	r6, sp, r3, ror #22
     b4c:	65746f72 	ldrbvs	r6, [r4, #-3954]!	; 0xfffff08e
     b50:	726f7463 	rsbvc	r7, pc, #1660944384	; 0x63000000
     b54:	7274732d 	rsbsvc	r7, r4, #-1275068416	; 0xb4000000
     b58:	00676e6f 	rsbeq	r6, r7, pc, ror #28
     b5c:	61705f5f 	cmnvs	r0, pc, asr pc
     b60:	5f003564 	svcpl	0x00003564
     b64:	66756273 			; <UNDEFINED> instruction: 0x66756273
     b68:	6d636200 	sfmvs	f6, 2, [r3, #-0]
     b6c:	35333832 	ldrcc	r3, [r3, #-2098]!	; 0xfffff7ce
     b70:	6970735f 	ldmdbvs	r0!, {r0, r1, r2, r3, r4, r6, r8, r9, ip, sp, lr}^
     b74:	7465735f 	strbtvc	r7, [r5], #-863	; 0xfffffca1
     b78:	636f6c43 	cmnvs	pc, #17152	; 0x4300
     b7c:	7669446b 	strbtvc	r4, [r9], -fp, ror #8
     b80:	72656469 	rsbvc	r6, r5, #1761607680	; 0x69000000
     b84:	6d636200 	sfmvs	f6, 2, [r3, #-0]
     b88:	35333832 	ldrcc	r3, [r3, #-2098]!	; 0xfffff7ce
     b8c:	7875615f 	ldmdavc	r5!, {r0, r1, r2, r3, r4, r6, r8, sp, lr}^
     b90:	6970735f 	ldmdbvs	r0!, {r0, r1, r2, r3, r4, r6, r8, r9, ip, sp, lr}^
     b94:	6765625f 			; <UNDEFINED> instruction: 0x6765625f
     b98:	5f006e69 	svcpl	0x00006e69
     b9c:	67616c66 	strbvs	r6, [r1, -r6, ror #24]!
     ba0:	75700073 	ldrbvc	r0, [r0, #-115]!	; 0xffffff8d
     ba4:	6f635f64 	svcvs	0x00635f64
     ba8:	7461706d 	strbtvc	r7, [r1], #-109	; 0xffffff93
     bac:	7465735f 	strbtvc	r7, [r5], #-863	; 0xfffffca1
     bb0:	676e6974 			; <UNDEFINED> instruction: 0x676e6974
     bb4:	75627200 	strbvc	r7, [r2, #-512]!	; 0xfffffe00
     bb8:	63620066 	cmnvs	r2, #102	; 0x66
     bbc:	3338326d 	teqcc	r8, #-805306362	; 0xd0000006
     bc0:	70675f35 	rsbvc	r5, r7, r5, lsr pc
     bc4:	705f6f69 	subsvc	r6, pc, r9, ror #30
     bc8:	2f006475 	svccs	0x00006475
     bcc:	656d6f68 	strbvs	r6, [sp, #-3944]!	; 0xfffff098
     bd0:	7562752f 	strbvc	r7, [r2, #-1327]!	; 0xfffffad1
     bd4:	2f75746e 	svccs	0x0075746e
     bd8:	2f637273 	svccs	0x00637273
     bdc:	326d6362 	rsbcc	r6, sp, #-2013265919	; 0x88000001
     be0:	2d353338 	ldccs	3, cr3, [r5, #-224]!	; 0xffffff20
     be4:	30362e31 	eorscc	r2, r6, r1, lsr lr
     be8:	6372732f 	cmnvs	r2, #-1140850688	; 0xbc000000
     bec:	6d636200 	sfmvs	f6, 2, [r3, #-0]
     bf0:	35333832 	ldrcc	r3, [r3, #-2098]!	; 0xfffff7ce
     bf4:	6970735f 	ldmdbvs	r0!, {r0, r1, r2, r3, r4, r6, r8, r9, ip, sp, lr}^
     bf8:	7465735f 	strbtvc	r7, [r5], #-863	; 0xfffffca1
     bfc:	6570735f 	ldrbvs	r7, [r0, #-863]!	; 0xfffffca1
     c00:	685f6465 	ldmdavs	pc, {r0, r2, r5, r6, sl, sp, lr}^	; <UNPREDICTABLE>
     c04:	6362007a 	cmnvs	r2, #122	; 0x7a
     c08:	3338326d 	teqcc	r8, #-805306362	; 0xd0000006
     c0c:	77705f35 			; <UNDEFINED> instruction: 0x77705f35
     c10:	65735f6d 	ldrbvs	r5, [r3, #-3949]!	; 0xfffff093
     c14:	6c635f74 	stclvs	15, cr5, [r3], #-464	; 0xfffffe30
     c18:	006b636f 	rsbeq	r6, fp, pc, ror #6
     c1c:	326d6362 	rsbcc	r6, sp, #-2013265919	; 0x88000001
     c20:	5f353338 	svcpl	0x00353338
     c24:	5f697073 	svcpl	0x00697073
     c28:	6e617274 	mcrvs	2, 3, r7, cr1, cr4, {3}
     c2c:	72656673 	rsbvc	r6, r5, #120586240	; 0x7300000
     c30:	6362006e 	cmnvs	r2, #110	; 0x6e
     c34:	3338326d 	teqcc	r8, #-805306362	; 0xd0000006
     c38:	75615f35 	strbvc	r5, [r1, #-3893]!	; 0xfffff0cb
     c3c:	63620078 	cmnvs	r2, #120	; 0x78
     c40:	3338326d 	teqcc	r8, #-805306362	; 0xd0000006
     c44:	65705f35 	ldrbvs	r5, [r0, #-3893]!	; 0xfffff0cb
     c48:	775f6972 			; <UNDEFINED> instruction: 0x775f6972
     c4c:	65746972 	ldrbvs	r6, [r4, #-2418]!	; 0xfffff68e
     c50:	6d636200 	sfmvs	f6, 2, [r3, #-0]
     c54:	35333832 	ldrcc	r3, [r3, #-2098]!	; 0xfffff7ce
     c58:	6970735f 	ldmdbvs	r0!, {r0, r1, r2, r3, r4, r6, r8, r9, ip, sp, lr}^
     c5c:	6972775f 	ldmdbvs	r2!, {r0, r1, r2, r3, r4, r6, r8, r9, sl, ip, sp, lr}^
     c60:	626e6574 	rsbvs	r6, lr, #116, 10	; 0x1d000000
     c64:	6d636200 	sfmvs	f6, 2, [r3, #-0]
     c68:	35333832 	ldrcc	r3, [r3, #-2098]!	; 0xfffff7ce
     c6c:	6970735f 	ldmdbvs	r0!, {r0, r1, r2, r3, r4, r6, r8, r9, ip, sp, lr}^
     c70:	7465735f 	strbtvc	r7, [r5], #-863	; 0xfffffca1
     c74:	61746144 	cmnvs	r4, r4, asr #2
     c78:	65646f4d 	strbvs	r6, [r4, #-3917]!	; 0xfffff0b3
     c7c:	68787400 	ldmdavs	r8!, {sl, ip, sp, lr}^
     c80:	00646c6f 	rsbeq	r6, r4, pc, ror #24
     c84:	324d4342 	subcc	r4, sp, #134217729	; 0x8000001
     c88:	5f353338 	svcpl	0x00353338
     c8c:	42474552 	submi	r4, r7, #343932928	; 0x14800000
     c90:	5f455341 	svcpl	0x00455341
     c94:	53444150 	movtpl	r4, #16720	; 0x4150
     c98:	6d636200 	sfmvs	f6, 2, [r3, #-0]
     c9c:	35333832 	ldrcc	r3, [r3, #-2098]!	; 0xfffff7ce
     ca0:	7875615f 	ldmdavc	r5!, {r0, r1, r2, r3, r4, r6, r8, sp, lr}^
     ca4:	6970735f 	ldmdbvs	r0!, {r0, r1, r2, r3, r4, r6, r8, r9, ip, sp, lr}^
     ca8:	6172745f 	cmnvs	r2, pc, asr r4
     cac:	6566736e 	strbvs	r7, [r6, #-878]!	; 0xfffffc92
     cb0:	00626e72 	rsbeq	r6, r2, r2, ror lr
     cb4:	5f495052 	svcpl	0x00495052
     cb8:	475f3256 			; <UNDEFINED> instruction: 0x475f3256
     cbc:	5f4f4950 	svcpl	0x004f4950
     cc0:	305f3150 	subscc	r3, pc, r0, asr r1	; <UNPREDICTABLE>
     cc4:	50520033 	subspl	r0, r2, r3, lsr r0
     cc8:	32565f49 	subscc	r5, r6, #292	; 0x124
     ccc:	4950475f 	ldmdbmi	r0, {r0, r1, r2, r3, r4, r6, r8, r9, sl, lr}^
     cd0:	31505f4f 	cmpcc	r0, pc, asr #30
     cd4:	0035305f 	eorseq	r3, r5, pc, asr r0
     cd8:	5f495052 	svcpl	0x00495052
     cdc:	475f3256 			; <UNDEFINED> instruction: 0x475f3256
     ce0:	5f4f4950 	svcpl	0x004f4950
     ce4:	305f3150 	subscc	r3, pc, r0, asr r1	; <UNPREDICTABLE>
     ce8:	50520037 	subspl	r0, r2, r7, lsr r0
     cec:	32565f49 	subscc	r5, r6, #292	; 0x124
     cf0:	4950475f 	ldmdbmi	r0, {r0, r1, r2, r3, r4, r6, r8, r9, sl, lr}^
     cf4:	31505f4f 	cmpcc	r0, pc, asr #30
     cf8:	0038305f 	eorseq	r3, r8, pc, asr r0
     cfc:	69766964 	ldmdbvs	r6!, {r2, r5, r6, r8, fp, sp, lr}^
     d00:	00726f73 	rsbseq	r6, r2, r3, ror pc
     d04:	616d6e75 	smcvs	55013	; 0xd6e5
     d08:	6d656d70 	stclvs	13, cr6, [r5, #-448]!	; 0xfffffe40
     d0c:	4d434200 	sfmmi	f4, 2, [r3, #-0]
     d10:	35333832 	ldrcc	r3, [r3, #-2098]!	; 0xfffff7ce
     d14:	4950475f 	ldmdbmi	r0, {r0, r1, r2, r3, r4, r6, r8, r9, sl, lr}^
     d18:	53465f4f 	movtpl	r5, #28495	; 0x6f4f
     d1c:	4d5f4c45 	ldclmi	12, cr4, [pc, #-276]	; c10 <_init-0xfbcc>
     d20:	004b5341 	subeq	r5, fp, r1, asr #6
     d24:	326d6362 	rsbcc	r6, sp, #-2013265919	; 0x88000001
     d28:	5f353338 	svcpl	0x00353338
     d2c:	5f6d7770 	svcpl	0x006d7770
     d30:	5f746573 	svcpl	0x00746573
     d34:	676e6172 			; <UNDEFINED> instruction: 0x676e6172
     d38:	69740065 	ldmdbvs	r4!, {r0, r2, r5, r6}^
     d3c:	7073656d 	rsbsvc	r6, r3, sp, ror #10
     d40:	62006365 	andvs	r6, r0, #-1811939327	; 0x94000001
     d44:	38326d63 	ldmdacc	r2!, {r0, r1, r5, r6, r8, sl, fp, sp, lr}
     d48:	615f3533 	cmpvs	pc, r3, lsr r5	; <UNPREDICTABLE>
     d4c:	735f7875 	cmpvc	pc, #7667712	; 0x750000
     d50:	775f6970 			; <UNDEFINED> instruction: 0x775f6970
     d54:	65746972 	ldrbvs	r6, [r4, #-2418]!	; 0xfffff68e
     d58:	49505200 	ldmdbmi	r0, {r9, ip, lr}^
     d5c:	5f32565f 	svcpl	0x0032565f
     d60:	4f495047 	svcmi	0x00495047
     d64:	5f35505f 	svcpl	0x0035505f
     d68:	52003330 	andpl	r3, r0, #48, 6	; 0xc0000000
     d6c:	565f4950 			; <UNDEFINED> instruction: 0x565f4950
     d70:	50475f32 	subpl	r5, r7, r2, lsr pc
     d74:	505f4f49 	subspl	r4, pc, r9, asr #30
     d78:	34305f35 	ldrtcc	r5, [r0], #-3893	; 0xfffff0cb
     d7c:	49505200 	ldmdbmi	r0, {r9, ip, lr}^
     d80:	5f32565f 	svcpl	0x0032565f
     d84:	4f495047 	svcmi	0x00495047
     d88:	5f35505f 	svcpl	0x0035505f
     d8c:	52003530 	andpl	r3, r0, #48, 10	; 0xc000000
     d90:	565f4950 			; <UNDEFINED> instruction: 0x565f4950
     d94:	50475f32 	subpl	r5, r7, r2, lsr pc
     d98:	505f4f49 	subspl	r4, pc, r9, asr #30
     d9c:	36305f35 	shasxcc	r5, r0, r5
     da0:	6d636200 	sfmvs	f6, 2, [r3, #-0]
     da4:	35333832 	ldrcc	r3, [r3, #-2098]!	; 0xfffff7ce
     da8:	6332695f 	teqvs	r2, #1556480	; 0x17c000
     dac:	6165725f 	cmnvs	r5, pc, asr r2
     db0:	50520064 	subspl	r0, r2, r4, rrx
     db4:	32565f49 	subscc	r5, r6, #292	; 0x124
     db8:	4950475f 	ldmdbmi	r0, {r0, r1, r2, r3, r4, r6, r8, r9, sl, lr}^
     dbc:	31505f4f 	cmpcc	r0, pc, asr #30
     dc0:	0030315f 	eorseq	r3, r0, pc, asr r1
     dc4:	5f495052 	svcpl	0x00495052
     dc8:	475f3256 			; <UNDEFINED> instruction: 0x475f3256
     dcc:	5f4f4950 	svcpl	0x004f4950
     dd0:	315f3150 	cmpcc	pc, r0, asr r1	; <UNPREDICTABLE>
     dd4:	50520031 	subspl	r0, r2, r1, lsr r0
     dd8:	32565f49 	subscc	r5, r6, #292	; 0x124
     ddc:	4950475f 	ldmdbmi	r0, {r0, r1, r2, r3, r4, r6, r8, r9, sl, lr}^
     de0:	31505f4f 	cmpcc	r0, pc, asr #30
     de4:	0032315f 	eorseq	r3, r2, pc, asr r1
     de8:	5f495052 	svcpl	0x00495052
     dec:	475f3256 			; <UNDEFINED> instruction: 0x475f3256
     df0:	5f4f4950 	svcpl	0x004f4950
     df4:	315f3150 	cmpcc	pc, r0, asr r1	; <UNPREDICTABLE>
     df8:	50520033 	subspl	r0, r2, r3, lsr r0
     dfc:	32565f49 	subscc	r5, r6, #292	; 0x124
     e00:	4950475f 	ldmdbmi	r0, {r0, r1, r2, r3, r4, r6, r8, r9, sl, lr}^
     e04:	31505f4f 	cmpcc	r0, pc, asr #30
     e08:	0035315f 	eorseq	r3, r5, pc, asr r1
     e0c:	5f495052 	svcpl	0x00495052
     e10:	475f3256 			; <UNDEFINED> instruction: 0x475f3256
     e14:	5f4f4950 	svcpl	0x004f4950
     e18:	315f3150 	cmpcc	pc, r0, asr r1	; <UNPREDICTABLE>
     e1c:	50520036 	subspl	r0, r2, r6, lsr r0
     e20:	32565f49 	subscc	r5, r6, #292	; 0x124
     e24:	4950475f 	ldmdbmi	r0, {r0, r1, r2, r3, r4, r6, r8, r9, sl, lr}^
     e28:	31505f4f 	cmpcc	r0, pc, asr #30
     e2c:	0038315f 	eorseq	r3, r8, pc, asr r1
     e30:	5f495052 	svcpl	0x00495052
     e34:	475f3256 			; <UNDEFINED> instruction: 0x475f3256
     e38:	5f4f4950 	svcpl	0x004f4950
     e3c:	315f3150 	cmpcc	pc, r0, asr r1	; <UNPREDICTABLE>
     e40:	6f6c0039 	svcvs	0x006c0039
     e44:	6c20676e 	stcvs	7, cr6, [r0], #-440	; 0xfffffe48
     e48:	20676e6f 	rsbcs	r6, r7, pc, ror #28
     e4c:	69736e75 	ldmdbvs	r3!, {r0, r2, r4, r5, r6, r9, sl, fp, sp, lr}^
     e50:	64656e67 	strbtvs	r6, [r5], #-3687	; 0xfffff199
     e54:	746e6920 	strbtvc	r6, [lr], #-2336	; 0xfffff6e0
     e58:	6d636200 	sfmvs	f6, 2, [r3, #-0]
     e5c:	35333832 	ldrcc	r3, [r3, #-2098]!	; 0xfffff7ce
     e60:	6970675f 	ldmdbvs	r0!, {r0, r1, r2, r3, r4, r6, r8, r9, sl, sp, lr}^
     e64:	65735f6f 	ldrbvs	r5, [r3, #-3951]!	; 0xfffff091
     e68:	69750074 	ldmdbvs	r5!, {r2, r4, r5, r6}^
     e6c:	3631746e 	ldrtcc	r7, [r1], -lr, ror #8
     e70:	6200745f 	andvs	r7, r0, #1593835520	; 0x5f000000
     e74:	38326d63 	ldmdacc	r2!, {r0, r1, r5, r6, r8, sl, fp, sp, lr}
     e78:	675f3533 	smmlarvs	pc, r3, r5, r3	; <UNPREDICTABLE>
     e7c:	5f6f6970 	svcpl	0x006f6970
     e80:	00726c63 	rsbseq	r6, r2, r3, ror #24
     e84:	324d4342 	subcc	r4, sp, #134217729	; 0x8000001
     e88:	5f353338 	svcpl	0x00353338
     e8c:	42474552 	submi	r4, r7, #343932928	; 0x14800000
     e90:	5f455341 	svcpl	0x00455341
     e94:	00585541 	subseq	r5, r8, r1, asr #10
     e98:	326d6362 	rsbcc	r6, sp, #-2013265919	; 0x88000001
     e9c:	5f353338 	svcpl	0x00353338
     ea0:	5f633269 	svcpl	0x00633269
     ea4:	00646e65 	rsbeq	r6, r4, r5, ror #28
     ea8:	666f5f5f 	uqsaxvs	r5, pc, pc	; <UNPREDICTABLE>
     eac:	00745f66 	rsbseq	r5, r4, r6, ror #30
     eb0:	64646170 	strbtvs	r6, [r4], #-368	; 0xfffffe90
     eb4:	43420072 	movtmi	r0, #8306	; 0x2072
     eb8:	3338324d 	teqcc	r8, #-805306364	; 0xd0000004
     ebc:	32495f35 	subcc	r5, r9, #53, 30	; 0xd4
     ec0:	45525f43 	ldrbmi	r5, [r2, #-3907]	; 0xfffff0bd
     ec4:	4e4f5341 	cdpmi	3, 4, cr5, cr15, cr1, {2}
     ec8:	5252455f 	subspl	r4, r2, #398458880	; 0x17c00000
     ecc:	435f524f 	cmpmi	pc, #-268435452	; 0xf0000004
     ed0:	00544b4c 	subseq	r4, r4, ip, asr #22
     ed4:	6e656c64 	cdpvs	12, 6, cr6, cr5, cr4, {3}
     ed8:	49505200 	ldmdbmi	r0, {r9, ip, lr}^
     edc:	5f32565f 	svcpl	0x0032565f
     ee0:	4f495047 	svcmi	0x00495047
     ee4:	5f31505f 	svcpl	0x0031505f
     ee8:	52003132 	andpl	r3, r0, #-2147483636	; 0x8000000c
     eec:	565f4950 			; <UNDEFINED> instruction: 0x565f4950
     ef0:	50475f32 	subpl	r5, r7, r2, lsr pc
     ef4:	505f4f49 	subspl	r4, pc, r9, asr #30
     ef8:	32325f31 	eorscc	r5, r2, #49, 30	; 0xc4
     efc:	49505200 	ldmdbmi	r0, {r9, ip, lr}^
     f00:	5f32565f 	svcpl	0x0032565f
     f04:	4f495047 	svcmi	0x00495047
     f08:	5f31505f 	svcpl	0x0031505f
     f0c:	52003332 	andpl	r3, r0, #-939524096	; 0xc8000000
     f10:	565f4950 			; <UNDEFINED> instruction: 0x565f4950
     f14:	50475f32 	subpl	r5, r7, r2, lsr pc
     f18:	505f4f49 	subspl	r4, pc, r9, asr #30
     f1c:	34325f31 	ldrtcc	r5, [r2], #-3889	; 0xfffff0cf
     f20:	6d636200 	sfmvs	f6, 2, [r3, #-0]
     f24:	35333832 	ldrcc	r3, [r3, #-2098]!	; 0xfffff7ce
     f28:	7265705f 	rsbvc	r7, r5, #95	; 0x5f
     f2c:	65725f69 	ldrbvs	r5, [r2, #-3945]!	; 0xfffff097
     f30:	6e5f6461 	cdpvs	4, 5, cr6, cr15, cr1, {3}
     f34:	50520062 	subspl	r0, r2, r2, rrx
     f38:	32565f49 	subscc	r5, r6, #292	; 0x124
     f3c:	4950475f 	ldmdbmi	r0, {r0, r1, r2, r3, r4, r6, r8, r9, sl, lr}^
     f40:	31505f4f 	cmpcc	r0, pc, asr #30
     f44:	0036325f 	eorseq	r3, r6, pc, asr r2
     f48:	5f495052 	svcpl	0x00495052
     f4c:	475f3256 			; <UNDEFINED> instruction: 0x475f3256
     f50:	5f4f4950 	svcpl	0x004f4950
     f54:	325f3150 	subscc	r3, pc, #80, 2
     f58:	63620039 	cmnvs	r2, #57	; 0x39
     f5c:	3338326d 	teqcc	r8, #-805306362	; 0xd0000006
     f60:	65725f35 	ldrbvs	r5, [r2, #-3893]!	; 0xfffff0cb
     f64:	73616267 	cmnvc	r1, #1879048198	; 0x70000006
     f68:	64630065 	strbtvs	r0, [r3], #-101	; 0xffffff9b
     f6c:	72007669 	andvc	r7, r0, #110100480	; 0x6900000
     f70:	6f736165 	svcvs	0x00736165
     f74:	6362006e 	cmnvs	r2, #110	; 0x6e
     f78:	3338326d 	teqcc	r8, #-805306362	; 0xd0000006
     f7c:	6c635f35 	stclvs	15, cr5, [r3], #-212	; 0xffffff2c
     f80:	6362006b 	cmnvs	r2, #107	; 0x6b
     f84:	3338326d 	teqcc	r8, #-805306362	; 0xd0000006
     f88:	70675f35 	rsbvc	r5, r7, r5, lsr pc
     f8c:	735f6f69 	cmpvc	pc, #420	; 0x1a4
     f90:	705f7465 	subsvc	r7, pc, r5, ror #8
     f94:	5f006475 	svcpl	0x00006475
     f98:	6d69745f 	cfstrdvs	mvd7, [r9, #-380]!	; 0xfffffe84
     f9c:	00745f65 	rsbseq	r5, r4, r5, ror #30
     fa0:	324d4342 	subcc	r4, sp, #134217729	; 0x8000001
     fa4:	5f353338 	svcpl	0x00353338
     fa8:	4f495047 	svcmi	0x00495047
     fac:	4553465f 	ldrbmi	r4, [r3, #-1631]	; 0xfffff9a1
     fb0:	554f5f4c 	strbpl	r5, [pc, #-3916]	; 6c <_init-0x10770>
     fb4:	63005054 	movwvs	r5, #84	; 0x54
     fb8:	316c746e 	cmncc	ip, lr, ror #8
     fbc:	6d636200 	sfmvs	f6, 2, [r3, #-0]
     fc0:	35333832 	ldrcc	r3, [r3, #-2098]!	; 0xfffff7ce
     fc4:	6970675f 	ldmdbvs	r0!, {r0, r1, r2, r3, r4, r6, r8, r9, sl, sp, lr}^
     fc8:	6c635f6f 	stclvs	15, cr5, [r3], #-444	; 0xfffffe44
     fcc:	65685f72 	strbvs	r5, [r8, #-3954]!	; 0xfffff08e
     fd0:	5052006e 	subspl	r0, r2, lr, rrx
     fd4:	32565f49 	subscc	r5, r6, #292	; 0x124
     fd8:	4950475f 	ldmdbmi	r0, {r0, r1, r2, r3, r4, r6, r8, r9, sl, lr}^
     fdc:	31505f4f 	cmpcc	r0, pc, asr #30
     fe0:	0031335f 	eorseq	r3, r1, pc, asr r3
     fe4:	5f495052 	svcpl	0x00495052
     fe8:	475f3256 			; <UNDEFINED> instruction: 0x475f3256
     fec:	5f4f4950 	svcpl	0x004f4950
     ff0:	335f3150 	cmpcc	pc, #80, 2
     ff4:	50520032 	subspl	r0, r2, r2, lsr r0
     ff8:	32565f49 	subscc	r5, r6, #292	; 0x124
     ffc:	4950475f 	ldmdbmi	r0, {r0, r1, r2, r3, r4, r6, r8, r9, sl, lr}^
    1000:	31505f4f 	cmpcc	r0, pc, asr #30
    1004:	0033335f 	eorseq	r3, r3, pc, asr r3
    1008:	5f495052 	svcpl	0x00495052
    100c:	475f3256 			; <UNDEFINED> instruction: 0x475f3256
    1010:	5f4f4950 	svcpl	0x004f4950
    1014:	335f3150 	cmpcc	pc, #80, 2
    1018:	495f0035 	ldmdbmi	pc, {r0, r2, r4, r5}^	; <UNPREDICTABLE>
    101c:	61625f4f 	cmnvs	r2, pc, asr #30
    1020:	70756b63 	rsbsvc	r6, r5, r3, ror #22
    1024:	7361625f 	cmnvc	r1, #-268435451	; 0xf0000005
    1028:	50520065 	subspl	r0, r2, r5, rrx
    102c:	32565f49 	subscc	r5, r6, #292	; 0x124
    1030:	4950475f 	ldmdbmi	r0, {r0, r1, r2, r3, r4, r6, r8, r9, sl, lr}^
    1034:	31505f4f 	cmpcc	r0, pc, asr #30
    1038:	0037335f 	eorseq	r3, r7, pc, asr r3
    103c:	6f68735f 	svcvs	0x0068735f
    1040:	75627472 	strbvc	r7, [r2, #-1138]!	; 0xfffffb8e
    1044:	63620066 	cmnvs	r2, #102	; 0x66
    1048:	3338326d 	teqcc	r8, #-805306362	; 0xd0000006
    104c:	70675f35 	rsbvc	r5, r7, r5, lsr pc
    1050:	735f6f69 	cmpvc	pc, #420	; 0x1a4
    1054:	6d5f7465 	cfldrdvs	mvd7, [pc, #-404]	; ec8 <_init-0xf914>
    1058:	69746c75 	ldmdbvs	r4!, {r0, r2, r4, r5, r6, sl, fp, sp, lr}^
    105c:	6d636200 	sfmvs	f6, 2, [r3, #-0]
    1060:	35333832 	ldrcc	r3, [r3, #-2098]!	; 0xfffff7ce
    1064:	6970675f 	ldmdbvs	r0!, {r0, r1, r2, r3, r4, r6, r8, r9, sl, sp, lr}^
    1068:	6c635f6f 	stclvs	15, cr5, [r3], #-444	; 0xfffffe44
    106c:	65725f72 	ldrbvs	r5, [r2, #-3954]!	; 0xfffff08e
    1070:	6e5f006e 	cdpvs	0, 5, cr0, cr15, cr14, {3}
    1074:	00747865 	rsbseq	r7, r4, r5, ror #16
    1078:	326d6362 	rsbcc	r6, sp, #-2013265919	; 0x88000001
    107c:	5f353338 	svcpl	0x00353338
    1080:	69726570 	ldmdbvs	r2!, {r4, r5, r6, r8, sl, sp, lr}^
    1084:	6165725f 	cmnvs	r5, pc, asr r2
    1088:	5f5f0064 	svcpl	0x005f0064
    108c:	3666666f 	strbtcc	r6, [r6], -pc, ror #12
    1090:	00745f34 	rsbseq	r5, r4, r4, lsr pc
    1094:	326d6362 	rsbcc	r6, sp, #-2013265919	; 0x88000001
    1098:	5f353338 	svcpl	0x00353338
    109c:	5f787561 	svcpl	0x00787561
    10a0:	5f697073 	svcpl	0x00697073
    10a4:	74697277 	strbtvc	r7, [r9], #-631	; 0xfffffd89
    10a8:	00626e65 	rsbeq	r6, r2, r5, ror #28
    10ac:	65706f66 	ldrbvs	r6, [r0, #-3942]!	; 0xfffff09a
    10b0:	4342006e 	movtmi	r0, #8302	; 0x206e
    10b4:	3338324d 	teqcc	r8, #-805306364	; 0xd0000004
    10b8:	32495f35 	subcc	r5, r9, #53, 30	; 0xd4
    10bc:	45525f43 	ldrbmi	r5, [r2, #-3907]	; 0xfffff0bd
    10c0:	4e4f5341 	cdpmi	3, 4, cr5, cr15, cr1, {2}
    10c4:	5252455f 	subspl	r4, r2, #398458880	; 0x17c00000
    10c8:	4e5f524f 	cdpmi	2, 5, cr5, cr15, cr15, {2}
    10cc:	004b4341 	subeq	r4, fp, r1, asr #6
    10d0:	5f495052 	svcpl	0x00495052
    10d4:	475f3256 			; <UNDEFINED> instruction: 0x475f3256
    10d8:	5f4f4950 	svcpl	0x004f4950
    10dc:	345f3150 	ldrbcc	r3, [pc], #-336	; 10e4 <_init-0xf6f8>
    10e0:	43420030 	movtmi	r0, #8240	; 0x2030
    10e4:	3338324d 	teqcc	r8, #-805306364	; 0xd0000004
    10e8:	45525f35 	ldrbmi	r5, [r2, #-3893]	; 0xfffff0cb
    10ec:	53414247 	movtpl	r4, #4679	; 0x1247
    10f0:	57505f45 	ldrbpl	r5, [r0, -r5, asr #30]
    10f4:	6572004d 	ldrbvs	r0, [r2, #-77]!	; 0xffffffb3
    10f8:	64646167 	strbtvs	r6, [r4], #-359	; 0xfffffe99
    10fc:	495f0072 	ldmdbmi	pc, {r1, r4, r5, r6}^	; <UNPREDICTABLE>
    1100:	75625f4f 	strbvc	r5, [r2, #-3919]!	; 0xfffff0b1
    1104:	6e655f66 	cdpvs	15, 6, cr5, cr5, cr6, {3}
    1108:	43420064 	movtmi	r0, #8292	; 0x2064
    110c:	3338324d 	teqcc	r8, #-805306364	; 0xd0000004
    1110:	45525f35 	ldrbmi	r5, [r2, #-3893]	; 0xfffff0cb
    1114:	53414247 	movtpl	r4, #4679	; 0x1247
    1118:	4c435f45 	mcrrmi	15, 4, r5, r3, cr5
    111c:	7066004b 	rsbvc	r0, r6, fp, asr #32
    1120:	746e6972 	strbtvc	r6, [lr], #-2418	; 0xfffff68e
    1124:	79620066 	stmdbvc	r2!, {r1, r2, r5, r6}^
    1128:	62006574 	andvs	r6, r0, #116, 10	; 0x1d000000
    112c:	38326d63 	ldmdacc	r2!, {r0, r1, r5, r6, r8, sl, fp, sp, lr}
    1130:	675f3533 	smmlarvs	pc, r3, r5, r3	; <UNPREDICTABLE>
    1134:	5f6f6970 	svcpl	0x006f6970
    1138:	5f746567 	svcpl	0x00746567
    113c:	00647570 	rsbeq	r7, r4, r0, ror r5
    1140:	6c6c7570 	cfstr64vs	mvdx7, [ip], #-448	; 0xfffffe40
    1144:	6d636200 	sfmvs	f6, 2, [r3, #-0]
    1148:	35333832 	ldrcc	r3, [r3, #-2098]!	; 0xfffff7ce
    114c:	6970735f 	ldmdbvs	r0!, {r0, r1, r2, r3, r4, r6, r8, r9, ip, sp, lr}^
    1150:	6765625f 			; <UNDEFINED> instruction: 0x6765625f
    1154:	73006e69 	movwvc	r6, #3689	; 0xe69
    1158:	72656474 	rsbvc	r6, r5, #116, 8	; 0x74000000
    115c:	68730072 	ldmdavs	r3!, {r1, r4, r5, r6}^
    1160:	2074726f 	rsbscs	r7, r4, pc, ror #4
    1164:	00746e69 	rsbseq	r6, r4, r9, ror #28
    1168:	746e6975 	strbtvc	r6, [lr], #-2421	; 0xfffff68b
    116c:	745f3436 	ldrbvc	r3, [pc], #-1078	; 1174 <_init-0xf668>
    1170:	5f767400 	svcpl	0x00767400
    1174:	6365736e 	cmnvs	r5, #-1207959551	; 0xb8000001
    1178:	4d434200 	sfmmi	f4, 2, [r3, #-0]
    117c:	35333832 	ldrcc	r3, [r3, #-2098]!	; 0xfffff7ce
    1180:	4950475f 	ldmdbmi	r0, {r0, r1, r2, r3, r4, r6, r8, r9, sl, lr}^
    1184:	53465f4f 	movtpl	r5, #28495	; 0x6f4f
    1188:	415f4c45 	cmpmi	pc, r5, asr #24
    118c:	0033544c 	eorseq	r5, r3, ip, asr #8
    1190:	324d4342 	subcc	r4, sp, #134217729	; 0x8000001
    1194:	5f353338 	svcpl	0x00353338
    1198:	4f495047 	svcmi	0x00495047
    119c:	4553465f 	ldrbmi	r4, [r3, #-1631]	; 0xfffff9a1
    11a0:	4c415f4c 	mcrrmi	15, 4, r5, r1, cr12
    11a4:	42003054 	andmi	r3, r0, #84	; 0x54
    11a8:	38324d43 	ldmdacc	r2!, {r0, r1, r6, r8, sl, fp, lr}
    11ac:	475f3533 	smmlarmi	pc, r3, r5, r3	; <UNPREDICTABLE>
    11b0:	5f4f4950 	svcpl	0x004f4950
    11b4:	4c455346 	mcrrmi	3, 4, r5, r5, cr6
    11b8:	544c415f 	strbpl	r4, [ip], #-351	; 0xfffffea1
    11bc:	43420031 	movtmi	r0, #8241	; 0x2031
    11c0:	3338324d 	teqcc	r8, #-805306364	; 0xd0000004
    11c4:	50475f35 	subpl	r5, r7, r5, lsr pc
    11c8:	465f4f49 	ldrbmi	r4, [pc], -r9, asr #30
    11cc:	5f4c4553 	svcpl	0x004c4553
    11d0:	32544c41 	subscc	r4, r4, #16640	; 0x4100
    11d4:	74765f00 	ldrbtvc	r5, [r6], #-3840	; 0xfffff100
    11d8:	656c6261 	strbvs	r6, [ip, #-609]!	; 0xfffffd9f
    11dc:	66666f5f 	uqsaxvs	r6, r6, pc	; <UNPREDICTABLE>
    11e0:	00746573 	rsbseq	r6, r4, r3, ror r5
    11e4:	324d4342 	subcc	r4, sp, #134217729	; 0x8000001
    11e8:	5f353338 	svcpl	0x00353338
    11ec:	4f495047 	svcmi	0x00495047
    11f0:	4553465f 	ldrbmi	r4, [r3, #-1631]	; 0xfffff9a1
    11f4:	4c415f4c 	mcrrmi	15, 4, r5, r1, cr12
    11f8:	42003454 	andmi	r3, r0, #84, 8	; 0x54000000
    11fc:	38324d43 	ldmdacc	r2!, {r0, r1, r6, r8, sl, fp, lr}
    1200:	475f3533 	smmlarmi	pc, r3, r5, r3	; <UNPREDICTABLE>
    1204:	5f4f4950 	svcpl	0x004f4950
    1208:	4c455346 	mcrrmi	3, 4, r5, r5, cr6
    120c:	544c415f 	strbpl	r4, [ip], #-351	; 0xfffffea1
    1210:	43420035 	movtmi	r0, #8245	; 0x2035
    1214:	3338324d 	teqcc	r8, #-805306364	; 0xd0000004
    1218:	50475f35 	subpl	r5, r7, r5, lsr pc
    121c:	505f4f49 	subspl	r4, pc, r9, asr #30
    1220:	445f4455 	ldrbmi	r4, [pc], #-1109	; 1228 <_init-0xf5b4>
    1224:	004e574f 	subeq	r5, lr, pc, asr #14
    1228:	326d6362 	rsbcc	r6, sp, #-2013265919	; 0x88000001
    122c:	5f353338 	svcpl	0x00353338
    1230:	5f697073 	svcpl	0x00697073
    1234:	6e617274 	mcrvs	2, 3, r7, cr1, cr4, {3}
    1238:	72656673 	rsbvc	r6, r5, #120586240	; 0x7300000
    123c:	6f00626e 	svcvs	0x0000626e
    1240:	65736666 	ldrbvs	r6, [r3, #-1638]!	; 0xfffff99a
    1244:	696d5f74 	stmdbvs	sp!, {r2, r4, r5, r6, r8, r9, sl, fp, ip, lr}^
    1248:	736f7263 	cmnvc	pc, #805306374	; 0x30000006
    124c:	69707300 	ldmdbvs	r0!, {r8, r9, ip, sp, lr}^
    1250:	70735f31 	rsbsvc	r5, r3, r1, lsr pc
    1254:	00646565 	rsbeq	r6, r4, r5, ror #10
    1258:	326d6362 	rsbcc	r6, sp, #-2013265919	; 0x88000001
    125c:	5f353338 	svcpl	0x00353338
    1260:	6f697067 	svcvs	0x00697067
    1264:	7364655f 	cmnvc	r4, #398458880	; 0x17c00000
    1268:	6d636200 	sfmvs	f6, 2, [r3, #-0]
    126c:	35333832 	ldrcc	r3, [r3, #-2098]!	; 0xfffff7ce
    1270:	7479625f 	ldrbtvc	r6, [r9], #-607	; 0xfffffda1
    1274:	65725f65 	ldrbvs	r5, [r2, #-3941]!	; 0xfffff09b
    1278:	73726576 	cmnvc	r2, #494927872	; 0x1d800000
    127c:	61745f65 	cmnvs	r4, r5, ror #30
    1280:	00656c62 	rsbeq	r6, r5, r2, ror #24
    1284:	324d4342 	subcc	r4, sp, #134217729	; 0x8000001
    1288:	5f353338 	svcpl	0x00353338
    128c:	5f495053 	svcpl	0x00495053
    1290:	5f544942 	svcpl	0x00544942
    1294:	4544524f 	strbmi	r5, [r4, #-591]	; 0xfffffdb1
    1298:	534d5f52 	movtpl	r5, #57170	; 0xdf52
    129c:	52494642 	subpl	r4, r9, #69206016	; 0x4200000
    12a0:	62005453 	andvs	r5, r0, #1392508928	; 0x53000000
    12a4:	38326d63 	ldmdacc	r2!, {r0, r1, r5, r6, r8, sl, fp, sp, lr}
    12a8:	765f3533 			; <UNDEFINED> instruction: 0x765f3533
    12ac:	69737265 	ldmdbvs	r3!, {r0, r2, r5, r6, r9, ip, sp, lr}^
    12b0:	62006e6f 	andvs	r6, r0, #1776	; 0x6f0
    12b4:	38326d63 	ldmdacc	r2!, {r0, r1, r5, r6, r8, sl, fp, sp, lr}
    12b8:	632e3533 			; <UNDEFINED> instruction: 0x632e3533
    12bc:	6d636200 	sfmvs	f6, 2, [r3, #-0]
    12c0:	35333832 	ldrcc	r3, [r3, #-2098]!	; 0xfffff7ce
    12c4:	6970675f 	ldmdbvs	r0!, {r0, r1, r2, r3, r4, r6, r8, r9, sl, sp, lr}^
    12c8:	73665f6f 	cmnvc	r6, #444	; 0x1bc
    12cc:	62006c65 	andvs	r6, r0, #25856	; 0x6500
    12d0:	38326d63 	ldmdacc	r2!, {r0, r1, r5, r6, r8, sl, fp, sp, lr}
    12d4:	735f3533 	cmpvc	pc, #213909504	; 0xcc00000
    12d8:	775f6970 			; <UNDEFINED> instruction: 0x775f6970
    12dc:	65746972 	ldrbvs	r6, [r4, #-2418]!	; 0xfffff68e
    12e0:	4f495f00 	svcmi	0x00495f00
    12e4:	6165725f 	cmnvs	r5, pc, asr r2
    12e8:	6e655f64 	cdpvs	15, 6, cr5, cr5, cr4, {3}
    12ec:	63620064 	cmnvs	r2, #100	; 0x64
    12f0:	3338326d 	teqcc	r8, #-805306362	; 0xd0000006
    12f4:	70675f35 	rsbvc	r5, r7, r5, lsr pc
    12f8:	635f6f69 	cmpvs	pc, #420	; 0x1a4
    12fc:	6d5f726c 	lfmvs	f7, 2, [pc, #-432]	; 1154 <_init-0xf688>
    1300:	69746c75 	ldmdbvs	r4!, {r0, r2, r4, r5, r6, sl, fp, sp, lr}^
    1304:	6e697500 	cdpvs	5, 6, cr7, cr9, cr0, {0}
    1308:	5f323374 	svcpl	0x00323374
    130c:	63620074 	cmnvs	r2, #116	; 0x74
    1310:	3338326d 	teqcc	r8, #-805306362	; 0xd0000006
    1314:	65705f35 	ldrbvs	r5, [r0, #-3893]!	; 0xfffff0cb
    1318:	775f6972 			; <UNDEFINED> instruction: 0x775f6972
    131c:	65746972 	ldrbvs	r6, [r4, #-2418]!	; 0xfffff68e
    1320:	00626e5f 	rsbeq	r6, r2, pc, asr lr
    1324:	326d6362 	rsbcc	r6, sp, #-2013265919	; 0x88000001
    1328:	5f353338 	svcpl	0x00353338
    132c:	69726570 	ldmdbvs	r2!, {r4, r5, r6, r8, sl, sp, lr}^
    1330:	72656870 	rsbvc	r6, r5, #112, 16	; 0x700000
    1334:	5f736c61 	svcpl	0x00736c61
    1338:	65736162 	ldrbvs	r6, [r3, #-354]!	; 0xfffffe9e
    133c:	69665f00 	stmdbvs	r6!, {r8, r9, sl, fp, ip, lr}^
    1340:	6f6e656c 	svcvs	0x006e656c
    1344:	6d636200 	sfmvs	f6, 2, [r3, #-0]
    1348:	35333832 	ldrcc	r3, [r3, #-2098]!	; 0xfffff7ce
    134c:	6332695f 	teqvs	r2, #1556480	; 0x17c000
    1350:	7465735f 	strbtvc	r7, [r5], #-863	; 0xfffffca1
    1354:	7561625f 	strbvc	r6, [r1, #-607]!	; 0xfffffda1
    1358:	74617264 	strbtvc	r7, [r1], #-612	; 0xfffffd9c
    135c:	63620065 	cmnvs	r2, #101	; 0x65
    1360:	3338326d 	teqcc	r8, #-805306362	; 0xd0000006
    1364:	70735f35 	rsbsvc	r5, r3, r5, lsr pc
    1368:	6e655f69 	cdpvs	15, 6, cr5, cr5, cr9, {3}
    136c:	5f5f0064 	svcpl	0x005f0064
    1370:	616c666f 	cmnvs	ip, pc, ror #12
    1374:	75620067 	strbvc	r0, [r2, #-103]!	; 0xffffff99
    1378:	656c5f66 	strbvs	r5, [ip, #-3942]!	; 0xfffff09a
    137c:	6873006e 	ldmdavs	r3!, {r1, r2, r3, r5, r6}^
    1380:	2074726f 	rsbscs	r7, r4, pc, ror #4
    1384:	69736e75 	ldmdbvs	r3!, {r0, r2, r4, r5, r6, r9, sl, fp, sp, lr}^
    1388:	64656e67 	strbtvs	r6, [r5], #-3687	; 0xfffff199
    138c:	746e6920 	strbtvc	r6, [lr], #-2336	; 0xfffff6e0
    1390:	64747300 	ldrbtvs	r7, [r4], #-768	; 0xfffffd00
    1394:	0074756f 	rsbseq	r7, r4, pc, ror #10
    1398:	326d6362 	rsbcc	r6, sp, #-2013265919	; 0x88000001
    139c:	5f353338 	svcpl	0x00353338
    13a0:	6f697067 	svcvs	0x00697067
    13a4:	6475705f 	ldrbtvs	r7, [r5], #-95	; 0xffffffa1
    13a8:	006b6c63 	rsbeq	r6, fp, r3, ror #24
    13ac:	326d6362 	rsbcc	r6, sp, #-2013265919	; 0x88000001
    13b0:	5f353338 	svcpl	0x00353338
    13b4:	6f697067 	svcvs	0x00697067
    13b8:	6566615f 	strbvs	r6, [r6, #-351]!	; 0xfffffea1
    13bc:	7266006e 	rsbvc	r0, r6, #110	; 0x6e
    13c0:	00646165 	rsbeq	r6, r4, r5, ror #2
    13c4:	324d4342 	subcc	r4, sp, #134217729	; 0x8000001
    13c8:	5f353338 	svcpl	0x00353338
    13cc:	42474552 	submi	r4, r7, #343932928	; 0x14800000
    13d0:	5f455341 	svcpl	0x00455341
    13d4:	5f005453 	svcpl	0x00005453
    13d8:	775f4f49 	ldrbvc	r4, [pc, -r9, asr #30]
    13dc:	65746972 	ldrbvs	r6, [r4, #-2418]!	; 0xfffff68e
    13e0:	7274705f 	rsbsvc	r7, r4, #95	; 0x5f
    13e4:	6d636200 	sfmvs	f6, 2, [r3, #-0]
    13e8:	35333832 	ldrcc	r3, [r3, #-2098]!	; 0xfffff7ce
    13ec:	6970675f 	ldmdbvs	r0!, {r0, r1, r2, r3, r4, r6, r8, r9, sl, sp, lr}^
    13f0:	61705f6f 	cmnvs	r0, pc, ror #30
    13f4:	63620064 	cmnvs	r2, #100	; 0x64
    13f8:	3338326d 	teqcc	r8, #-805306362	; 0xd0000006
    13fc:	70675f35 	rsbvc	r5, r7, r5, lsr pc
    1400:	635f6f69 	cmpvs	pc, #420	; 0x1a4
    1404:	615f726c 	cmpvs	pc, ip, ror #4
    1408:	006e6566 	rsbeq	r6, lr, r6, ror #10
    140c:	74697865 	strbtvc	r7, [r9], #-2149	; 0xfffff79b
    1410:	736f7000 	cmnvc	pc, #0
    1414:	6d5f7869 	ldclvs	8, cr7, [pc, #-420]	; 1278 <_init-0xf564>
    1418:	6c616d65 	stclvs	13, cr6, [r1], #-404	; 0xfffffe6c
    141c:	006e6769 	rsbeq	r6, lr, r9, ror #14
    1420:	326d6362 	rsbcc	r6, sp, #-2013265919	; 0x88000001
    1424:	5f353338 	svcpl	0x00353338
    1428:	6f697067 	svcvs	0x00697067
    142c:	7465735f 	strbtvc	r7, [r5], #-863	; 0xfffffca1
    1430:	7364655f 	cmnvc	r4, #398458880	; 0x17c00000
    1434:	656c7300 	strbvs	r7, [ip, #-768]!	; 0xfffffd00
    1438:	72657065 	rsbvc	r7, r5, #101	; 0x65
    143c:	6d636200 	sfmvs	f6, 2, [r3, #-0]
    1440:	35333832 	ldrcc	r3, [r3, #-2098]!	; 0xfffff7ce
    1444:	6970675f 	ldmdbvs	r0!, {r0, r1, r2, r3, r4, r6, r8, r9, sl, sp, lr}^
    1448:	64655f6f 	strbtvs	r5, [r5], #-3951	; 0xfffff091
    144c:	756d5f73 	strbvc	r5, [sp, #-3955]!	; 0xfffff08d
    1450:	0069746c 	rsbeq	r7, r9, ip, ror #8
    1454:	735f7674 	cmpvc	pc, #116, 12	; 0x7400000
    1458:	5f006365 	svcpl	0x00006365
    145c:	6461705f 	strbtvs	r7, [r1], #-95	; 0xffffffa1
    1460:	63620034 	cmnvs	r2, #52	; 0x34
    1464:	3338326d 	teqcc	r8, #-805306362	; 0xd0000006
    1468:	70735f35 	rsbsvc	r5, r3, r5, lsr pc
    146c:	65735f69 	ldrbvs	r5, [r3, #-3945]!	; 0xfffff097
    1470:	69684374 	stmdbvs	r8!, {r2, r4, r5, r6, r8, r9, lr}^
    1474:	6c655370 	stclvs	3, cr5, [r5], #-448	; 0xfffffe40
    1478:	50746365 	rsbspl	r6, r4, r5, ror #6
    147c:	72616c6f 	rsbvc	r6, r1, #28416	; 0x6f00
    1480:	00797469 	rsbseq	r7, r9, r9, ror #8
    1484:	326d6362 	rsbcc	r6, sp, #-2013265919	; 0x88000001
    1488:	5f353338 	svcpl	0x00353338
    148c:	5f6d7770 	svcpl	0x006d7770
    1490:	5f746573 	svcpl	0x00746573
    1494:	65646f6d 	strbvs	r6, [r4, #-3949]!	; 0xfffff093
	...

Disassembly of section .debug_loc:

00000000 <.debug_loc>:
       0:	00000000 	andeq	r0, r0, r0
       4:	0000000e 	andeq	r0, r0, lr
       8:	0e500001 	cdpeq	0, 5, cr0, cr0, cr1, {0}
       c:	11000000 	mrsne	r0, (UNDEF: 0)
      10:	01000000 	mrseq	r0, (UNDEF: 0)
      14:	00115200 	andseq	r5, r1, r0, lsl #4
      18:	00160000 	andseq	r0, r6, r0
      1c:	00040000 	andeq	r0, r4, r0
      20:	9f5001f3 	svcls	0x005001f3
	...
      30:	00000012 	andeq	r0, r0, r2, lsl r0
      34:	0c030006 	stceq	0, cr0, [r3], {6}
      38:	9f00012f 	svcls	0x0000012f
	...
      44:	00000018 	andeq	r0, r0, r8, lsl r0
      48:	00000022 	andeq	r0, r0, r2, lsr #32
      4c:	22500001 	subscs	r0, r0, #1
      50:	29000000 	stmdbcs	r0, {}	; <UNPREDICTABLE>
      54:	01000000 	mrseq	r0, (UNDEF: 0)
      58:	00295200 	eoreq	r5, r9, r0, lsl #4
      5c:	002a0000 	eoreq	r0, sl, r0
      60:	00040000 	andeq	r0, r4, r0
      64:	9f5001f3 	svcls	0x005001f3
	...
      70:	00000018 	andeq	r0, r0, r8, lsl r0
      74:	00000020 	andeq	r0, r0, r0, lsr #32
      78:	20510001 	subscs	r0, r1, r1
      7c:	29000000 	stmdbcs	r0, {}	; <UNPREDICTABLE>
      80:	01000000 	mrseq	r0, (UNDEF: 0)
      84:	00295300 	eoreq	r5, r9, r0, lsl #6
      88:	002a0000 	eoreq	r0, sl, r0
      8c:	00040000 	andeq	r0, r4, r0
      90:	9f5101f3 	svcls	0x005101f3
	...
      9c:	0000002c 	andeq	r0, r0, ip, lsr #32
      a0:	00000041 	andeq	r0, r0, r1, asr #32
      a4:	78030005 	stmdavc	r3, {r0, r2}
      a8:	00000240 	andeq	r0, r0, r0, asr #4
      ac:	00000000 	andeq	r0, r0, r0
      b0:	2c000000 	stccs	0, cr0, [r0], {-0}
      b4:	42000000 	andmi	r0, r0, #0
      b8:	06000000 	streq	r0, [r0], -r0
      bc:	40740300 	rsbsmi	r0, r4, r0, lsl #6
      c0:	009f0002 	addseq	r0, pc, r2
      c4:	00000000 	andeq	r0, r0, r0
      c8:	60000000 	andvs	r0, r0, r0
      cc:	6e000000 	cdpvs	0, 0, cr0, cr0, cr0, {0}
      d0:	01000000 	mrseq	r0, (UNDEF: 0)
      d4:	006e5000 	rsbeq	r5, lr, r0
      d8:	00730000 	rsbseq	r0, r3, r0
      dc:	00010000 	andeq	r0, r1, r0
      e0:	00007351 	andeq	r7, r0, r1, asr r3
      e4:	0000b400 	andeq	fp, r0, r0, lsl #8
      e8:	f3000400 	vshl.u8	d0, d0, d0
      ec:	009f5001 	addseq	r5, pc, r1
      f0:	00000000 	andeq	r0, r0, r0
      f4:	60000000 	andvs	r0, r0, r0
      f8:	6a000000 	bvs	100 <_init-0x106dc>
      fc:	01000000 	mrseq	r0, (UNDEF: 0)
     100:	006a5100 	rsbeq	r5, sl, r0, lsl #2
     104:	00730000 	rsbseq	r0, r3, r0
     108:	00020000 	andeq	r0, r2, r0
     10c:	0073007d 	rsbseq	r0, r3, sp, ror r0
     110:	00b40000 	adcseq	r0, r4, r0
     114:	00040000 	andeq	r0, r4, r0
     118:	9f5101f3 	svcls	0x005101f3
	...
     124:	00000060 	andeq	r0, r0, r0, rrx
     128:	00000070 	andeq	r0, r0, r0, ror r0
     12c:	70520001 	subsvc	r0, r2, r1
     130:	73000000 	movwvc	r0, #0
     134:	02000000 	andeq	r0, r0, #0
     138:	736c9100 	cmnvc	ip, #0, 2
     13c:	b4000000 	strlt	r0, [r0], #-0
     140:	04000000 	streq	r0, [r0], #-0
     144:	5201f300 	andpl	pc, r1, #0, 6
     148:	0000009f 	muleq	r0, pc, r0	; <UNPREDICTABLE>
     14c:	00000000 	andeq	r0, r0, r0
     150:	00007600 	andeq	r7, r0, r0, lsl #12
     154:	00007800 	andeq	r7, r0, r0, lsl #16
     158:	50000100 	andpl	r0, r0, r0, lsl #2
     15c:	00000078 	andeq	r0, r0, r8, ror r0
     160:	000000b4 	strheq	r0, [r0], -r4
     164:	00540001 	subseq	r0, r4, r1
     168:	00000000 	andeq	r0, r0, r0
     16c:	b4000000 	strlt	r0, [r0], #-0
     170:	b6000000 	strlt	r0, [r0], -r0
     174:	01000000 	mrseq	r0, (UNDEF: 0)
     178:	00b65000 	adcseq	r5, r6, r0
     17c:	013a0000 	teqeq	sl, r0
     180:	00040000 	andeq	r0, r4, r0
     184:	9f5001f3 	svcls	0x005001f3
	...
     190:	00000150 	andeq	r0, r0, r0, asr r1
     194:	00000164 	andeq	r0, r0, r4, ror #2
     198:	64500001 	ldrbvs	r0, [r0], #-1
     19c:	6a000001 	bvs	1a8 <_init-0x10634>
     1a0:	04000001 	streq	r0, [r0], #-1
     1a4:	5001f300 	andpl	pc, r1, r0, lsl #6
     1a8:	00016a9f 	muleq	r1, pc, sl	; <UNPREDICTABLE>
     1ac:	00017200 	andeq	r7, r1, r0, lsl #4
     1b0:	50000100 	andpl	r0, r0, r0, lsl #2
     1b4:	00000172 	andeq	r0, r0, r2, ror r1
     1b8:	00000179 	andeq	r0, r0, r9, ror r1
     1bc:	79520001 	ldmdbvc	r2, {r0}^
     1c0:	7e000001 	cdpvc	0, 0, cr0, cr0, cr1, {0}
     1c4:	04000001 	streq	r0, [r0], #-1
     1c8:	5001f300 	andpl	pc, r1, r0, lsl #6
     1cc:	0000009f 	muleq	r0, pc, r0	; <UNPREDICTABLE>
     1d0:	00000000 	andeq	r0, r0, r0
     1d4:	00016400 	andeq	r6, r1, r0, lsl #8
     1d8:	00016a00 	andeq	r6, r1, r0, lsl #20
     1dc:	50000100 	andpl	r0, r0, r0, lsl #2
	...
     1e8:	0000016c 	andeq	r0, r0, ip, ror #2
     1ec:	00000179 	andeq	r0, r0, r9, ror r1
     1f0:	79520001 	ldmdbvc	r2, {r0}^
     1f4:	7a000001 	bvc	200 <_init-0x105dc>
     1f8:	04000001 	streq	r0, [r0], #-1
     1fc:	5001f300 	andpl	pc, r1, r0, lsl #6
     200:	0000009f 	muleq	r0, pc, r0	; <UNPREDICTABLE>
     204:	00000000 	andeq	r0, r0, r0
     208:	00016c00 	andeq	r6, r1, r0, lsl #24
     20c:	00017a00 	andeq	r7, r1, r0, lsl #20
     210:	03000600 	movweq	r0, #1536	; 0x600
     214:	00012f84 	andeq	r2, r1, r4, lsl #31
     218:	0000009f 	muleq	r0, pc, r0	; <UNPREDICTABLE>
     21c:	00000000 	andeq	r0, r0, r0
     220:	00018000 	andeq	r8, r1, r0
     224:	00018e00 	andeq	r8, r1, r0, lsl #28
     228:	50000100 	andpl	r0, r0, r0, lsl #2
     22c:	0000018e 	andeq	r0, r0, lr, lsl #3
     230:	00000190 	muleq	r0, r0, r1
     234:	01f30004 	mvnseq	r0, r4
     238:	01909f50 	orrseq	r9, r0, r0, asr pc
     23c:	01910000 	orrseq	r0, r1, r0
     240:	00010000 	andeq	r0, r1, r0
     244:	00019150 	andeq	r9, r1, r0, asr r1
     248:	00019200 	andeq	r9, r1, r0, lsl #4
     24c:	f3000400 	vshl.u8	d0, d0, d0
     250:	009f5001 	addseq	r5, pc, r1
     254:	00000000 	andeq	r0, r0, r0
     258:	94000000 	strls	r0, [r0], #-0
     25c:	bc000001 	stclt	0, cr0, [r0], {1}
     260:	01000001 	tsteq	r0, r1
     264:	01bc5000 			; <UNDEFINED> instruction: 0x01bc5000
     268:	01c70000 	biceq	r0, r7, r0
     26c:	00010000 	andeq	r0, r1, r0
     270:	0001c752 	andeq	ip, r1, r2, asr r7
     274:	0001c800 	andeq	ip, r1, r0, lsl #16
     278:	f3000400 	vshl.u8	d0, d0, d0
     27c:	009f5001 	addseq	r5, pc, r1
     280:	00000000 	andeq	r0, r0, r0
     284:	94000000 	strls	r0, [r0], #-0
     288:	ba000001 	blt	294 <_init-0x10548>
     28c:	01000001 	tsteq	r0, r1
     290:	01ba5100 			; <UNDEFINED> instruction: 0x01ba5100
     294:	01c70000 	biceq	r0, r7, r0
     298:	00010000 	andeq	r0, r1, r0
     29c:	0001c753 	andeq	ip, r1, r3, asr r7
     2a0:	0001c800 	andeq	ip, r1, r0, lsl #16
     2a4:	f3000400 	vshl.u8	d0, d0, d0
     2a8:	009f5101 	addseq	r5, pc, r1, lsl #2
     2ac:	00000000 	andeq	r0, r0, r0
     2b0:	b2000000 	andlt	r0, r0, #0
     2b4:	ba000001 	blt	2c0 <_init-0x1051c>
     2b8:	01000001 	tsteq	r0, r1
     2bc:	01ba5100 			; <UNDEFINED> instruction: 0x01ba5100
     2c0:	01c70000 	biceq	r0, r7, r0
     2c4:	00010000 	andeq	r0, r1, r0
     2c8:	0001c753 	andeq	ip, r1, r3, asr r7
     2cc:	0001c800 	andeq	ip, r1, r0, lsl #16
     2d0:	f3000400 	vshl.u8	d0, d0, d0
     2d4:	009f5101 	addseq	r5, pc, r1, lsl #2
     2d8:	00000000 	andeq	r0, r0, r0
     2dc:	b2000000 	andlt	r0, r0, #0
     2e0:	bc000001 	stclt	0, cr0, [r0], {1}
     2e4:	01000001 	tsteq	r0, r1
     2e8:	01bc5000 			; <UNDEFINED> instruction: 0x01bc5000
     2ec:	01c70000 	biceq	r0, r7, r0
     2f0:	00010000 	andeq	r0, r1, r0
     2f4:	0001c752 	andeq	ip, r1, r2, asr r7
     2f8:	0001c800 	andeq	ip, r1, r0, lsl #16
     2fc:	f3000400 	vshl.u8	d0, d0, d0
     300:	009f5001 	addseq	r5, pc, r1
     304:	00000000 	andeq	r0, r0, r0
     308:	c8000000 	stmdagt	r0, {}	; <UNPREDICTABLE>
     30c:	d4000001 	strle	r0, [r0], #-1
     310:	01000001 	tsteq	r0, r1
     314:	01d45000 	bicseq	r5, r4, r0
     318:	01da0000 	bicseq	r0, sl, r0
     31c:	00040000 	andeq	r0, r4, r0
     320:	9f5001f3 	svcls	0x005001f3
	...
     32c:	000001c8 	andeq	r0, r0, r8, asr #3
     330:	000001d6 	ldrdeq	r0, [r0], -r6
     334:	7c03000a 	stcvc	0, cr0, [r3], {10}
     338:	06000240 	streq	r0, [r0], -r0, asr #4
     33c:	9f019423 	svcls	0x00019423
     340:	000001d6 	ldrdeq	r0, [r0], -r6
     344:	000001d9 	ldrdeq	r0, [r0], -r9
     348:	00500001 	subseq	r0, r0, r1
     34c:	00000000 	andeq	r0, r0, r0
     350:	dc000000 	stcle	0, cr0, [r0], {-0}
     354:	f5000001 			; <UNDEFINED> instruction: 0xf5000001
     358:	01000001 	tsteq	r0, r1
     35c:	01f55000 	mvnseq	r5, r0
     360:	01f60000 	mvnseq	r0, r0
     364:	00040000 	andeq	r0, r4, r0
     368:	9f5001f3 	svcls	0x005001f3
	...
     374:	000001dc 	ldrdeq	r0, [r0], -ip
     378:	000001f5 	strdeq	r0, [r0], -r5
     37c:	f5510001 			; <UNDEFINED> instruction: 0xf5510001
     380:	f6000001 			; <UNDEFINED> instruction: 0xf6000001
     384:	04000001 	streq	r0, [r0], #-1
     388:	5101f300 	mrspl	pc, SP_irq	; <UNPREDICTABLE>
     38c:	0000009f 	muleq	r0, pc, r0	; <UNPREDICTABLE>
     390:	00000000 	andeq	r0, r0, r0
     394:	0001f800 	andeq	pc, r1, r0, lsl #16
     398:	00020300 	andeq	r0, r2, r0, lsl #6
     39c:	50000100 	andpl	r0, r0, r0, lsl #2
     3a0:	00000203 	andeq	r0, r0, r3, lsl #4
     3a4:	00000212 	andeq	r0, r0, r2, lsl r2
     3a8:	12560001 	subsne	r0, r6, #1
     3ac:	15000002 	strne	r0, [r0, #-2]
     3b0:	01000002 	tsteq	r0, r2
     3b4:	02155000 	andseq	r5, r5, #0
     3b8:	02160000 	andseq	r0, r6, #0
     3bc:	00040000 	andeq	r0, r4, r0
     3c0:	9f5001f3 	svcls	0x005001f3
	...
     3cc:	000001f8 	strdeq	r0, [r0], -r8
     3d0:	00000203 	andeq	r0, r0, r3, lsl #4
     3d4:	03510001 	cmpeq	r1, #1
     3d8:	06000002 	streq	r0, [r0], -r2
     3dc:	01000002 	tsteq	r0, r2
     3e0:	02065500 	andeq	r5, r6, #0, 10
     3e4:	02160000 	andseq	r0, r6, #0
     3e8:	00040000 	andeq	r0, r4, r0
     3ec:	9f5101f3 	svcls	0x005101f3
	...
     3f8:	000001f8 	strdeq	r0, [r0], -r8
     3fc:	00000203 	andeq	r0, r0, r3, lsl #4
     400:	03520001 	cmpeq	r2, #1
     404:	0a000002 	beq	414 <_init-0x103c8>
     408:	01000002 	tsteq	r0, r2
     40c:	020a5400 	andeq	r5, sl, #0, 8
     410:	02160000 	andseq	r0, r6, #0
     414:	00040000 	andeq	r0, r4, r0
     418:	9f5201f3 	svcls	0x005201f3
	...
     424:	00000208 	andeq	r0, r0, r8, lsl #4
     428:	0000020a 	andeq	r0, r0, sl, lsl #4
     42c:	0a500001 	beq	1400438 <__bss_end__+0x13dc36c>
     430:	0c000002 	stceq	0, cr0, [r0], {2}
     434:	06000002 	streq	r0, [r0], -r2
     438:	74007000 	strvc	r7, [r0], #-0
     43c:	0c9f2700 	ldceq	7, cr2, [pc], {0}
     440:	0e000002 	cdpeq	0, 0, cr0, cr0, cr2, {0}
     444:	06000002 	streq	r0, [r0], -r2
     448:	74007100 	strvc	r7, [r0], #-256	; 0xffffff00
     44c:	0e9f2700 	cdpeq	7, 9, cr2, cr15, cr0, {0}
     450:	15000002 	strne	r0, [r0, #-2]
     454:	01000002 	tsteq	r0, r2
     458:	00005100 	andeq	r5, r0, r0, lsl #2
     45c:	00000000 	andeq	r0, r0, r0
     460:	02180000 	andseq	r0, r8, #0
     464:	023c0000 	eorseq	r0, ip, #0
     468:	00010000 	andeq	r0, r1, r0
     46c:	00023c50 	andeq	r3, r2, r0, asr ip
     470:	00025000 	andeq	r5, r2, r0
     474:	f3000400 	vshl.u8	d0, d0, d0
     478:	009f5001 	addseq	r5, pc, r1
     47c:	00000000 	andeq	r0, r0, r0
     480:	18000000 	stmdane	r0, {}	; <UNPREDICTABLE>
     484:	4a000002 	bmi	494 <_init-0x10348>
     488:	01000002 	tsteq	r0, r2
     48c:	024a5100 	subeq	r5, sl, #0, 2
     490:	02500000 	subseq	r0, r0, #0
     494:	00040000 	andeq	r0, r4, r0
     498:	9f5101f3 	svcls	0x005101f3
	...
     4a4:	00000236 	andeq	r0, r0, r6, lsr r2
     4a8:	00000240 	andeq	r0, r0, r0, asr #4
     4ac:	0074000b 	rsbseq	r0, r4, fp
     4b0:	321aff08 	andscc	pc, sl, #8, 30
     4b4:	22007624 	andcs	r7, r0, #36, 12	; 0x2400000
     4b8:	0002409f 	muleq	r2, pc, r0	; <UNPREDICTABLE>
     4bc:	00024f00 	andeq	r4, r2, r0, lsl #30
     4c0:	50000100 	andpl	r0, r0, r0, lsl #2
	...
     4cc:	00000236 	andeq	r0, r0, r6, lsr r2
     4d0:	0000023c 	andeq	r0, r0, ip, lsr r2
     4d4:	00700007 	rsbseq	r0, r0, r7
     4d8:	1e331d3a 	mrcne	13, 1, r1, cr3, cr10, {1}
     4dc:	00023c9f 	muleq	r2, pc, ip	; <UNPREDICTABLE>
     4e0:	00025000 	andeq	r5, r2, r0
     4e4:	f3000800 	vsub.i8	d0, d0, d0
     4e8:	1d3a5001 	ldcne	0, cr5, [sl, #-4]!
     4ec:	009f1e33 	addseq	r1, pc, r3, lsr lr	; <UNPREDICTABLE>
     4f0:	00000000 	andeq	r0, r0, r0
     4f4:	48000000 	stmdami	r0, {}	; <UNPREDICTABLE>
     4f8:	4c000002 	stcmi	0, cr0, [r0], {2}
     4fc:	05000002 	streq	r0, [r0, #-2]
     500:	00733700 	rsbseq	r3, r3, r0, lsl #14
     504:	024c9f24 	subeq	r9, ip, #36, 30	; 0x90
     508:	024f0000 	subeq	r0, pc, #0
     50c:	00010000 	andeq	r0, r1, r0
     510:	00000052 	andeq	r0, r0, r2, asr r0
     514:	00000000 	andeq	r0, r0, r0
     518:	00024800 	andeq	r4, r2, r0, lsl #16
     51c:	00024a00 	andeq	r4, r2, r0, lsl #20
     520:	71000900 	tstvc	r0, r0, lsl #18
     524:	1aff0800 	bne	fffc252c <__bss_end__+0xfff9e460>
     528:	9f240073 	svcls	0x00240073
     52c:	0000024a 	andeq	r0, r0, sl, asr #4
     530:	0000024f 	andeq	r0, r0, pc, asr #4
     534:	01f3000a 	mvnseq	r0, sl
     538:	1aff0851 	bne	fffc2684 <__bss_end__+0xfff9e5b8>
     53c:	9f240073 	svcls	0x00240073
	...
     548:	00000250 	andeq	r0, r0, r0, asr r2
     54c:	00000262 	andeq	r0, r0, r2, ror #4
     550:	62500001 	subsvs	r0, r0, #1
     554:	70000002 	andvc	r0, r0, r2
     558:	04000002 	streq	r0, [r0], #-2
     55c:	5001f300 	andpl	pc, r1, r0, lsl #6
     560:	0000009f 	muleq	r0, pc, r0	; <UNPREDICTABLE>
     564:	00000000 	andeq	r0, r0, r0
     568:	00025000 	andeq	r5, r2, r0
     56c:	00026200 	andeq	r6, r2, r0, lsl #4
     570:	70001300 	andvc	r1, r0, r0, lsl #6
     574:	08253500 	stmdaeq	r5!, {r8, sl, ip, sp}
     578:	07231aff 			; <UNDEFINED> instruction: 0x07231aff
     57c:	7c032432 	cfstrsvc	mvf2, [r3], {50}	; 0x32
     580:	06000240 	streq	r0, [r0], -r0, asr #4
     584:	02629f22 	rsbeq	r9, r2, #34, 30	; 0x88
     588:	026f0000 	rsbeq	r0, pc, #0
     58c:	00140000 	andseq	r0, r4, r0
     590:	355001f3 	ldrbcc	r0, [r0, #-499]	; 0xfffffe0d
     594:	1aff0825 	bne	fffc2630 <__bss_end__+0xfff9e564>
     598:	24320723 	ldrtcs	r0, [r2], #-1827	; 0xfffff8dd
     59c:	02407c03 	subeq	r7, r0, #768	; 0x300
     5a0:	9f220600 	svcls	0x00220600
	...
     5ac:	00000250 	andeq	r0, r0, r0, asr r2
     5b0:	00000262 	andeq	r0, r0, r2, ror #4
     5b4:	00700005 	rsbseq	r0, r0, r5
     5b8:	629f1a4f 	addsvs	r1, pc, #323584	; 0x4f000
     5bc:	70000002 	andvc	r0, r0, r2
     5c0:	06000002 	streq	r0, [r0], -r2
     5c4:	5001f300 	andpl	pc, r1, r0, lsl #6
     5c8:	009f1a4f 	addseq	r1, pc, pc, asr #20
     5cc:	00000000 	andeq	r0, r0, r0
     5d0:	70000000 	andvc	r0, r0, r0
     5d4:	82000002 	andhi	r0, r0, #2
     5d8:	01000002 	tsteq	r0, r2
     5dc:	02825000 	addeq	r5, r2, #0
     5e0:	02900000 	addseq	r0, r0, #0
     5e4:	00040000 	andeq	r0, r4, r0
     5e8:	9f5001f3 	svcls	0x005001f3
	...
     5f4:	00000270 	andeq	r0, r0, r0, ror r2
     5f8:	00000282 	andeq	r0, r0, r2, lsl #5
     5fc:	00700013 	rsbseq	r0, r0, r3, lsl r0
     600:	ff082535 			; <UNDEFINED> instruction: 0xff082535
     604:	320a231a 	andcc	r2, sl, #1744830464	; 0x68000000
     608:	407c0324 	rsbsmi	r0, ip, r4, lsr #6
     60c:	22060002 	andcs	r0, r6, #2
     610:	0002829f 	muleq	r2, pc, r2	; <UNPREDICTABLE>
     614:	00028f00 	andeq	r8, r2, r0, lsl #30
     618:	f3001400 	vshl.u8	d1, d0, d0
     61c:	25355001 	ldrcs	r5, [r5, #-1]!
     620:	231aff08 	tstcs	sl, #8, 30	; <UNPREDICTABLE>
     624:	0324320a 			; <UNDEFINED> instruction: 0x0324320a
     628:	0002407c 	andeq	r4, r2, ip, ror r0
     62c:	009f2206 	addseq	r2, pc, r6, lsl #4
     630:	00000000 	andeq	r0, r0, r0
     634:	70000000 	andvc	r0, r0, r0
     638:	82000002 	andhi	r0, r0, #2
     63c:	05000002 	streq	r0, [r0, #-2]
     640:	4f007000 	svcmi	0x00007000
     644:	02829f1a 	addeq	r9, r2, #26, 30	; 0x68
     648:	02900000 	addseq	r0, r0, #0
     64c:	00060000 	andeq	r0, r6, r0
     650:	4f5001f3 	svcmi	0x005001f3
     654:	00009f1a 	andeq	r9, r0, sl, lsl pc
     658:	00000000 	andeq	r0, r0, r0
     65c:	02900000 	addseq	r0, r0, #0
     660:	029c0000 	addseq	r0, ip, #0
     664:	00010000 	andeq	r0, r1, r0
     668:	00029c50 	andeq	r9, r2, r0, asr ip
     66c:	0002a100 	andeq	sl, r2, r0, lsl #2
     670:	51000100 	mrspl	r0, (UNDEF: 16)
     674:	000002a1 	andeq	r0, r0, r1, lsr #5
     678:	000002a2 	andeq	r0, r0, r2, lsr #5
     67c:	01f30004 	mvnseq	r0, r4
     680:	00009f50 	andeq	r9, r0, r0, asr pc
     684:	00000000 	andeq	r0, r0, r0
     688:	02900000 	addseq	r0, r0, #0
     68c:	029e0000 	addseq	r0, lr, #0
     690:	00090000 	andeq	r0, r9, r0
     694:	02407c03 	subeq	r7, r0, #768	; 0x300
     698:	1c230600 	stcne	6, cr0, [r3], #-0
     69c:	00029e9f 	muleq	r2, pc, lr	; <UNPREDICTABLE>
     6a0:	0002a100 	andeq	sl, r2, r0, lsl #2
     6a4:	50000100 	andpl	r0, r0, r0, lsl #2
	...
     6b0:	000002a4 	andeq	r0, r0, r4, lsr #5
     6b4:	000002b0 			; <UNDEFINED> instruction: 0x000002b0
     6b8:	b0500001 	subslt	r0, r0, r1
     6bc:	b5000002 	strlt	r0, [r0, #-2]
     6c0:	01000002 	tsteq	r0, r2
     6c4:	02b55100 	adcseq	r5, r5, #0, 2
     6c8:	02b60000 	adcseq	r0, r6, #0
     6cc:	00040000 	andeq	r0, r4, r0
     6d0:	9f5001f3 	svcls	0x005001f3
	...
     6dc:	000002a4 	andeq	r0, r0, r4, lsr #5
     6e0:	000002b2 			; <UNDEFINED> instruction: 0x000002b2
     6e4:	7c030009 	stcvc	0, cr0, [r3], {9}
     6e8:	06000240 	streq	r0, [r0], -r0, asr #4
     6ec:	b29f2823 	addslt	r2, pc, #2293760	; 0x230000
     6f0:	b5000002 	strlt	r0, [r0, #-2]
     6f4:	01000002 	tsteq	r0, r2
     6f8:	00005000 	andeq	r5, r0, r0
     6fc:	00000000 	andeq	r0, r0, r0
     700:	02b80000 	adcseq	r0, r8, #0
     704:	02ca0000 	sbceq	r0, sl, #0
     708:	00010000 	andeq	r0, r1, r0
     70c:	0002ca50 	andeq	ip, r2, r0, asr sl
     710:	0002e600 	andeq	lr, r2, r0, lsl #12
     714:	f3000400 	vshl.u8	d0, d0, d0
     718:	009f5001 	addseq	r5, pc, r1
     71c:	00000000 	andeq	r0, r0, r0
     720:	c8000000 	stmdagt	r0, {}	; <UNPREDICTABLE>
     724:	ca000002 	bgt	734 <_init-0x100a8>
     728:	13000002 	movwne	r0, #2
     72c:	35007000 	strcc	r7, [r0, #-0]
     730:	1aff0825 	bne	fffc27cc <__bss_end__+0xfff9e700>
     734:	24320d23 	ldrtcs	r0, [r2], #-3363	; 0xfffff2dd
     738:	02407c03 	subeq	r7, r0, #768	; 0x300
     73c:	9f220600 	svcls	0x00220600
     740:	000002ca 	andeq	r0, r0, sl, asr #5
     744:	000002d5 	ldrdeq	r0, [r0], -r5
     748:	01f30014 	mvnseq	r0, r4, lsl r0
     74c:	08253550 	stmdaeq	r5!, {r4, r6, r8, sl, ip, sp}
     750:	0d231aff 	vstmdbeq	r3!, {s2-s256}
     754:	7c032432 	cfstrsvc	mvf2, [r3], {50}	; 0x32
     758:	06000240 	streq	r0, [r0], -r0, asr #4
     75c:	00009f22 	andeq	r9, r0, r2, lsr #30
     760:	00000000 	andeq	r0, r0, r0
     764:	02c80000 	sbceq	r0, r8, #0
     768:	02ca0000 	sbceq	r0, sl, #0
     76c:	00050000 	andeq	r0, r5, r0
     770:	1a4f0070 	bne	13c0938 <__bss_end__+0x139c86c>
     774:	0002ca9f 	muleq	r2, pc, sl	; <UNPREDICTABLE>
     778:	0002e600 	andeq	lr, r2, r0, lsl #12
     77c:	f3000600 	vmax.u8	d0, d0, d0
     780:	1a4f5001 	bne	13d478c <__bss_end__+0x13b06c0>
     784:	0000009f 	muleq	r0, pc, r0	; <UNPREDICTABLE>
     788:	00000000 	andeq	r0, r0, r0
     78c:	0002d600 	andeq	sp, r2, r0, lsl #12
     790:	0002e200 	andeq	lr, r2, r0, lsl #4
     794:	50000100 	andpl	r0, r0, r0, lsl #2
	...
     7a0:	000002e8 	andeq	r0, r0, r8, ror #5
     7a4:	000002fa 	strdeq	r0, [r0], -sl
     7a8:	fa500001 	blx	14007b4 <__bss_end__+0x13dc6e8>
     7ac:	16000002 	strne	r0, [r0], -r2
     7b0:	04000003 	streq	r0, [r0], #-3
     7b4:	5001f300 	andpl	pc, r1, r0, lsl #6
     7b8:	0000009f 	muleq	r0, pc, r0	; <UNPREDICTABLE>
     7bc:	00000000 	andeq	r0, r0, r0
     7c0:	0002f800 	andeq	pc, r2, r0, lsl #16
     7c4:	0002fa00 	andeq	pc, r2, r0, lsl #20
     7c8:	70001300 	andvc	r1, r0, r0, lsl #6
     7cc:	08253500 	stmdaeq	r5!, {r8, sl, ip, sp}
     7d0:	10231aff 	strdne	r1, [r3], -pc	; <UNPREDICTABLE>
     7d4:	7c032432 	cfstrsvc	mvf2, [r3], {50}	; 0x32
     7d8:	06000240 	streq	r0, [r0], -r0, asr #4
     7dc:	02fa9f22 	rscseq	r9, sl, #34, 30	; 0x88
     7e0:	03050000 	movweq	r0, #20480	; 0x5000
     7e4:	00140000 	andseq	r0, r4, r0
     7e8:	355001f3 	ldrbcc	r0, [r0, #-499]	; 0xfffffe0d
     7ec:	1aff0825 	bne	fffc2888 <__bss_end__+0xfff9e7bc>
     7f0:	24321023 	ldrtcs	r1, [r2], #-35	; 0xffffffdd
     7f4:	02407c03 	subeq	r7, r0, #768	; 0x300
     7f8:	9f220600 	svcls	0x00220600
	...
     804:	000002f8 	strdeq	r0, [r0], -r8
     808:	000002fa 	strdeq	r0, [r0], -sl
     80c:	00700005 	rsbseq	r0, r0, r5
     810:	fa9f1a4f 	blx	fe7c7154 <__bss_end__+0xfe7a3088>
     814:	16000002 	strne	r0, [r0], -r2
     818:	06000003 	streq	r0, [r0], -r3
     81c:	5001f300 	andpl	pc, r1, r0, lsl #6
     820:	009f1a4f 	addseq	r1, pc, pc, asr #20
     824:	00000000 	andeq	r0, r0, r0
     828:	06000000 	streq	r0, [r0], -r0
     82c:	12000003 	andne	r0, r0, #3
     830:	01000003 	tsteq	r0, r3
     834:	00005000 	andeq	r5, r0, r0
     838:	00000000 	andeq	r0, r0, r0
     83c:	03180000 	tsteq	r8, #0
     840:	03260000 			; <UNDEFINED> instruction: 0x03260000
     844:	00010000 	andeq	r0, r1, r0
     848:	00032650 	andeq	r2, r3, r0, asr r6
     84c:	00033000 	andeq	r3, r3, r0
     850:	54000100 	strpl	r0, [r0], #-256	; 0xffffff00
	...
     85c:	00000318 	andeq	r0, r0, r8, lsl r3
     860:	00000328 	andeq	r0, r0, r8, lsr #6
     864:	7c030009 	stcvc	0, cr0, [r3], {9}
     868:	06000240 	streq	r0, [r0], -r0, asr #4
     86c:	289f4023 	ldmcs	pc, {r0, r1, r5, lr}	; <UNPREDICTABLE>
     870:	2b000003 	blcs	884 <_init-0xff58>
     874:	01000003 	tsteq	r0, r3
     878:	00005000 	andeq	r5, r0, r0
     87c:	00000000 	andeq	r0, r0, r0
     880:	032c0000 			; <UNDEFINED> instruction: 0x032c0000
     884:	032e0000 			; <UNDEFINED> instruction: 0x032e0000
     888:	00010000 	andeq	r0, r1, r0
     88c:	00000050 	andeq	r0, r0, r0, asr r0
     890:	00000000 	andeq	r0, r0, r0
     894:	00033000 	andeq	r3, r3, r0
     898:	00034200 	andeq	r4, r3, r0, lsl #4
     89c:	50000100 	andpl	r0, r0, r0, lsl #2
     8a0:	00000342 	andeq	r0, r0, r2, asr #6
     8a4:	00000350 	andeq	r0, r0, r0, asr r3
     8a8:	01f30004 	mvnseq	r0, r4
     8ac:	00009f50 	andeq	r9, r0, r0, asr pc
     8b0:	00000000 	andeq	r0, r0, r0
     8b4:	03300000 	teqeq	r0, #0
     8b8:	03420000 	movteq	r0, #8192	; 0x2000
     8bc:	00130000 	andseq	r0, r3, r0
     8c0:	25350070 	ldrcs	r0, [r5, #-112]!	; 0xffffff90
     8c4:	231aff08 	tstcs	sl, #8, 30	; <UNPREDICTABLE>
     8c8:	03243210 			; <UNDEFINED> instruction: 0x03243210
     8cc:	0002407c 	andeq	r4, r2, ip, ror r0
     8d0:	429f2206 	addsmi	r2, pc, #1610612736	; 0x60000000
     8d4:	4f000003 	svcmi	0x00000003
     8d8:	14000003 	strne	r0, [r0], #-3
     8dc:	5001f300 	andpl	pc, r1, r0, lsl #6
     8e0:	ff082535 			; <UNDEFINED> instruction: 0xff082535
     8e4:	3210231a 	andscc	r2, r0, #1744830464	; 0x68000000
     8e8:	407c0324 	rsbsmi	r0, ip, r4, lsr #6
     8ec:	22060002 	andcs	r0, r6, #2
     8f0:	0000009f 	muleq	r0, pc, r0	; <UNPREDICTABLE>
     8f4:	00000000 	andeq	r0, r0, r0
     8f8:	00033000 	andeq	r3, r3, r0
     8fc:	00034200 	andeq	r4, r3, r0, lsl #4
     900:	70000500 	andvc	r0, r0, r0, lsl #10
     904:	9f1a4f00 	svcls	0x001a4f00
     908:	00000342 	andeq	r0, r0, r2, asr #6
     90c:	00000350 	andeq	r0, r0, r0, asr r3
     910:	01f30006 	mvnseq	r0, r6
     914:	9f1a4f50 	svcls	0x001a4f50
	...
     920:	00000330 	andeq	r0, r0, r0, lsr r3
     924:	00000342 	andeq	r0, r0, r2, asr #6
     928:	7031000a 	eorsvc	r0, r1, sl
     92c:	081a4f00 	ldmdaeq	sl, {r8, r9, sl, fp, lr}
     930:	9f241aff 	svcls	0x00241aff
     934:	00000342 	andeq	r0, r0, r2, asr #6
     938:	00000350 	andeq	r0, r0, r0, asr r3
     93c:	f331000b 	vhadd.u<illegal width 64>	d0, d1, d11
     940:	1a4f5001 	bne	13d494c <__bss_end__+0x13b0880>
     944:	241aff08 	ldrcs	pc, [sl], #-3848	; 0xfffff0f8
     948:	0000009f 	muleq	r0, pc, r0	; <UNPREDICTABLE>
     94c:	00000000 	andeq	r0, r0, r0
     950:	00035000 	andeq	r5, r3, r0
     954:	00035c00 	andeq	r5, r3, r0, lsl #24
     958:	50000100 	andpl	r0, r0, r0, lsl #2
     95c:	0000035c 	andeq	r0, r0, ip, asr r3
     960:	00000361 	andeq	r0, r0, r1, ror #6
     964:	61510001 	cmpvs	r1, r1
     968:	62000003 	andvs	r0, r0, #3
     96c:	04000003 	streq	r0, [r0], #-3
     970:	5001f300 	andpl	pc, r1, r0, lsl #6
     974:	0000009f 	muleq	r0, pc, r0	; <UNPREDICTABLE>
     978:	00000000 	andeq	r0, r0, r0
     97c:	00035000 	andeq	r5, r3, r0
     980:	00035e00 	andeq	r5, r3, r0, lsl #28
     984:	03000900 	movweq	r0, #2304	; 0x900
     988:	0002407c 	andeq	r4, r2, ip, ror r0
     98c:	9f402306 	svcls	0x00402306
     990:	0000035e 	andeq	r0, r0, lr, asr r3
     994:	00000361 	andeq	r0, r0, r1, ror #6
     998:	00500001 	subseq	r0, r0, r1
     99c:	00000000 	andeq	r0, r0, r0
     9a0:	64000000 	strvs	r0, [r0], #-0
     9a4:	74000003 	strvc	r0, [r0], #-3
     9a8:	01000003 	tsteq	r0, r3
     9ac:	03745000 	cmneq	r4, #0
     9b0:	03840000 	orreq	r0, r4, #0
     9b4:	00040000 	andeq	r0, r4, r0
     9b8:	9f5001f3 	svcls	0x005001f3
	...
     9c4:	00000364 	andeq	r0, r0, r4, ror #6
     9c8:	00000374 	andeq	r0, r0, r4, ror r3
     9cc:	00700013 	rsbseq	r0, r0, r3, lsl r0
     9d0:	ff082535 			; <UNDEFINED> instruction: 0xff082535
     9d4:	3213231a 	andscc	r2, r3, #1744830464	; 0x68000000
     9d8:	407c0324 	rsbsmi	r0, ip, r4, lsr #6
     9dc:	22060002 	andcs	r0, r6, #2
     9e0:	0003749f 	muleq	r3, pc, r4	; <UNPREDICTABLE>
     9e4:	00038300 	andeq	r8, r3, r0, lsl #6
     9e8:	f3001400 	vshl.u8	d1, d0, d0
     9ec:	25355001 	ldrcs	r5, [r5, #-1]!
     9f0:	231aff08 	tstcs	sl, #8, 30	; <UNPREDICTABLE>
     9f4:	03243213 			; <UNDEFINED> instruction: 0x03243213
     9f8:	0002407c 	andeq	r4, r2, ip, ror r0
     9fc:	009f2206 	addseq	r2, pc, r6, lsl #4
     a00:	00000000 	andeq	r0, r0, r0
     a04:	64000000 	strvs	r0, [r0], #-0
     a08:	74000003 	strvc	r0, [r0], #-3
     a0c:	05000003 	streq	r0, [r0, #-3]
     a10:	4f007000 	svcmi	0x00007000
     a14:	03749f1a 	cmneq	r4, #26, 30	; 0x68
     a18:	03840000 	orreq	r0, r4, #0
     a1c:	00060000 	andeq	r0, r6, r0
     a20:	4f5001f3 	svcmi	0x005001f3
     a24:	00009f1a 	andeq	r9, r0, sl, lsl pc
     a28:	00000000 	andeq	r0, r0, r0
     a2c:	037a0000 	cmneq	sl, #0
     a30:	03830000 	orreq	r0, r3, #0
     a34:	00010000 	andeq	r0, r1, r0
     a38:	00000052 	andeq	r0, r0, r2, asr r0
     a3c:	00000000 	andeq	r0, r0, r0
     a40:	00038400 	andeq	r8, r3, r0, lsl #8
     a44:	00039600 	andeq	r9, r3, r0, lsl #12
     a48:	50000100 	andpl	r0, r0, r0, lsl #2
     a4c:	00000396 	muleq	r0, r6, r3
     a50:	000003a6 	andeq	r0, r0, r6, lsr #7
     a54:	01f30004 	mvnseq	r0, r4
     a58:	00009f50 	andeq	r9, r0, r0, asr pc
     a5c:	00000000 	andeq	r0, r0, r0
     a60:	03840000 	orreq	r0, r4, #0
     a64:	03960000 	orrseq	r0, r6, #0
     a68:	00130000 	andseq	r0, r3, r0
     a6c:	25350070 	ldrcs	r0, [r5, #-112]!	; 0xffffff90
     a70:	231aff08 	tstcs	sl, #8, 30	; <UNPREDICTABLE>
     a74:	03243213 			; <UNDEFINED> instruction: 0x03243213
     a78:	0002407c 	andeq	r4, r2, ip, ror r0
     a7c:	969f2206 	ldrls	r2, [pc], r6, lsl #4
     a80:	a5000003 	strge	r0, [r0, #-3]
     a84:	14000003 	strne	r0, [r0], #-3
     a88:	5001f300 	andpl	pc, r1, r0, lsl #6
     a8c:	ff082535 			; <UNDEFINED> instruction: 0xff082535
     a90:	3213231a 	andscc	r2, r3, #1744830464	; 0x68000000
     a94:	407c0324 	rsbsmi	r0, ip, r4, lsr #6
     a98:	22060002 	andcs	r0, r6, #2
     a9c:	0000009f 	muleq	r0, pc, r0	; <UNPREDICTABLE>
     aa0:	00000000 	andeq	r0, r0, r0
     aa4:	00038400 	andeq	r8, r3, r0, lsl #8
     aa8:	00039600 	andeq	r9, r3, r0, lsl #12
     aac:	70000500 	andvc	r0, r0, r0, lsl #10
     ab0:	9f1a4f00 	svcls	0x001a4f00
     ab4:	00000396 	muleq	r0, r6, r3
     ab8:	000003a6 	andeq	r0, r0, r6, lsr #7
     abc:	01f30006 	mvnseq	r0, r6
     ac0:	9f1a4f50 	svcls	0x001a4f50
	...
     acc:	00000384 	andeq	r0, r0, r4, lsl #7
     ad0:	00000396 	muleq	r0, r6, r3
     ad4:	7031000a 	eorsvc	r0, r1, sl
     ad8:	081a4f00 	ldmdaeq	sl, {r8, r9, sl, fp, lr}
     adc:	9f241aff 	svcls	0x00241aff
     ae0:	00000396 	muleq	r0, r6, r3
     ae4:	000003a6 	andeq	r0, r0, r6, lsr #7
     ae8:	f331000b 	vhadd.u<illegal width 64>	d0, d1, d11
     aec:	1a4f5001 	bne	13d4af8 <__bss_end__+0x13b0a2c>
     af0:	241aff08 	ldrcs	pc, [sl], #-3848	; 0xfffff0f8
     af4:	0000009f 	muleq	r0, pc, r0	; <UNPREDICTABLE>
     af8:	00000000 	andeq	r0, r0, r0
     afc:	0003a800 	andeq	sl, r3, r0, lsl #16
     b00:	0003b800 	andeq	fp, r3, r0, lsl #16
     b04:	50000100 	andpl	r0, r0, r0, lsl #2
     b08:	000003b8 			; <UNDEFINED> instruction: 0x000003b8
     b0c:	000003c8 	andeq	r0, r0, r8, asr #7
     b10:	01f30004 	mvnseq	r0, r4
     b14:	00009f50 	andeq	r9, r0, r0, asr pc
     b18:	00000000 	andeq	r0, r0, r0
     b1c:	03a80000 			; <UNDEFINED> instruction: 0x03a80000
     b20:	03b80000 			; <UNDEFINED> instruction: 0x03b80000
     b24:	00130000 	andseq	r0, r3, r0
     b28:	25350070 	ldrcs	r0, [r5, #-112]!	; 0xffffff90
     b2c:	231aff08 	tstcs	sl, #8, 30	; <UNPREDICTABLE>
     b30:	03243216 			; <UNDEFINED> instruction: 0x03243216
     b34:	0002407c 	andeq	r4, r2, ip, ror r0
     b38:	b89f2206 	ldmlt	pc, {r1, r2, r9, sp}	; <UNPREDICTABLE>
     b3c:	c7000003 	strgt	r0, [r0, -r3]
     b40:	14000003 	strne	r0, [r0], #-3
     b44:	5001f300 	andpl	pc, r1, r0, lsl #6
     b48:	ff082535 			; <UNDEFINED> instruction: 0xff082535
     b4c:	3216231a 	andscc	r2, r6, #1744830464	; 0x68000000
     b50:	407c0324 	rsbsmi	r0, ip, r4, lsr #6
     b54:	22060002 	andcs	r0, r6, #2
     b58:	0000009f 	muleq	r0, pc, r0	; <UNPREDICTABLE>
     b5c:	00000000 	andeq	r0, r0, r0
     b60:	0003a800 	andeq	sl, r3, r0, lsl #16
     b64:	0003b800 	andeq	fp, r3, r0, lsl #16
     b68:	70000500 	andvc	r0, r0, r0, lsl #10
     b6c:	9f1a4f00 	svcls	0x001a4f00
     b70:	000003b8 			; <UNDEFINED> instruction: 0x000003b8
     b74:	000003c8 	andeq	r0, r0, r8, asr #7
     b78:	01f30006 	mvnseq	r0, r6
     b7c:	9f1a4f50 	svcls	0x001a4f50
	...
     b88:	000003be 			; <UNDEFINED> instruction: 0x000003be
     b8c:	000003c7 	andeq	r0, r0, r7, asr #7
     b90:	00520001 	subseq	r0, r2, r1
     b94:	00000000 	andeq	r0, r0, r0
     b98:	c8000000 	stmdagt	r0, {}	; <UNPREDICTABLE>
     b9c:	da000003 	ble	bb0 <_init-0xfc2c>
     ba0:	01000003 	tsteq	r0, r3
     ba4:	03da5000 	bicseq	r5, sl, #0
     ba8:	03ea0000 	mvneq	r0, #0
     bac:	00040000 	andeq	r0, r4, r0
     bb0:	9f5001f3 	svcls	0x005001f3
	...
     bbc:	000003c8 	andeq	r0, r0, r8, asr #7
     bc0:	000003da 	ldrdeq	r0, [r0], -sl
     bc4:	00700013 	rsbseq	r0, r0, r3, lsl r0
     bc8:	ff082535 			; <UNDEFINED> instruction: 0xff082535
     bcc:	3216231a 	andscc	r2, r6, #1744830464	; 0x68000000
     bd0:	407c0324 	rsbsmi	r0, ip, r4, lsr #6
     bd4:	22060002 	andcs	r0, r6, #2
     bd8:	0003da9f 	muleq	r3, pc, sl	; <UNPREDICTABLE>
     bdc:	0003e900 	andeq	lr, r3, r0, lsl #18
     be0:	f3001400 	vshl.u8	d1, d0, d0
     be4:	25355001 	ldrcs	r5, [r5, #-1]!
     be8:	231aff08 	tstcs	sl, #8, 30	; <UNPREDICTABLE>
     bec:	03243216 			; <UNDEFINED> instruction: 0x03243216
     bf0:	0002407c 	andeq	r4, r2, ip, ror r0
     bf4:	009f2206 	addseq	r2, pc, r6, lsl #4
     bf8:	00000000 	andeq	r0, r0, r0
     bfc:	c8000000 	stmdagt	r0, {}	; <UNPREDICTABLE>
     c00:	da000003 	ble	c14 <_init-0xfbc8>
     c04:	05000003 	streq	r0, [r0, #-3]
     c08:	4f007000 	svcmi	0x00007000
     c0c:	03da9f1a 	bicseq	r9, sl, #26, 30	; 0x68
     c10:	03ea0000 	mvneq	r0, #0
     c14:	00060000 	andeq	r0, r6, r0
     c18:	4f5001f3 	svcmi	0x005001f3
     c1c:	00009f1a 	andeq	r9, r0, sl, lsl pc
     c20:	00000000 	andeq	r0, r0, r0
     c24:	03c80000 	biceq	r0, r8, #0
     c28:	03da0000 	bicseq	r0, sl, #0
     c2c:	000a0000 	andeq	r0, sl, r0
     c30:	4f007031 	svcmi	0x00007031
     c34:	1aff081a 	bne	fffc2ca4 <__bss_end__+0xfff9ebd8>
     c38:	03da9f24 	bicseq	r9, sl, #36, 30	; 0x90
     c3c:	03ea0000 	mvneq	r0, #0
     c40:	000b0000 	andeq	r0, fp, r0
     c44:	5001f331 	andpl	pc, r1, r1, lsr r3	; <UNPREDICTABLE>
     c48:	ff081a4f 			; <UNDEFINED> instruction: 0xff081a4f
     c4c:	009f241a 	addseq	r2, pc, sl, lsl r4	; <UNPREDICTABLE>
     c50:	00000000 	andeq	r0, r0, r0
     c54:	ec000000 	stc	0, cr0, [r0], {-0}
     c58:	fc000003 	stc2	0, cr0, [r0], {3}
     c5c:	01000003 	tsteq	r0, r3
     c60:	03fc5000 	mvnseq	r5, #0
     c64:	040c0000 	streq	r0, [ip], #-0
     c68:	00040000 	andeq	r0, r4, r0
     c6c:	9f5001f3 	svcls	0x005001f3
	...
     c78:	000003ec 	andeq	r0, r0, ip, ror #7
     c7c:	000003fc 	strdeq	r0, [r0], -ip
     c80:	00700013 	rsbseq	r0, r0, r3, lsl r0
     c84:	ff082535 			; <UNDEFINED> instruction: 0xff082535
     c88:	3219231a 	andscc	r2, r9, #1744830464	; 0x68000000
     c8c:	407c0324 	rsbsmi	r0, ip, r4, lsr #6
     c90:	22060002 	andcs	r0, r6, #2
     c94:	0003fc9f 	muleq	r3, pc, ip	; <UNPREDICTABLE>
     c98:	00040b00 	andeq	r0, r4, r0, lsl #22
     c9c:	f3001400 	vshl.u8	d1, d0, d0
     ca0:	25355001 	ldrcs	r5, [r5, #-1]!
     ca4:	231aff08 	tstcs	sl, #8, 30	; <UNPREDICTABLE>
     ca8:	03243219 			; <UNDEFINED> instruction: 0x03243219
     cac:	0002407c 	andeq	r4, r2, ip, ror r0
     cb0:	009f2206 	addseq	r2, pc, r6, lsl #4
     cb4:	00000000 	andeq	r0, r0, r0
     cb8:	ec000000 	stc	0, cr0, [r0], {-0}
     cbc:	fc000003 	stc2	0, cr0, [r0], {3}
     cc0:	05000003 	streq	r0, [r0, #-3]
     cc4:	4f007000 	svcmi	0x00007000
     cc8:	03fc9f1a 	mvnseq	r9, #26, 30	; 0x68
     ccc:	040c0000 	streq	r0, [ip], #-0
     cd0:	00060000 	andeq	r0, r6, r0
     cd4:	4f5001f3 	svcmi	0x005001f3
     cd8:	00009f1a 	andeq	r9, r0, sl, lsl pc
     cdc:	00000000 	andeq	r0, r0, r0
     ce0:	04020000 	streq	r0, [r2], #-0
     ce4:	040b0000 	streq	r0, [fp], #-0
     ce8:	00010000 	andeq	r0, r1, r0
     cec:	00000052 	andeq	r0, r0, r2, asr r0
     cf0:	00000000 	andeq	r0, r0, r0
     cf4:	00040c00 	andeq	r0, r4, r0, lsl #24
     cf8:	00041e00 	andeq	r1, r4, r0, lsl #28
     cfc:	50000100 	andpl	r0, r0, r0, lsl #2
     d00:	0000041e 	andeq	r0, r0, lr, lsl r4
     d04:	0000042e 	andeq	r0, r0, lr, lsr #8
     d08:	01f30004 	mvnseq	r0, r4
     d0c:	00009f50 	andeq	r9, r0, r0, asr pc
     d10:	00000000 	andeq	r0, r0, r0
     d14:	040c0000 	streq	r0, [ip], #-0
     d18:	041e0000 	ldreq	r0, [lr], #-0
     d1c:	00130000 	andseq	r0, r3, r0
     d20:	25350070 	ldrcs	r0, [r5, #-112]!	; 0xffffff90
     d24:	231aff08 	tstcs	sl, #8, 30	; <UNPREDICTABLE>
     d28:	03243219 			; <UNDEFINED> instruction: 0x03243219
     d2c:	0002407c 	andeq	r4, r2, ip, ror r0
     d30:	1e9f2206 	cdpne	2, 9, cr2, cr15, cr6, {0}
     d34:	2d000004 	stccs	0, cr0, [r0, #-16]
     d38:	14000004 	strne	r0, [r0], #-4
     d3c:	5001f300 	andpl	pc, r1, r0, lsl #6
     d40:	ff082535 			; <UNDEFINED> instruction: 0xff082535
     d44:	3219231a 	andscc	r2, r9, #1744830464	; 0x68000000
     d48:	407c0324 	rsbsmi	r0, ip, r4, lsr #6
     d4c:	22060002 	andcs	r0, r6, #2
     d50:	0000009f 	muleq	r0, pc, r0	; <UNPREDICTABLE>
     d54:	00000000 	andeq	r0, r0, r0
     d58:	00040c00 	andeq	r0, r4, r0, lsl #24
     d5c:	00041e00 	andeq	r1, r4, r0, lsl #28
     d60:	70000500 	andvc	r0, r0, r0, lsl #10
     d64:	9f1a4f00 	svcls	0x001a4f00
     d68:	0000041e 	andeq	r0, r0, lr, lsl r4
     d6c:	0000042e 	andeq	r0, r0, lr, lsr #8
     d70:	01f30006 	mvnseq	r0, r6
     d74:	9f1a4f50 	svcls	0x001a4f50
	...
     d80:	0000040c 	andeq	r0, r0, ip, lsl #8
     d84:	0000041e 	andeq	r0, r0, lr, lsl r4
     d88:	7031000a 	eorsvc	r0, r1, sl
     d8c:	081a4f00 	ldmdaeq	sl, {r8, r9, sl, fp, lr}
     d90:	9f241aff 	svcls	0x00241aff
     d94:	0000041e 	andeq	r0, r0, lr, lsl r4
     d98:	0000042e 	andeq	r0, r0, lr, lsr #8
     d9c:	f331000b 	vhadd.u<illegal width 64>	d0, d1, d11
     da0:	1a4f5001 	bne	13d4dac <__bss_end__+0x13b0ce0>
     da4:	241aff08 	ldrcs	pc, [sl], #-3848	; 0xfffff0f8
     da8:	0000009f 	muleq	r0, pc, r0	; <UNPREDICTABLE>
     dac:	00000000 	andeq	r0, r0, r0
     db0:	00043000 	andeq	r3, r4, r0
     db4:	00044000 	andeq	r4, r4, r0
     db8:	50000100 	andpl	r0, r0, r0, lsl #2
     dbc:	00000440 	andeq	r0, r0, r0, asr #8
     dc0:	00000450 	andeq	r0, r0, r0, asr r4
     dc4:	01f30004 	mvnseq	r0, r4
     dc8:	00009f50 	andeq	r9, r0, r0, asr pc
     dcc:	00000000 	andeq	r0, r0, r0
     dd0:	04300000 	ldrteq	r0, [r0], #-0
     dd4:	04400000 	strbeq	r0, [r0], #-0
     dd8:	00130000 	andseq	r0, r3, r0
     ddc:	25350070 	ldrcs	r0, [r5, #-112]!	; 0xffffff90
     de0:	231aff08 	tstcs	sl, #8, 30	; <UNPREDICTABLE>
     de4:	0324321c 			; <UNDEFINED> instruction: 0x0324321c
     de8:	0002407c 	andeq	r4, r2, ip, ror r0
     dec:	409f2206 	addsmi	r2, pc, r6, lsl #4
     df0:	4f000004 	svcmi	0x00000004
     df4:	14000004 	strne	r0, [r0], #-4
     df8:	5001f300 	andpl	pc, r1, r0, lsl #6
     dfc:	ff082535 			; <UNDEFINED> instruction: 0xff082535
     e00:	321c231a 	andscc	r2, ip, #1744830464	; 0x68000000
     e04:	407c0324 	rsbsmi	r0, ip, r4, lsr #6
     e08:	22060002 	andcs	r0, r6, #2
     e0c:	0000009f 	muleq	r0, pc, r0	; <UNPREDICTABLE>
     e10:	00000000 	andeq	r0, r0, r0
     e14:	00043000 	andeq	r3, r4, r0
     e18:	00044000 	andeq	r4, r4, r0
     e1c:	70000500 	andvc	r0, r0, r0, lsl #10
     e20:	9f1a4f00 	svcls	0x001a4f00
     e24:	00000440 	andeq	r0, r0, r0, asr #8
     e28:	00000450 	andeq	r0, r0, r0, asr r4
     e2c:	01f30006 	mvnseq	r0, r6
     e30:	9f1a4f50 	svcls	0x001a4f50
	...
     e3c:	00000446 	andeq	r0, r0, r6, asr #8
     e40:	0000044f 	andeq	r0, r0, pc, asr #8
     e44:	00520001 	subseq	r0, r2, r1
     e48:	00000000 	andeq	r0, r0, r0
     e4c:	50000000 	andpl	r0, r0, r0
     e50:	62000004 	andvs	r0, r0, #4
     e54:	01000004 	tsteq	r0, r4
     e58:	04625000 	strbteq	r5, [r2], #-0
     e5c:	04720000 	ldrbteq	r0, [r2], #-0
     e60:	00040000 	andeq	r0, r4, r0
     e64:	9f5001f3 	svcls	0x005001f3
	...
     e70:	00000450 	andeq	r0, r0, r0, asr r4
     e74:	00000462 	andeq	r0, r0, r2, ror #8
     e78:	00700013 	rsbseq	r0, r0, r3, lsl r0
     e7c:	ff082535 			; <UNDEFINED> instruction: 0xff082535
     e80:	321c231a 	andscc	r2, ip, #1744830464	; 0x68000000
     e84:	407c0324 	rsbsmi	r0, ip, r4, lsr #6
     e88:	22060002 	andcs	r0, r6, #2
     e8c:	0004629f 	muleq	r4, pc, r2	; <UNPREDICTABLE>
     e90:	00047100 	andeq	r7, r4, r0, lsl #2
     e94:	f3001400 	vshl.u8	d1, d0, d0
     e98:	25355001 	ldrcs	r5, [r5, #-1]!
     e9c:	231aff08 	tstcs	sl, #8, 30	; <UNPREDICTABLE>
     ea0:	0324321c 			; <UNDEFINED> instruction: 0x0324321c
     ea4:	0002407c 	andeq	r4, r2, ip, ror r0
     ea8:	009f2206 	addseq	r2, pc, r6, lsl #4
     eac:	00000000 	andeq	r0, r0, r0
     eb0:	50000000 	andpl	r0, r0, r0
     eb4:	62000004 	andvs	r0, r0, #4
     eb8:	05000004 	streq	r0, [r0, #-4]
     ebc:	4f007000 	svcmi	0x00007000
     ec0:	04629f1a 	strbteq	r9, [r2], #-3866	; 0xfffff0e6
     ec4:	04720000 	ldrbteq	r0, [r2], #-0
     ec8:	00060000 	andeq	r0, r6, r0
     ecc:	4f5001f3 	svcmi	0x005001f3
     ed0:	00009f1a 	andeq	r9, r0, sl, lsl pc
     ed4:	00000000 	andeq	r0, r0, r0
     ed8:	04500000 	ldrbeq	r0, [r0], #-0
     edc:	04620000 	strbteq	r0, [r2], #-0
     ee0:	000a0000 	andeq	r0, sl, r0
     ee4:	4f007031 	svcmi	0x00007031
     ee8:	1aff081a 	bne	fffc2f58 <__bss_end__+0xfff9ee8c>
     eec:	04629f24 	strbteq	r9, [r2], #-3876	; 0xfffff0dc
     ef0:	04720000 	ldrbteq	r0, [r2], #-0
     ef4:	000b0000 	andeq	r0, fp, r0
     ef8:	5001f331 	andpl	pc, r1, r1, lsr r3	; <UNPREDICTABLE>
     efc:	ff081a4f 			; <UNDEFINED> instruction: 0xff081a4f
     f00:	009f241a 	addseq	r2, pc, sl, lsl r4	; <UNPREDICTABLE>
     f04:	00000000 	andeq	r0, r0, r0
     f08:	74000000 	strvc	r0, [r0], #-0
     f0c:	84000004 	strhi	r0, [r0], #-4
     f10:	01000004 	tsteq	r0, r4
     f14:	04845000 	streq	r5, [r4], #0
     f18:	04940000 	ldreq	r0, [r4], #0
     f1c:	00040000 	andeq	r0, r4, r0
     f20:	9f5001f3 	svcls	0x005001f3
	...
     f2c:	00000474 	andeq	r0, r0, r4, ror r4
     f30:	00000484 	andeq	r0, r0, r4, lsl #9
     f34:	00700013 	rsbseq	r0, r0, r3, lsl r0
     f38:	ff082535 			; <UNDEFINED> instruction: 0xff082535
     f3c:	321f231a 	andscc	r2, pc, #1744830464	; 0x68000000
     f40:	407c0324 	rsbsmi	r0, ip, r4, lsr #6
     f44:	22060002 	andcs	r0, r6, #2
     f48:	0004849f 	muleq	r4, pc, r4	; <UNPREDICTABLE>
     f4c:	00049300 	andeq	r9, r4, r0, lsl #6
     f50:	f3001400 	vshl.u8	d1, d0, d0
     f54:	25355001 	ldrcs	r5, [r5, #-1]!
     f58:	231aff08 	tstcs	sl, #8, 30	; <UNPREDICTABLE>
     f5c:	0324321f 			; <UNDEFINED> instruction: 0x0324321f
     f60:	0002407c 	andeq	r4, r2, ip, ror r0
     f64:	009f2206 	addseq	r2, pc, r6, lsl #4
     f68:	00000000 	andeq	r0, r0, r0
     f6c:	74000000 	strvc	r0, [r0], #-0
     f70:	84000004 	strhi	r0, [r0], #-4
     f74:	05000004 	streq	r0, [r0, #-4]
     f78:	4f007000 	svcmi	0x00007000
     f7c:	04849f1a 	streq	r9, [r4], #3866	; 0xf1a
     f80:	04940000 	ldreq	r0, [r4], #0
     f84:	00060000 	andeq	r0, r6, r0
     f88:	4f5001f3 	svcmi	0x005001f3
     f8c:	00009f1a 	andeq	r9, r0, sl, lsl pc
     f90:	00000000 	andeq	r0, r0, r0
     f94:	048a0000 	streq	r0, [sl], #0
     f98:	04930000 	ldreq	r0, [r3], #0
     f9c:	00010000 	andeq	r0, r1, r0
     fa0:	00000052 	andeq	r0, r0, r2, asr r0
     fa4:	00000000 	andeq	r0, r0, r0
     fa8:	00049400 	andeq	r9, r4, r0, lsl #8
     fac:	0004a600 	andeq	sl, r4, r0, lsl #12
     fb0:	50000100 	andpl	r0, r0, r0, lsl #2
     fb4:	000004a6 	andeq	r0, r0, r6, lsr #9
     fb8:	000004b6 			; <UNDEFINED> instruction: 0x000004b6
     fbc:	01f30004 	mvnseq	r0, r4
     fc0:	00009f50 	andeq	r9, r0, r0, asr pc
     fc4:	00000000 	andeq	r0, r0, r0
     fc8:	04940000 	ldreq	r0, [r4], #0
     fcc:	04a60000 	strteq	r0, [r6], #0
     fd0:	00130000 	andseq	r0, r3, r0
     fd4:	25350070 	ldrcs	r0, [r5, #-112]!	; 0xffffff90
     fd8:	231aff08 	tstcs	sl, #8, 30	; <UNPREDICTABLE>
     fdc:	0324321f 			; <UNDEFINED> instruction: 0x0324321f
     fe0:	0002407c 	andeq	r4, r2, ip, ror r0
     fe4:	a69f2206 	ldrge	r2, [pc], r6, lsl #4
     fe8:	b5000004 	strlt	r0, [r0, #-4]
     fec:	14000004 	strne	r0, [r0], #-4
     ff0:	5001f300 	andpl	pc, r1, r0, lsl #6
     ff4:	ff082535 			; <UNDEFINED> instruction: 0xff082535
     ff8:	321f231a 	andscc	r2, pc, #1744830464	; 0x68000000
     ffc:	407c0324 	rsbsmi	r0, ip, r4, lsr #6
    1000:	22060002 	andcs	r0, r6, #2
    1004:	0000009f 	muleq	r0, pc, r0	; <UNPREDICTABLE>
    1008:	00000000 	andeq	r0, r0, r0
    100c:	00049400 	andeq	r9, r4, r0, lsl #8
    1010:	0004a600 	andeq	sl, r4, r0, lsl #12
    1014:	70000500 	andvc	r0, r0, r0, lsl #10
    1018:	9f1a4f00 	svcls	0x001a4f00
    101c:	000004a6 	andeq	r0, r0, r6, lsr #9
    1020:	000004b6 			; <UNDEFINED> instruction: 0x000004b6
    1024:	01f30006 	mvnseq	r0, r6
    1028:	9f1a4f50 	svcls	0x001a4f50
	...
    1034:	00000494 	muleq	r0, r4, r4
    1038:	000004a6 	andeq	r0, r0, r6, lsr #9
    103c:	7031000a 	eorsvc	r0, r1, sl
    1040:	081a4f00 	ldmdaeq	sl, {r8, r9, sl, fp, lr}
    1044:	9f241aff 	svcls	0x00241aff
    1048:	000004a6 	andeq	r0, r0, r6, lsr #9
    104c:	000004b6 			; <UNDEFINED> instruction: 0x000004b6
    1050:	f331000b 	vhadd.u<illegal width 64>	d0, d1, d11
    1054:	1a4f5001 	bne	13d5060 <__bss_end__+0x13b0f94>
    1058:	241aff08 	ldrcs	pc, [sl], #-3848	; 0xfffff0f8
    105c:	0000009f 	muleq	r0, pc, r0	; <UNPREDICTABLE>
    1060:	00000000 	andeq	r0, r0, r0
    1064:	0004b800 	andeq	fp, r4, r0, lsl #16
    1068:	0004c800 	andeq	ip, r4, r0, lsl #16
    106c:	50000100 	andpl	r0, r0, r0, lsl #2
    1070:	000004c8 	andeq	r0, r0, r8, asr #9
    1074:	000004d8 	ldrdeq	r0, [r0], -r8
    1078:	01f30004 	mvnseq	r0, r4
    107c:	00009f50 	andeq	r9, r0, r0, asr pc
    1080:	00000000 	andeq	r0, r0, r0
    1084:	04b80000 	ldrteq	r0, [r8], #0
    1088:	04c80000 	strbeq	r0, [r8], #0
    108c:	00130000 	andseq	r0, r3, r0
    1090:	25350070 	ldrcs	r0, [r5, #-112]!	; 0xffffff90
    1094:	231aff08 	tstcs	sl, #8, 30	; <UNPREDICTABLE>
    1098:	03243222 			; <UNDEFINED> instruction: 0x03243222
    109c:	0002407c 	andeq	r4, r2, ip, ror r0
    10a0:	c89f2206 	ldmgt	pc, {r1, r2, r9, sp}	; <UNPREDICTABLE>
    10a4:	d7000004 	strle	r0, [r0, -r4]
    10a8:	14000004 	strne	r0, [r0], #-4
    10ac:	5001f300 	andpl	pc, r1, r0, lsl #6
    10b0:	ff082535 			; <UNDEFINED> instruction: 0xff082535
    10b4:	3222231a 	eorcc	r2, r2, #1744830464	; 0x68000000
    10b8:	407c0324 	rsbsmi	r0, ip, r4, lsr #6
    10bc:	22060002 	andcs	r0, r6, #2
    10c0:	0000009f 	muleq	r0, pc, r0	; <UNPREDICTABLE>
    10c4:	00000000 	andeq	r0, r0, r0
    10c8:	0004b800 	andeq	fp, r4, r0, lsl #16
    10cc:	0004c800 	andeq	ip, r4, r0, lsl #16
    10d0:	70000500 	andvc	r0, r0, r0, lsl #10
    10d4:	9f1a4f00 	svcls	0x001a4f00
    10d8:	000004c8 	andeq	r0, r0, r8, asr #9
    10dc:	000004d8 	ldrdeq	r0, [r0], -r8
    10e0:	01f30006 	mvnseq	r0, r6
    10e4:	9f1a4f50 	svcls	0x001a4f50
	...
    10f0:	000004ce 	andeq	r0, r0, lr, asr #9
    10f4:	000004d7 	ldrdeq	r0, [r0], -r7
    10f8:	00520001 	subseq	r0, r2, r1
    10fc:	00000000 	andeq	r0, r0, r0
    1100:	d8000000 	stmdale	r0, {}	; <UNPREDICTABLE>
    1104:	ea000004 	b	111c <_init-0xf6c0>
    1108:	01000004 	tsteq	r0, r4
    110c:	04ea5000 	strbteq	r5, [sl], #0
    1110:	04fa0000 	ldrbteq	r0, [sl], #0
    1114:	00040000 	andeq	r0, r4, r0
    1118:	9f5001f3 	svcls	0x005001f3
	...
    1124:	000004d8 	ldrdeq	r0, [r0], -r8
    1128:	000004ea 	andeq	r0, r0, sl, ror #9
    112c:	00700013 	rsbseq	r0, r0, r3, lsl r0
    1130:	ff082535 			; <UNDEFINED> instruction: 0xff082535
    1134:	3222231a 	eorcc	r2, r2, #1744830464	; 0x68000000
    1138:	407c0324 	rsbsmi	r0, ip, r4, lsr #6
    113c:	22060002 	andcs	r0, r6, #2
    1140:	0004ea9f 	muleq	r4, pc, sl	; <UNPREDICTABLE>
    1144:	0004f900 	andeq	pc, r4, r0, lsl #18
    1148:	f3001400 	vshl.u8	d1, d0, d0
    114c:	25355001 	ldrcs	r5, [r5, #-1]!
    1150:	231aff08 	tstcs	sl, #8, 30	; <UNPREDICTABLE>
    1154:	03243222 			; <UNDEFINED> instruction: 0x03243222
    1158:	0002407c 	andeq	r4, r2, ip, ror r0
    115c:	009f2206 	addseq	r2, pc, r6, lsl #4
    1160:	00000000 	andeq	r0, r0, r0
    1164:	d8000000 	stmdale	r0, {}	; <UNPREDICTABLE>
    1168:	ea000004 	b	1180 <_init-0xf65c>
    116c:	05000004 	streq	r0, [r0, #-4]
    1170:	4f007000 	svcmi	0x00007000
    1174:	04ea9f1a 	strbteq	r9, [sl], #3866	; 0xf1a
    1178:	04fa0000 	ldrbteq	r0, [sl], #0
    117c:	00060000 	andeq	r0, r6, r0
    1180:	4f5001f3 	svcmi	0x005001f3
    1184:	00009f1a 	andeq	r9, r0, sl, lsl pc
    1188:	00000000 	andeq	r0, r0, r0
    118c:	04d80000 	ldrbeq	r0, [r8], #0
    1190:	04ea0000 	strbteq	r0, [sl], #0
    1194:	000a0000 	andeq	r0, sl, r0
    1198:	4f007031 	svcmi	0x00007031
    119c:	1aff081a 	bne	fffc320c <__bss_end__+0xfff9f140>
    11a0:	04ea9f24 	strbteq	r9, [sl], #3876	; 0xf24
    11a4:	04fa0000 	ldrbteq	r0, [sl], #0
    11a8:	000b0000 	andeq	r0, fp, r0
    11ac:	5001f331 	andpl	pc, r1, r1, lsr r3	; <UNPREDICTABLE>
    11b0:	ff081a4f 			; <UNDEFINED> instruction: 0xff081a4f
    11b4:	009f241a 	addseq	r2, pc, sl, lsl r4	; <UNPREDICTABLE>
    11b8:	00000000 	andeq	r0, r0, r0
    11bc:	fc000000 	stc2	0, cr0, [r0], {-0}
    11c0:	0d000004 	stceq	0, cr0, [r0, #-16]
    11c4:	01000005 	tsteq	r0, r5
    11c8:	050d5000 	streq	r5, [sp, #-0]
    11cc:	050e0000 	streq	r0, [lr, #-0]
    11d0:	00040000 	andeq	r0, r4, r0
    11d4:	9f5001f3 	svcls	0x005001f3
	...
    11e0:	00000510 	andeq	r0, r0, r0, lsl r5
    11e4:	00000520 	andeq	r0, r0, r0, lsr #10
    11e8:	20500001 	subscs	r0, r0, r1
    11ec:	28000005 	stmdacs	r0, {r0, r2}
    11f0:	04000005 	streq	r0, [r0], #-5
    11f4:	5001f300 	andpl	pc, r1, r0, lsl #6
    11f8:	0005289f 	muleq	r5, pc, r8	; <UNPREDICTABLE>
    11fc:	00052a00 	andeq	r2, r5, r0, lsl #20
    1200:	50000100 	andpl	r0, r0, r0, lsl #2
    1204:	0000052a 	andeq	r0, r0, sl, lsr #10
    1208:	0000052c 	andeq	r0, r0, ip, lsr #10
    120c:	01f30004 	mvnseq	r0, r4
    1210:	00009f50 	andeq	r9, r0, r0, asr pc
    1214:	00000000 	andeq	r0, r0, r0
    1218:	051e0000 	ldreq	r0, [lr, #-0]
    121c:	05200000 	streq	r0, [r0, #-0]!
    1220:	000d0000 	andeq	r0, sp, r0
    1224:	ff080070 			; <UNDEFINED> instruction: 0xff080070
    1228:	320b231a 	andcc	r2, fp, #1744830464	; 0x68000000
    122c:	22007324 	andcs	r7, r0, #36, 6	; 0x90000000
    1230:	0005209f 	muleq	r5, pc, r0	; <UNPREDICTABLE>
    1234:	00052700 	andeq	r2, r5, r0, lsl #14
    1238:	f3000e00 	vcge.f32	d0, d0, d0
    123c:	ff085001 			; <UNDEFINED> instruction: 0xff085001
    1240:	320b231a 	andcc	r2, fp, #1744830464	; 0x68000000
    1244:	22007324 	andcs	r7, r0, #36, 6	; 0x90000000
    1248:	0000009f 	muleq	r0, pc, r0	; <UNPREDICTABLE>
    124c:	00000000 	andeq	r0, r0, r0
    1250:	00052c00 	andeq	r2, r5, r0, lsl #24
    1254:	00053c00 	andeq	r3, r5, r0, lsl #24
    1258:	50000100 	andpl	r0, r0, r0, lsl #2
    125c:	0000053c 	andeq	r0, r0, ip, lsr r5
    1260:	00000548 	andeq	r0, r0, r8, asr #10
    1264:	01f30004 	mvnseq	r0, r4
    1268:	05489f50 	strbeq	r9, [r8, #-3920]	; 0xfffff0b0
    126c:	054a0000 	strbeq	r0, [sl, #-0]
    1270:	00010000 	andeq	r0, r1, r0
    1274:	00000050 	andeq	r0, r0, r0, asr r0
    1278:	00000000 	andeq	r0, r0, r0
    127c:	00052c00 	andeq	r2, r5, r0, lsl #24
    1280:	00054000 	andeq	r4, r5, r0
    1284:	51000100 	mrspl	r0, (UNDEF: 16)
    1288:	00000540 	andeq	r0, r0, r0, asr #10
    128c:	00000548 	andeq	r0, r0, r8, asr #10
    1290:	01f30004 	mvnseq	r0, r4
    1294:	05489f51 	strbeq	r9, [r8, #-3921]	; 0xfffff0af
    1298:	054a0000 	strbeq	r0, [sl, #-0]
    129c:	00010000 	andeq	r0, r1, r0
    12a0:	00000051 	andeq	r0, r0, r1, asr r0
    12a4:	00000000 	andeq	r0, r0, r0
    12a8:	00053a00 	andeq	r3, r5, r0, lsl #20
    12ac:	00053c00 	andeq	r3, r5, r0, lsl #24
    12b0:	70000d00 	andvc	r0, r0, r0, lsl #26
    12b4:	1aff0800 	bne	fffc32bc <__bss_end__+0xfff9f1f0>
    12b8:	24320b23 	ldrtcs	r0, [r2], #-2851	; 0xfffff4dd
    12bc:	9f220073 	svcls	0x00220073
    12c0:	0000053c 	andeq	r0, r0, ip, lsr r5
    12c4:	00000547 	andeq	r0, r0, r7, asr #10
    12c8:	01f3000e 	mvnseq	r0, lr
    12cc:	1aff0850 	bne	fffc3414 <__bss_end__+0xfff9f348>
    12d0:	24320b23 	ldrtcs	r0, [r2], #-2851	; 0xfffff4dd
    12d4:	9f220073 	svcls	0x00220073
	...
    12e0:	0000054c 	andeq	r0, r0, ip, asr #10
    12e4:	00000576 	andeq	r0, r0, r6, ror r5
    12e8:	76500001 	ldrbvc	r0, [r0], -r1
    12ec:	9c000005 	stcls	0, cr0, [r0], {5}
    12f0:	01000005 	tsteq	r0, r5
    12f4:	00005600 	andeq	r5, r0, r0, lsl #12
    12f8:	00000000 	andeq	r0, r0, r0
    12fc:	059c0000 	ldreq	r0, [ip]
    1300:	05a10000 	streq	r0, [r1, #0]!
    1304:	00010000 	andeq	r0, r1, r0
    1308:	0005a150 	andeq	sl, r5, r0, asr r1
    130c:	0005a200 	andeq	sl, r5, r0, lsl #4
    1310:	f3000400 	vshl.u8	d0, d0, d0
    1314:	a29f5001 	addsge	r5, pc, #1
    1318:	a5000005 	strge	r0, [r0, #-5]
    131c:	01000005 	tsteq	r0, r5
    1320:	05a55000 	streq	r5, [r5, #0]!
    1324:	05a60000 	streq	r0, [r6, #0]!
    1328:	00040000 	andeq	r0, r4, r0
    132c:	9f5001f3 	svcls	0x005001f3
	...
    1338:	0000059c 	muleq	r0, ip, r5
    133c:	000005a1 	andeq	r0, r0, r1, lsr #11
    1340:	a1510001 	cmpge	r1, r1
    1344:	a2000005 	andge	r0, r0, #5
    1348:	04000005 	streq	r0, [r0], #-5
    134c:	5101f300 	mrspl	pc, SP_irq	; <UNPREDICTABLE>
    1350:	0005a29f 	muleq	r5, pc, r2	; <UNPREDICTABLE>
    1354:	0005a500 	andeq	sl, r5, r0, lsl #10
    1358:	51000100 	mrspl	r0, (UNDEF: 16)
    135c:	000005a5 	andeq	r0, r0, r5, lsr #11
    1360:	000005a6 	andeq	r0, r0, r6, lsr #11
    1364:	01f30004 	mvnseq	r0, r4
    1368:	00009f51 	andeq	r9, r0, r1, asr pc
    136c:	00000000 	andeq	r0, r0, r0
    1370:	05a80000 	streq	r0, [r8, #0]!
    1374:	05b60000 	ldreq	r0, [r6, #0]!
    1378:	00010000 	andeq	r0, r1, r0
    137c:	0005b650 	andeq	fp, r5, r0, asr r6
    1380:	0005bb00 	andeq	fp, r5, r0, lsl #22
    1384:	51000100 	mrspl	r0, (UNDEF: 16)
    1388:	000005bb 			; <UNDEFINED> instruction: 0x000005bb
    138c:	000005bc 			; <UNDEFINED> instruction: 0x000005bc
    1390:	01f30004 	mvnseq	r0, r4
    1394:	05bc9f50 	ldreq	r9, [ip, #3920]!	; 0xf50
    1398:	05c00000 	strbeq	r0, [r0]
    139c:	00010000 	andeq	r0, r1, r0
    13a0:	0005c050 	andeq	ip, r5, r0, asr r0
    13a4:	0005c500 	andeq	ip, r5, r0, lsl #10
    13a8:	51000100 	mrspl	r0, (UNDEF: 16)
    13ac:	000005c5 	andeq	r0, r0, r5, asr #11
    13b0:	000005c6 	andeq	r0, r0, r6, asr #11
    13b4:	01f30004 	mvnseq	r0, r4
    13b8:	00009f50 	andeq	r9, r0, r0, asr pc
    13bc:	00000000 	andeq	r0, r0, r0
    13c0:	05a80000 	streq	r0, [r8, #0]!
    13c4:	05b40000 	ldreq	r0, [r4, #0]!
    13c8:	00010000 	andeq	r0, r1, r0
    13cc:	0005b451 	andeq	fp, r5, r1, asr r4
    13d0:	0005bc00 	andeq	fp, r5, r0, lsl #24
    13d4:	f3000400 	vshl.u8	d0, d0, d0
    13d8:	bc9f5101 	ldflts	f5, [pc], {1}
    13dc:	be000005 	cdplt	0, 0, cr0, cr0, cr5, {0}
    13e0:	01000005 	tsteq	r0, r5
    13e4:	05be5100 	ldreq	r5, [lr, #256]!	; 0x100
    13e8:	05c60000 	strbeq	r0, [r6]
    13ec:	00040000 	andeq	r0, r4, r0
    13f0:	9f5101f3 	svcls	0x005101f3
	...
    13fc:	000005bc 			; <UNDEFINED> instruction: 0x000005bc
    1400:	000005c0 	andeq	r0, r0, r0, asr #11
    1404:	c0500001 	subsgt	r0, r0, r1
    1408:	c5000005 	strgt	r0, [r0, #-5]
    140c:	01000005 	tsteq	r0, r5
    1410:	05c55100 	strbeq	r5, [r5, #256]	; 0x100
    1414:	05c60000 	strbeq	r0, [r6]
    1418:	00040000 	andeq	r0, r4, r0
    141c:	9f5001f3 	svcls	0x005001f3
	...
    1428:	000005bc 			; <UNDEFINED> instruction: 0x000005bc
    142c:	000005c2 	andeq	r0, r0, r2, asr #11
    1430:	7c030009 	stcvc	0, cr0, [r3], {9}
    1434:	06000240 	streq	r0, [r0], -r0, asr #4
    1438:	c29f1c23 	addsgt	r1, pc, #8960	; 0x2300
    143c:	c5000005 	strgt	r0, [r0, #-5]
    1440:	01000005 	tsteq	r0, r5
    1444:	00005000 	andeq	r5, r0, r0
    1448:	00000000 	andeq	r0, r0, r0
    144c:	05b20000 	ldreq	r0, [r2, #0]!
    1450:	05b60000 	ldreq	r0, [r6, #0]!
    1454:	00010000 	andeq	r0, r1, r0
    1458:	0005b650 	andeq	fp, r5, r0, asr r6
    145c:	0005bb00 	andeq	fp, r5, r0, lsl #22
    1460:	51000100 	mrspl	r0, (UNDEF: 16)
    1464:	000005bb 			; <UNDEFINED> instruction: 0x000005bb
    1468:	000005bc 			; <UNDEFINED> instruction: 0x000005bc
    146c:	01f30004 	mvnseq	r0, r4
    1470:	00009f50 	andeq	r9, r0, r0, asr pc
    1474:	00000000 	andeq	r0, r0, r0
    1478:	05b20000 	ldreq	r0, [r2, #0]!
    147c:	05b80000 	ldreq	r0, [r8, #0]!
    1480:	00090000 	andeq	r0, r9, r0
    1484:	02407c03 	subeq	r7, r0, #768	; 0x300
    1488:	28230600 	stmdacs	r3!, {r9, sl}
    148c:	0005b89f 	muleq	r5, pc, r8	; <UNPREDICTABLE>
    1490:	0005bb00 	andeq	fp, r5, r0, lsl #22
    1494:	50000100 	andpl	r0, r0, r0, lsl #2
	...
    14a0:	000005c8 	andeq	r0, r0, r8, asr #11
    14a4:	000005da 	ldrdeq	r0, [r0], -sl
    14a8:	da500001 	ble	14014b4 <__bss_end__+0x13dd3e8>
    14ac:	ec000005 	stc	0, cr0, [r0], {5}
    14b0:	01000005 	tsteq	r0, r5
    14b4:	05ec5600 	strbeq	r5, [ip, #1536]!	; 0x600
    14b8:	05f00000 	ldrbeq	r0, [r0, #0]!
    14bc:	00040000 	andeq	r0, r4, r0
    14c0:	9f5001f3 	svcls	0x005001f3
	...
    14cc:	000005c8 	andeq	r0, r0, r8, asr #11
    14d0:	000005d8 	ldrdeq	r0, [r0], -r8
    14d4:	d8510001 	ldmdale	r1, {r0}^
    14d8:	ec000005 	stc	0, cr0, [r0], {5}
    14dc:	01000005 	tsteq	r0, r5
    14e0:	05ec5500 	strbeq	r5, [ip, #1280]!	; 0x500
    14e4:	05f00000 	ldrbeq	r0, [r0, #0]!
    14e8:	00040000 	andeq	r0, r4, r0
    14ec:	9f5101f3 	svcls	0x005101f3
	...
    14f8:	000005d6 	ldrdeq	r0, [r0], -r6
    14fc:	000005d8 	ldrdeq	r0, [r0], -r8
    1500:	00700006 	rsbseq	r0, r0, r6
    1504:	9f1a0071 	svcls	0x001a0071
    1508:	000005d8 	ldrdeq	r0, [r0], -r8
    150c:	000005df 	ldrdeq	r0, [r0], -pc	; <UNPREDICTABLE>
    1510:	df510001 	svcle	0x00510001
    1514:	e0000005 	and	r0, r0, r5
    1518:	06000005 	streq	r0, [r0], -r5
    151c:	75007600 	strvc	r7, [r0, #-1536]	; 0xfffffa00
    1520:	009f1a00 	addseq	r1, pc, r0, lsl #20
    1524:	00000000 	andeq	r0, r0, r0
    1528:	d6000000 	strle	r0, [r0], -r0
    152c:	dc000005 	stcle	0, cr0, [r0], {5}
    1530:	09000005 	stmdbeq	r0, {r0, r2}
    1534:	407c0300 	rsbsmi	r0, ip, r0, lsl #6
    1538:	23060002 	movwcs	r0, #24578	; 0x6002
    153c:	05dc9f1c 	ldrbeq	r9, [ip, #3868]	; 0xf1c
    1540:	05df0000 	ldrbeq	r0, [pc]	; 1548 <_init-0xf294>
    1544:	00010000 	andeq	r0, r1, r0
    1548:	00000050 	andeq	r0, r0, r0, asr r0
    154c:	00000000 	andeq	r0, r0, r0
    1550:	0005e000 	andeq	lr, r5, r0
    1554:	0005e600 	andeq	lr, r5, r0, lsl #12
    1558:	76000700 	strvc	r0, [r0], -r0, lsl #14
    155c:	00752000 	rsbseq	r2, r5, r0
    1560:	05e69f1a 	strbeq	r9, [r6, #3866]!	; 0xf1a
    1564:	05ef0000 	strbeq	r0, [pc, #0]!	; 156c <_init-0xf270>
    1568:	00010000 	andeq	r0, r1, r0
    156c:	0005ef51 	andeq	lr, r5, r1, asr pc
    1570:	0005f000 	andeq	pc, r5, r0
    1574:	f3000900 	vmls.i8	d0, d0, d0
    1578:	f3205001 	vhadd.u32	d5, d0, d1
    157c:	9f1a5101 	svcls	0x001a5101
	...
    1588:	000005e0 	andeq	r0, r0, r0, ror #11
    158c:	000005e8 	andeq	r0, r0, r8, ror #11
    1590:	7c030009 	stcvc	0, cr0, [r3], {9}
    1594:	06000240 	streq	r0, [r0], -r0, asr #4
    1598:	e89f2823 	ldm	pc, {r0, r1, r5, fp, sp}	; <UNPREDICTABLE>
    159c:	ef000005 	svc	0x00000005
    15a0:	01000005 	tsteq	r0, r5
    15a4:	00005000 	andeq	r5, r0, r0
    15a8:	00000000 	andeq	r0, r0, r0
    15ac:	05f00000 	ldrbeq	r0, [r0, #0]!
    15b0:	05fe0000 	ldrbeq	r0, [lr, #0]!
    15b4:	00010000 	andeq	r0, r1, r0
    15b8:	0005fe50 	andeq	pc, r5, r0, asr lr	; <UNPREDICTABLE>
    15bc:	00060000 	andeq	r0, r6, r0
    15c0:	f3000400 	vshl.u8	d0, d0, d0
    15c4:	009f5001 	addseq	r5, pc, r1
    15c8:	18000006 	stmdane	r0, {r1, r2}
    15cc:	01000006 	tsteq	r0, r6
    15d0:	06185000 	ldreq	r5, [r8], -r0
    15d4:	064a0000 	strbeq	r0, [sl], -r0
    15d8:	00040000 	andeq	r0, r4, r0
    15dc:	9f5001f3 	svcls	0x005001f3
	...
    15e8:	000005f0 	strdeq	r0, [r0], -r0	; <UNPREDICTABLE>
    15ec:	000005fe 	strdeq	r0, [r0], -lr
    15f0:	9f380002 	svcls	0x00380002
    15f4:	000005fe 	strdeq	r0, [r0], -lr
    15f8:	00000600 	andeq	r0, r0, r0, lsl #12
    15fc:	00500001 	subseq	r0, r0, r1
    1600:	3e000006 	cdpcc	0, 0, cr0, cr0, cr6, {0}
    1604:	02000006 	andeq	r0, r0, #6
    1608:	3e9f3800 	cdpcc	8, 9, cr3, cr15, cr0, {0}
    160c:	40000006 	andmi	r0, r0, r6
    1610:	01000006 	tsteq	r0, r6
    1614:	06405000 	strbeq	r5, [r0], -r0
    1618:	064a0000 	strbeq	r0, [sl], -r0
    161c:	00020000 	andeq	r0, r2, r0
    1620:	00009f38 	andeq	r9, r0, r8, lsr pc
    1624:	00000000 	andeq	r0, r0, r0
    1628:	061e0000 	ldreq	r0, [lr], -r0
    162c:	06220000 	strteq	r0, [r2], -r0
    1630:	000f0000 	andeq	r0, pc, r0
    1634:	00740070 	rsbseq	r0, r4, r0, ror r0
    1638:	ff081a3f 			; <UNDEFINED> instruction: 0xff081a3f
    163c:	2524311a 	strcs	r3, [r4, #-282]!	; 0xfffffee6
    1640:	009f1a33 	addseq	r1, pc, r3, lsr sl	; <UNPREDICTABLE>
    1644:	00000000 	andeq	r0, r0, r0
    1648:	18000000 	stmdane	r0, {}	; <UNPREDICTABLE>
    164c:	1e000006 	cdpne	0, 0, cr0, cr0, cr6, {0}
    1650:	01000006 	tsteq	r0, r6
    1654:	06405000 	strbeq	r5, [r0], -r0
    1658:	06430000 	strbeq	r0, [r3], -r0
    165c:	00010000 	andeq	r0, r1, r0
    1660:	00000050 	andeq	r0, r0, r0, asr r0
    1664:	00000000 	andeq	r0, r0, r0
    1668:	0006a000 	andeq	sl, r6, r0
    166c:	0006bc00 	andeq	fp, r6, r0, lsl #24
    1670:	54000100 	strpl	r0, [r0], #-256	; 0xffffff00
    1674:	000006c0 	andeq	r0, r0, r0, asr #13
    1678:	000006cc 	andeq	r0, r0, ip, asr #13
    167c:	00540001 	subseq	r0, r4, r1
    1680:	00000000 	andeq	r0, r0, r0
    1684:	5c000000 	stcpl	0, cr0, [r0], {-0}
    1688:	6a000006 	bvs	16a8 <_init-0xf134>
    168c:	02000006 	andeq	r0, r0, #6
    1690:	009f3400 	addseq	r3, pc, r0, lsl #8
    1694:	00000000 	andeq	r0, r0, r0
    1698:	5c000000 	stcpl	0, cr0, [r0], {-0}
    169c:	6a000006 	bvs	16bc <_init-0xf120>
    16a0:	02000006 	andeq	r0, r0, #6
    16a4:	009f3700 	addseq	r3, pc, r0, lsl #14
    16a8:	00000000 	andeq	r0, r0, r0
    16ac:	5c000000 	stcpl	0, cr0, [r0], {-0}
    16b0:	69000006 	stmdbvs	r0, {r1, r2}
    16b4:	05000006 	streq	r0, [r0, #-6]
    16b8:	407c0300 	rsbsmi	r0, ip, r0, lsl #6
    16bc:	00000002 	andeq	r0, r0, r2
    16c0:	00000000 	andeq	r0, r0, r0
    16c4:	065c0000 	ldrbeq	r0, [ip], -r0
    16c8:	066a0000 	strbteq	r0, [sl], -r0
    16cc:	00020000 	andeq	r0, r2, r0
    16d0:	00009f45 	andeq	r9, r0, r5, asr #30
    16d4:	00000000 	andeq	r0, r0, r0
    16d8:	065c0000 	ldrbeq	r0, [ip], -r0
    16dc:	066a0000 	strbteq	r0, [sl], -r0
    16e0:	00040000 	andeq	r0, r4, r0
    16e4:	9f24434c 	svcls	0x0024434c
	...
    16f0:	0000065c 	andeq	r0, r0, ip, asr r6
    16f4:	0000066a 	andeq	r0, r0, sl, ror #12
    16f8:	43400004 	movtmi	r0, #4
    16fc:	00009f24 	andeq	r9, r0, r4, lsr #30
    1700:	00000000 	andeq	r0, r0, r0
    1704:	066a0000 	strbteq	r0, [sl], -r0
    1708:	06780000 	ldrbteq	r0, [r8], -r0
    170c:	00020000 	andeq	r0, r2, r0
    1710:	00009f34 	andeq	r9, r0, r4, lsr pc
    1714:	00000000 	andeq	r0, r0, r0
    1718:	066a0000 	strbteq	r0, [sl], -r0
    171c:	06780000 	ldrbteq	r0, [r8], -r0
    1720:	00020000 	andeq	r0, r2, r0
    1724:	00009f38 	andeq	r9, r0, r8, lsr pc
    1728:	00000000 	andeq	r0, r0, r0
    172c:	066a0000 	strbteq	r0, [sl], -r0
    1730:	06770000 	ldrbteq	r0, [r7], -r0
    1734:	00050000 	andeq	r0, r5, r0
    1738:	02407c03 	subeq	r7, r0, #768	; 0x300
	...
    1744:	00066a00 	andeq	r6, r6, r0, lsl #20
    1748:	00067800 	andeq	r7, r6, r0, lsl #16
    174c:	48000200 	stmdami	r0, {r9}
    1750:	0000009f 	muleq	r0, pc, r0	; <UNPREDICTABLE>
    1754:	00000000 	andeq	r0, r0, r0
    1758:	00066a00 	andeq	r6, r6, r0, lsl #20
    175c:	00067800 	andeq	r7, r6, r0, lsl #16
    1760:	4c000400 	cfstrsmi	mvf0, [r0], {-0}
    1764:	009f2446 	addseq	r2, pc, r6, asr #8
    1768:	00000000 	andeq	r0, r0, r0
    176c:	6a000000 	bvs	1774 <_init-0xf068>
    1770:	78000006 	stmdavc	r0, {r1, r2}
    1774:	04000006 	streq	r0, [r0], #-6
    1778:	24464000 	strbcs	r4, [r6], #-0
    177c:	0000009f 	muleq	r0, pc, r0	; <UNPREDICTABLE>
    1780:	00000000 	andeq	r0, r0, r0
    1784:	00067800 	andeq	r7, r6, r0, lsl #16
    1788:	00068600 	andeq	r8, r6, r0, lsl #12
    178c:	34000200 	strcc	r0, [r0], #-512	; 0xfffffe00
    1790:	0000009f 	muleq	r0, pc, r0	; <UNPREDICTABLE>
    1794:	00000000 	andeq	r0, r0, r0
    1798:	00067800 	andeq	r7, r6, r0, lsl #16
    179c:	00068600 	andeq	r8, r6, r0, lsl #12
    17a0:	39000200 	stmdbcc	r0, {r9}
    17a4:	0000009f 	muleq	r0, pc, r0	; <UNPREDICTABLE>
    17a8:	00000000 	andeq	r0, r0, r0
    17ac:	00067800 	andeq	r7, r6, r0, lsl #16
    17b0:	00068500 	andeq	r8, r6, r0, lsl #10
    17b4:	03000500 	movweq	r0, #1280	; 0x500
    17b8:	0002407c 	andeq	r4, r2, ip, ror r0
	...
    17c4:	00000678 	andeq	r0, r0, r8, ror r6
    17c8:	00000686 	andeq	r0, r0, r6, lsl #13
    17cc:	9f4b0002 	svcls	0x004b0002
	...
    17d8:	00000678 	andeq	r0, r0, r8, ror r6
    17dc:	00000686 	andeq	r0, r0, r6, lsl #13
    17e0:	494c0004 	stmdbmi	ip, {r2}^
    17e4:	00009f24 	andeq	r9, r0, r4, lsr #30
    17e8:	00000000 	andeq	r0, r0, r0
    17ec:	06780000 	ldrbteq	r0, [r8], -r0
    17f0:	06860000 	streq	r0, [r6], r0
    17f4:	00040000 	andeq	r0, r4, r0
    17f8:	9f244940 	svcls	0x00244940
	...
    1804:	00000686 	andeq	r0, r0, r6, lsl #13
    1808:	00000692 	muleq	r0, r2, r6
    180c:	9f340002 	svcls	0x00340002
	...
    1818:	00000686 	andeq	r0, r0, r6, lsl #13
    181c:	00000692 	muleq	r0, r2, r6
    1820:	9f3a0002 	svcls	0x003a0002
	...
    182c:	00000686 	andeq	r0, r0, r6, lsl #13
    1830:	0000068e 	andeq	r0, r0, lr, lsl #13
    1834:	7c030009 	stcvc	0, cr0, [r3], {9}
    1838:	06000240 	streq	r0, [r0], -r0, asr #4
    183c:	8e9f0423 	cdphi	4, 9, cr0, cr15, cr3, {1}
    1840:	91000006 	tstls	r0, r6
    1844:	01000006 	tsteq	r0, r6
    1848:	00005000 	andeq	r5, r0, r0
    184c:	00000000 	andeq	r0, r0, r0
    1850:	06860000 	streq	r0, [r6], r0
    1854:	06920000 	ldreq	r0, [r2], r0
    1858:	00020000 	andeq	r0, r2, r0
    185c:	00009f30 	andeq	r9, r0, r0, lsr pc
    1860:	00000000 	andeq	r0, r0, r0
    1864:	06860000 	streq	r0, [r6], r0
    1868:	06920000 	ldreq	r0, [r2], r0
    186c:	00020000 	andeq	r0, r2, r0
    1870:	00009f37 	andeq	r9, r0, r7, lsr pc
    1874:	00000000 	andeq	r0, r0, r0
    1878:	06920000 	ldreq	r0, [r2], r0
    187c:	069e0000 	ldreq	r0, [lr], r0
    1880:	00020000 	andeq	r0, r2, r0
    1884:	00009f34 	andeq	r9, r0, r4, lsr pc
    1888:	00000000 	andeq	r0, r0, r0
    188c:	06920000 	ldreq	r0, [r2], r0
    1890:	069e0000 	ldreq	r0, [lr], r0
    1894:	00020000 	andeq	r0, r2, r0
    1898:	00009f3b 	andeq	r9, r0, fp, lsr pc
    189c:	00000000 	andeq	r0, r0, r0
    18a0:	06920000 	ldreq	r0, [r2], r0
    18a4:	069a0000 	ldreq	r0, [sl], r0
    18a8:	00090000 	andeq	r0, r9, r0
    18ac:	02407c03 	subeq	r7, r0, #768	; 0x300
    18b0:	04230600 	strteq	r0, [r3], #-1536	; 0xfffffa00
    18b4:	00069a9f 	muleq	r6, pc, sl	; <UNPREDICTABLE>
    18b8:	00069d00 	andeq	r9, r6, r0, lsl #26
    18bc:	50000100 	andpl	r0, r0, r0, lsl #2
	...
    18c8:	00000692 	muleq	r0, r2, r6
    18cc:	0000069e 	muleq	r0, lr, r6
    18d0:	9f330002 	svcls	0x00330002
	...
    18dc:	00000692 	muleq	r0, r2, r6
    18e0:	0000069e 	muleq	r0, lr, r6
    18e4:	38080003 	stmdacc	r8, {r0, r1}
    18e8:	0000009f 	muleq	r0, pc, r0	; <UNPREDICTABLE>
    18ec:	00000000 	andeq	r0, r0, r0
    18f0:	00069200 	andeq	r9, r6, r0, lsl #4
    18f4:	00069e00 	andeq	r9, r6, r0, lsl #28
    18f8:	08000300 	stmdaeq	r0, {r8, r9}
    18fc:	00009f20 	andeq	r9, r0, r0, lsr #30
    1900:	00000000 	andeq	r0, r0, r0
    1904:	06a80000 	strteq	r0, [r8], r0
    1908:	06bc0000 	ldrteq	r0, [ip], r0
    190c:	00030000 	andeq	r0, r3, r0
    1910:	c09f3008 	addsgt	r3, pc, r8
    1914:	cc000006 	stcgt	0, cr0, [r0], {6}
    1918:	03000006 	movweq	r0, #6
    191c:	9f300800 	svcls	0x00300800
	...
    1928:	000006a8 	andeq	r0, r0, r8, lsr #13
    192c:	000006bc 			; <UNDEFINED> instruction: 0x000006bc
    1930:	c0540001 	subsgt	r0, r4, r1
    1934:	cc000006 	stcgt	0, cr0, [r0], {6}
    1938:	01000006 	tsteq	r0, r6
    193c:	00005400 	andeq	r5, r0, r0, lsl #8
    1940:	00000000 	andeq	r0, r0, r0
    1944:	06cc0000 	strbeq	r0, [ip], r0
    1948:	06e20000 	strbteq	r0, [r2], r0
    194c:	00020000 	andeq	r0, r2, r0
    1950:	00009f30 	andeq	r9, r0, r0, lsr pc
    1954:	00000000 	andeq	r0, r0, r0
    1958:	06cc0000 	strbeq	r0, [ip], r0
    195c:	06e20000 	strbteq	r0, [r2], r0
    1960:	00020000 	andeq	r0, r2, r0
    1964:	00009f37 	andeq	r9, r0, r7, lsr pc
    1968:	00000000 	andeq	r0, r0, r0
    196c:	06cc0000 	strbeq	r0, [ip], r0
    1970:	06e10000 	strbteq	r0, [r1], r0
    1974:	00050000 	andeq	r0, r5, r0
    1978:	02407c03 	subeq	r7, r0, #768	; 0x300
	...
    1984:	0006cc00 	andeq	ip, r6, r0, lsl #24
    1988:	0006e200 	andeq	lr, r6, r0, lsl #4
    198c:	45000200 	strmi	r0, [r0, #-512]	; 0xfffffe00
    1990:	0000009f 	muleq	r0, pc, r0	; <UNPREDICTABLE>
    1994:	00000000 	andeq	r0, r0, r0
    1998:	0006cc00 	andeq	ip, r6, r0, lsl #24
    199c:	0006e200 	andeq	lr, r6, r0, lsl #4
    19a0:	4c000400 	cfstrsmi	mvf0, [r0], {-0}
    19a4:	009f2443 	addseq	r2, pc, r3, asr #8
    19a8:	00000000 	andeq	r0, r0, r0
    19ac:	e2000000 	and	r0, r0, #0
    19b0:	ee000006 	cdp	0, 0, cr0, cr0, cr6, {0}
    19b4:	02000006 	andeq	r0, r0, #6
    19b8:	009f3000 	addseq	r3, pc, r0
    19bc:	00000000 	andeq	r0, r0, r0
    19c0:	e2000000 	and	r0, r0, #0
    19c4:	ee000006 	cdp	0, 0, cr0, cr0, cr6, {0}
    19c8:	02000006 	andeq	r0, r0, #6
    19cc:	009f3800 	addseq	r3, pc, r0, lsl #16
    19d0:	00000000 	andeq	r0, r0, r0
    19d4:	e2000000 	and	r0, r0, #0
    19d8:	ed000006 	stc	0, cr0, [r0, #-24]	; 0xffffffe8
    19dc:	05000006 	streq	r0, [r0, #-6]
    19e0:	407c0300 	rsbsmi	r0, ip, r0, lsl #6
    19e4:	00000002 	andeq	r0, r0, r2
    19e8:	00000000 	andeq	r0, r0, r0
    19ec:	06e20000 	strbteq	r0, [r2], r0
    19f0:	06ee0000 	strbteq	r0, [lr], r0
    19f4:	00020000 	andeq	r0, r2, r0
    19f8:	00009f48 	andeq	r9, r0, r8, asr #30
    19fc:	00000000 	andeq	r0, r0, r0
    1a00:	06e20000 	strbteq	r0, [r2], r0
    1a04:	06ee0000 	strbteq	r0, [lr], r0
    1a08:	00040000 	andeq	r0, r4, r0
    1a0c:	9f24464c 	svcls	0x0024464c
	...
    1a18:	000006ee 	andeq	r0, r0, lr, ror #13
    1a1c:	000006fa 	strdeq	r0, [r0], -sl
    1a20:	9f300002 	svcls	0x00300002
	...
    1a2c:	000006ee 	andeq	r0, r0, lr, ror #13
    1a30:	000006fa 	strdeq	r0, [r0], -sl
    1a34:	9f390002 	svcls	0x00390002
	...
    1a40:	000006ee 	andeq	r0, r0, lr, ror #13
    1a44:	000006f9 	strdeq	r0, [r0], -r9
    1a48:	7c030005 	stcvc	0, cr0, [r3], {5}
    1a4c:	00000240 	andeq	r0, r0, r0, asr #4
    1a50:	00000000 	andeq	r0, r0, r0
    1a54:	ee000000 	cdp	0, 0, cr0, cr0, cr0, {0}
    1a58:	fa000006 	blx	1a78 <_init-0xed64>
    1a5c:	02000006 	andeq	r0, r0, #6
    1a60:	009f4b00 	addseq	r4, pc, r0, lsl #22
    1a64:	00000000 	andeq	r0, r0, r0
    1a68:	ee000000 	cdp	0, 0, cr0, cr0, cr0, {0}
    1a6c:	fa000006 	blx	1a8c <_init-0xed50>
    1a70:	04000006 	streq	r0, [r0], #-6
    1a74:	24494c00 	strbcs	r4, [r9], #-3072	; 0xfffff400
    1a78:	0000009f 	muleq	r0, pc, r0	; <UNPREDICTABLE>
    1a7c:	00000000 	andeq	r0, r0, r0
    1a80:	0006fa00 	andeq	pc, r6, r0, lsl #20
    1a84:	00070600 	andeq	r0, r7, r0, lsl #12
    1a88:	30000200 	andcc	r0, r0, r0, lsl #4
    1a8c:	0000009f 	muleq	r0, pc, r0	; <UNPREDICTABLE>
    1a90:	00000000 	andeq	r0, r0, r0
    1a94:	0006fa00 	andeq	pc, r6, r0, lsl #20
    1a98:	00070600 	andeq	r0, r7, r0, lsl #12
    1a9c:	3a000200 	bcc	22a4 <_init-0xe538>
    1aa0:	0000009f 	muleq	r0, pc, r0	; <UNPREDICTABLE>
    1aa4:	00000000 	andeq	r0, r0, r0
    1aa8:	0006fa00 	andeq	pc, r6, r0, lsl #20
    1aac:	00070200 	andeq	r0, r7, r0, lsl #4
    1ab0:	03000900 	movweq	r0, #2304	; 0x900
    1ab4:	0002407c 	andeq	r4, r2, ip, ror r0
    1ab8:	9f042306 	svcls	0x00042306
    1abc:	00000702 	andeq	r0, r0, r2, lsl #14
    1ac0:	00000705 	andeq	r0, r0, r5, lsl #14
    1ac4:	00500001 	subseq	r0, r0, r1
    1ac8:	00000000 	andeq	r0, r0, r0
    1acc:	fa000000 	blx	1ad4 <_init-0xed08>
    1ad0:	06000006 	streq	r0, [r0], -r6
    1ad4:	02000007 	andeq	r0, r0, #7
    1ad8:	009f3700 	addseq	r3, pc, r0, lsl #14
    1adc:	00000000 	andeq	r0, r0, r0
    1ae0:	06000000 	streq	r0, [r0], -r0
    1ae4:	0e000007 	cdpeq	0, 0, cr0, cr0, cr7, {0}
    1ae8:	09000007 	stmdbeq	r0, {r0, r1, r2}
    1aec:	407c0300 	rsbsmi	r0, ip, r0, lsl #6
    1af0:	23060002 	movwcs	r0, #24578	; 0x6002
    1af4:	070e9f04 	streq	r9, [lr, -r4, lsl #30]
    1af8:	07150000 	ldreq	r0, [r5, -r0]
    1afc:	00010000 	andeq	r0, r1, r0
    1b00:	00000050 	andeq	r0, r0, r0, asr r0
    1b04:	00000000 	andeq	r0, r0, r0
    1b08:	00072800 	andeq	r2, r7, r0, lsl #16
    1b0c:	00073400 	andeq	r3, r7, r0, lsl #8
    1b10:	50000100 	andpl	r0, r0, r0, lsl #2
    1b14:	00000734 	andeq	r0, r0, r4, lsr r7
    1b18:	0000073a 	andeq	r0, r0, sl, lsr r7
    1b1c:	01f30004 	mvnseq	r0, r4
    1b20:	00009f50 	andeq	r9, r0, r0, asr pc
    1b24:	00000000 	andeq	r0, r0, r0
    1b28:	07280000 	streq	r0, [r8, -r0]!
    1b2c:	07360000 	ldreq	r0, [r6, -r0]!
    1b30:	00090000 	andeq	r0, r9, r0
    1b34:	02408c03 	subeq	r8, r0, #768	; 0x300
    1b38:	08230600 	stmdaeq	r3!, {r9, sl}
    1b3c:	0007369f 	muleq	r7, pc, r6	; <UNPREDICTABLE>
    1b40:	00073900 	andeq	r3, r7, r0, lsl #18
    1b44:	50000100 	andpl	r0, r0, r0, lsl #2
	...
    1b50:	0000073c 	andeq	r0, r0, ip, lsr r7
    1b54:	00000744 	andeq	r0, r0, r4, asr #14
    1b58:	44500001 	ldrbmi	r0, [r0], #-1
    1b5c:	4b000007 	blmi	1b80 <_init-0xec5c>
    1b60:	01000007 	tsteq	r0, r7
    1b64:	074b5100 	strbeq	r5, [fp, -r0, lsl #2]
    1b68:	07680000 	strbeq	r0, [r8, -r0]!
    1b6c:	00040000 	andeq	r0, r4, r0
    1b70:	9f5001f3 	svcls	0x005001f3
	...
    1b7c:	0000074c 	andeq	r0, r0, ip, asr #14
    1b80:	00000760 	andeq	r0, r0, r0, ror #14
    1b84:	00700006 	rsbseq	r0, r0, r6
    1b88:	9f1afe09 	svcls	0x001afe09
	...
    1b94:	0000074c 	andeq	r0, r0, ip, asr #14
    1b98:	00000760 	andeq	r0, r0, r0, ror #14
    1b9c:	8c030009 	stchi	0, cr0, [r3], {9}
    1ba0:	06000240 	streq	r0, [r0], -r0, asr #4
    1ba4:	609f0823 	addsvs	r0, pc, r3, lsr #16
    1ba8:	67000007 	strvs	r0, [r0, -r7]
    1bac:	01000007 	tsteq	r0, r7
    1bb0:	00005000 	andeq	r5, r0, r0
    1bb4:	00000000 	andeq	r0, r0, r0
    1bb8:	07680000 	strbeq	r0, [r8, -r0]!
    1bbc:	07760000 	ldrbeq	r0, [r6, -r0]!
    1bc0:	00010000 	andeq	r0, r1, r0
    1bc4:	00077650 	andeq	r7, r7, r0, asr r6
    1bc8:	00077a00 	andeq	r7, r7, r0, lsl #20
    1bcc:	f3000400 	vshl.u8	d0, d0, d0
    1bd0:	009f5001 	addseq	r5, pc, r1
    1bd4:	00000000 	andeq	r0, r0, r0
    1bd8:	68000000 	stmdavs	r0, {}	; <UNPREDICTABLE>
    1bdc:	79000007 	stmdbvc	r0, {r0, r1, r2}
    1be0:	05000007 	streq	r0, [r0, #-7]
    1be4:	408c0300 	addmi	r0, ip, r0, lsl #6
    1be8:	00000002 	andeq	r0, r0, r2
    1bec:	00000000 	andeq	r0, r0, r0
    1bf0:	077c0000 	ldrbeq	r0, [ip, -r0]!
    1bf4:	07920000 	ldreq	r0, [r2, r0]
    1bf8:	00010000 	andeq	r0, r1, r0
    1bfc:	00079250 	andeq	r9, r7, r0, asr r2
    1c00:	00081400 	andeq	r1, r8, r0, lsl #8
    1c04:	f3000400 	vshl.u8	d0, d0, d0
    1c08:	009f5001 	addseq	r5, pc, r1
    1c0c:	00000000 	andeq	r0, r0, r0
    1c10:	ea000000 	b	1c18 <_init-0xebc4>
    1c14:	f8000007 			; <UNDEFINED> instruction: 0xf8000007
    1c18:	06000007 	streq	r0, [r0], -r7
    1c1c:	08007500 	stmdaeq	r0, {r8, sl, ip, sp, lr}
    1c20:	009f1aff 			; <UNDEFINED> instruction: 0x009f1aff
    1c24:	00000000 	andeq	r0, r0, r0
    1c28:	aa000000 	bge	1c30 <_init-0xebac>
    1c2c:	bc000007 	stclt	0, cr0, [r0], {7}
    1c30:	01000007 	tsteq	r0, r7
    1c34:	00005500 	andeq	r5, r0, r0, lsl #10
    1c38:	00000000 	andeq	r0, r0, r0
    1c3c:	07bc0000 	ldreq	r0, [ip, r0]!
    1c40:	07ca0000 	strbeq	r0, [sl, r0]
    1c44:	00010000 	andeq	r0, r1, r0
    1c48:	00080251 	andeq	r0, r8, r1, asr r2
    1c4c:	00080700 	andeq	r0, r8, r0, lsl #14
    1c50:	51000100 	mrspl	r0, (UNDEF: 16)
	...
    1c5c:	000007ca 	andeq	r0, r0, sl, asr #15
    1c60:	000007ce 	andeq	r0, r0, lr, asr #15
    1c64:	f8540001 			; <UNDEFINED> instruction: 0xf8540001
    1c68:	02000007 	andeq	r0, r0, #7
    1c6c:	01000008 	tsteq	r0, r8
    1c70:	00005400 	andeq	r5, r0, r0, lsl #8
    1c74:	00000000 	andeq	r0, r0, r0
    1c78:	07d20000 	ldrbeq	r0, [r2, r0]
    1c7c:	07d60000 	ldrbeq	r0, [r6, r0]
    1c80:	00010000 	andeq	r0, r1, r0
    1c84:	00080c57 	andeq	r0, r8, r7, asr ip
    1c88:	00081400 	andeq	r1, r8, r0, lsl #8
    1c8c:	57000100 	strpl	r0, [r0, -r0, lsl #2]
	...
    1c98:	000007d6 	ldrdeq	r0, [r0], -r6
    1c9c:	000007ea 	andeq	r0, r0, sl, ror #15
    1ca0:	00500001 	subseq	r0, r0, r1
    1ca4:	00000000 	andeq	r0, r0, r0
    1ca8:	14000000 	strne	r0, [r0], #-0
    1cac:	38000008 	stmdacc	r0, {r3}
    1cb0:	01000008 	tsteq	r0, r8
    1cb4:	08385000 	ldmdaeq	r8!, {ip, lr}
    1cb8:	08c20000 	stmiaeq	r2, {}^	; <UNPREDICTABLE>
    1cbc:	00020000 	andeq	r0, r2, r0
    1cc0:	08c24c91 	stmiaeq	r2, {r0, r4, r7, sl, fp, lr}^
    1cc4:	08c60000 	stmiaeq	r6, {}^	; <UNPREDICTABLE>
    1cc8:	00020000 	andeq	r0, r2, r0
    1ccc:	08c64c7d 	stmiaeq	r6, {r0, r2, r3, r4, r5, r6, sl, fp, lr}^
    1cd0:	09100000 	ldmdbeq	r0, {}	; <UNPREDICTABLE>
    1cd4:	00020000 	andeq	r0, r2, r0
    1cd8:	00004c91 	muleq	r0, r1, ip
    1cdc:	00000000 	andeq	r0, r0, r0
    1ce0:	08140000 	ldmdaeq	r4, {}	; <UNPREDICTABLE>
    1ce4:	08360000 	ldmdaeq	r6!, {}	; <UNPREDICTABLE>
    1ce8:	00010000 	andeq	r0, r1, r0
    1cec:	00083651 	andeq	r3, r8, r1, asr r6
    1cf0:	0008c200 	andeq	ip, r8, r0, lsl #4
    1cf4:	91000200 	mrsls	r0, R8_usr
    1cf8:	0008c254 	andeq	ip, r8, r4, asr r2
    1cfc:	0008c600 	andeq	ip, r8, r0, lsl #12
    1d00:	7d000200 	sfmvc	f0, 4, [r0, #-0]
    1d04:	0008c654 	andeq	ip, r8, r4, asr r6
    1d08:	00091000 	andeq	r1, r9, r0
    1d0c:	91000200 	mrsls	r0, R8_usr
    1d10:	00000054 	andeq	r0, r0, r4, asr r0
    1d14:	00000000 	andeq	r0, r0, r0
    1d18:	00081400 	andeq	r1, r8, r0, lsl #8
    1d1c:	00082600 	andeq	r2, r8, r0, lsl #12
    1d20:	52000100 	andpl	r0, r0, #0, 2
    1d24:	00000826 	andeq	r0, r0, r6, lsr #16
    1d28:	000008c2 	andeq	r0, r0, r2, asr #17
    1d2c:	c2570001 	subsgt	r0, r7, #1
    1d30:	c6000008 	strgt	r0, [r0], -r8
    1d34:	04000008 	streq	r0, [r0], #-8
    1d38:	5201f300 	andpl	pc, r1, #0, 6
    1d3c:	0008c69f 	muleq	r8, pc, r6	; <UNPREDICTABLE>
    1d40:	00091000 	andeq	r1, r9, r0
    1d44:	57000100 	strpl	r0, [r0, -r0, lsl #2]
	...
    1d50:	0000082a 	andeq	r0, r0, sl, lsr #16
    1d54:	000008c2 	andeq	r0, r0, r2, asr #17
    1d58:	c2540001 	subsgt	r0, r4, #1
    1d5c:	c5000008 	strgt	r0, [r0, #-8]
    1d60:	01000008 	tsteq	r0, r8
    1d64:	08c55000 	stmiaeq	r5, {ip, lr}^
    1d68:	08c60000 	stmiaeq	r6, {}^	; <UNPREDICTABLE>
    1d6c:	00060000 	andeq	r0, r6, r0
    1d70:	3406487d 	strcc	r4, [r6], #-2173	; 0xfffff783
    1d74:	08c69f1c 	stmiaeq	r6, {r2, r3, r4, r8, r9, sl, fp, ip, pc}^
    1d78:	09100000 	ldmdbeq	r0, {}	; <UNPREDICTABLE>
    1d7c:	00010000 	andeq	r0, r1, r0
    1d80:	00000054 	andeq	r0, r0, r4, asr r0
    1d84:	00000000 	andeq	r0, r0, r0
    1d88:	00083c00 	andeq	r3, r8, r0, lsl #24
    1d8c:	00083f00 	andeq	r3, r8, r0, lsl #30
    1d90:	53000100 	movwpl	r0, #256	; 0x100
    1d94:	0000083f 	andeq	r0, r0, pc, lsr r8
    1d98:	000008be 			; <UNDEFINED> instruction: 0x000008be
    1d9c:	007d0002 	rsbseq	r0, sp, r2
    1da0:	000008be 			; <UNDEFINED> instruction: 0x000008be
    1da4:	000008c2 	andeq	r0, r0, r2, asr #17
    1da8:	48910002 	ldmmi	r1, {r1}
    1dac:	000008c2 	andeq	r0, r0, r2, asr #17
    1db0:	000008c6 	andeq	r0, r0, r6, asr #17
    1db4:	487d0002 	ldmdami	sp!, {r1}^
    1db8:	000008c6 	andeq	r0, r0, r6, asr #17
    1dbc:	00000910 	andeq	r0, r0, r0, lsl r9
    1dc0:	007d0002 	rsbseq	r0, sp, r2
	...
    1dcc:	0000083c 	andeq	r0, r0, ip, lsr r8
    1dd0:	00000858 	andeq	r0, r0, r8, asr r8
    1dd4:	9f300002 	svcls	0x00300002
    1dd8:	00000858 	andeq	r0, r0, r8, asr r8
    1ddc:	000008c2 	andeq	r0, r0, r2, asr #17
    1de0:	c6550001 	ldrbgt	r0, [r5], -r1
    1de4:	d0000008 	andle	r0, r0, r8
    1de8:	01000008 	tsteq	r0, r8
    1dec:	08d05500 	ldmeq	r0, {r8, sl, ip, lr}^
    1df0:	09100000 	ldmdbeq	r0, {}	; <UNPREDICTABLE>
    1df4:	00020000 	andeq	r0, r2, r0
    1df8:	00005091 	muleq	r0, r1, r0
    1dfc:	00000000 	andeq	r0, r0, r0
    1e00:	083c0000 	ldmdaeq	ip!, {}	; <UNPREDICTABLE>
    1e04:	08580000 	ldmdaeq	r8, {}^	; <UNPREDICTABLE>
    1e08:	00020000 	andeq	r0, r2, r0
    1e0c:	08589f30 	ldmdaeq	r8, {r4, r5, r8, r9, sl, fp, ip, pc}^
    1e10:	08c20000 	stmiaeq	r2, {}^	; <UNPREDICTABLE>
    1e14:	00010000 	andeq	r0, r1, r0
    1e18:	0008c656 	andeq	ip, r8, r6, asr r6
    1e1c:	00091000 	andeq	r1, r9, r0
    1e20:	56000100 	strpl	r0, [r0], -r0, lsl #2
	...
    1e2c:	00000888 	andeq	r0, r0, r8, lsl #17
    1e30:	0000088e 	andeq	r0, r0, lr, lsl #17
    1e34:	00510001 	subseq	r0, r1, r1
    1e38:	00000000 	andeq	r0, r0, r0
    1e3c:	68000000 	stmdavs	r0, {}	; <UNPREDICTABLE>
    1e40:	6a000008 	bvs	1e68 <_init-0xe974>
    1e44:	01000008 	tsteq	r0, r8
    1e48:	088e5100 	stmeq	lr, {r8, ip, lr}
    1e4c:	089b0000 	ldmeq	fp, {}	; <UNPREDICTABLE>
    1e50:	00010000 	andeq	r0, r1, r0
    1e54:	00000051 	andeq	r0, r0, r1, asr r0
    1e58:	00000000 	andeq	r0, r0, r0
    1e5c:	0008d400 	andeq	sp, r8, r0, lsl #8
    1e60:	0008e200 	andeq	lr, r8, r0, lsl #4
    1e64:	50000100 	andpl	r0, r0, r0, lsl #2
	...
    1e70:	00000910 	andeq	r0, r0, r0, lsl r9
    1e74:	00000930 	andeq	r0, r0, r0, lsr r9
    1e78:	30500001 	subscc	r0, r0, r1
    1e7c:	52000009 	andpl	r0, r0, #9
    1e80:	01000009 	tsteq	r0, r9
    1e84:	09525700 	ldmdbeq	r2, {r8, r9, sl, ip, lr}^
    1e88:	09ea0000 	stmibeq	sl!, {}^	; <UNPREDICTABLE>
    1e8c:	00040000 	andeq	r0, r4, r0
    1e90:	9f5001f3 	svcls	0x005001f3
    1e94:	000009ea 	andeq	r0, r0, sl, ror #19
    1e98:	000009f0 	strdeq	r0, [r0], -r0	; <UNPREDICTABLE>
    1e9c:	00570001 	subseq	r0, r7, r1
    1ea0:	00000000 	andeq	r0, r0, r0
    1ea4:	10000000 	andne	r0, r0, r0
    1ea8:	28000009 	stmdacs	r0, {r0, r3}
    1eac:	01000009 	tsteq	r0, r9
    1eb0:	09285100 	stmdbeq	r8!, {r8, ip, lr}
    1eb4:	094a0000 	stmdbeq	sl, {}^	; <UNPREDICTABLE>
    1eb8:	00010000 	andeq	r0, r1, r0
    1ebc:	00094a58 	andeq	r4, r9, r8, asr sl
    1ec0:	0009ea00 	andeq	lr, r9, r0, lsl #20
    1ec4:	f3000400 	vshl.u8	d0, d0, d0
    1ec8:	ea9f5101 	b	fe7d62d4 <__bss_end__+0xfe7b2208>
    1ecc:	f0000009 			; <UNDEFINED> instruction: 0xf0000009
    1ed0:	01000009 	tsteq	r0, r9
    1ed4:	00005800 	andeq	r5, r0, r0, lsl #16
    1ed8:	00000000 	andeq	r0, r0, r0
    1edc:	09260000 	stmdbeq	r6!, {}	; <UNPREDICTABLE>
    1ee0:	09de0000 	ldmibeq	lr, {}^	; <UNPREDICTABLE>
    1ee4:	00010000 	andeq	r0, r1, r0
    1ee8:	0009de54 	andeq	sp, r9, r4, asr lr
    1eec:	0009e100 	andeq	lr, r9, r0, lsl #2
    1ef0:	50000100 	andpl	r0, r0, r0, lsl #2
    1ef4:	000009e2 	andeq	r0, r0, r2, ror #19
    1ef8:	000009f0 	strdeq	r0, [r0], -r0	; <UNPREDICTABLE>
    1efc:	00540001 	subseq	r0, r4, r1
    1f00:	00000000 	andeq	r0, r0, r0
    1f04:	2e000000 	cdpcs	0, 0, cr0, cr0, cr0, {0}
    1f08:	de000009 	cdple	0, 0, cr0, cr0, cr9, {0}
    1f0c:	01000009 	tsteq	r0, r9
    1f10:	09de5600 	ldmibeq	lr, {r9, sl, ip, lr}^
    1f14:	09e10000 	stmibeq	r1!, {}^	; <UNPREDICTABLE>
    1f18:	00030000 	andeq	r0, r3, r0
    1f1c:	e29f0470 	adds	r0, pc, #112, 8	; 0x70000000
    1f20:	f0000009 			; <UNDEFINED> instruction: 0xf0000009
    1f24:	01000009 	tsteq	r0, r9
    1f28:	00005600 	andeq	r5, r0, r0, lsl #12
    1f2c:	00000000 	andeq	r0, r0, r0
    1f30:	093e0000 	ldmdbeq	lr!, {}	; <UNPREDICTABLE>
    1f34:	09520000 	ldmdbeq	r2, {}^	; <UNPREDICTABLE>
    1f38:	00020000 	andeq	r0, r2, r0
    1f3c:	098c9f30 	stmibeq	ip, {r4, r5, r8, r9, sl, fp, ip, pc}
    1f40:	09900000 	ldmibeq	r0, {}	; <UNPREDICTABLE>
    1f44:	00070000 	andeq	r0, r7, r0
    1f48:	01f30077 	mvnseq	r0, r7, ror r0
    1f4c:	ea9f1c50 	b	fe7c9094 <__bss_end__+0xfe7a4fc8>
    1f50:	f0000009 			; <UNDEFINED> instruction: 0xf0000009
    1f54:	02000009 	andeq	r0, r0, #9
    1f58:	009f3000 	addseq	r3, pc, r0
    1f5c:	00000000 	andeq	r0, r0, r0
    1f60:	64000000 	strvs	r0, [r0], #-0
    1f64:	6a000009 	bvs	1f90 <_init-0xe84c>
    1f68:	01000009 	tsteq	r0, r9
    1f6c:	00005100 	andeq	r5, r0, r0, lsl #2
    1f70:	00000000 	andeq	r0, r0, r0
    1f74:	096a0000 	stmdbeq	sl!, {}^	; <UNPREDICTABLE>
    1f78:	09720000 	ldmdbeq	r2!, {}^	; <UNPREDICTABLE>
    1f7c:	00010000 	andeq	r0, r1, r0
    1f80:	0009e251 	andeq	lr, r9, r1, asr r2
    1f84:	0009e700 	andeq	lr, r9, r0, lsl #14
    1f88:	51000100 	mrspl	r0, (UNDEF: 16)
	...
    1f94:	000009f0 	strdeq	r0, [r0], -r0	; <UNPREDICTABLE>
    1f98:	000009f7 	strdeq	r0, [r0], -r7
    1f9c:	f7500001 			; <UNDEFINED> instruction: 0xf7500001
    1fa0:	f8000009 			; <UNDEFINED> instruction: 0xf8000009
    1fa4:	04000009 	streq	r0, [r0], #-9
    1fa8:	5001f300 	andpl	pc, r1, r0, lsl #6
    1fac:	0000009f 	muleq	r0, pc, r0	; <UNPREDICTABLE>
    1fb0:	00000000 	andeq	r0, r0, r0
    1fb4:	0009f000 	andeq	pc, r9, r0
    1fb8:	0009f400 	andeq	pc, r9, r0, lsl #8
    1fbc:	51000100 	mrspl	r0, (UNDEF: 16)
    1fc0:	000009f4 	strdeq	r0, [r0], -r4
    1fc4:	000009f7 	strdeq	r0, [r0], -r7
    1fc8:	f7520001 			; <UNDEFINED> instruction: 0xf7520001
    1fcc:	f8000009 			; <UNDEFINED> instruction: 0xf8000009
    1fd0:	04000009 	streq	r0, [r0], #-9
    1fd4:	5101f300 	mrspl	pc, SP_irq	; <UNPREDICTABLE>
    1fd8:	0000009f 	muleq	r0, pc, r0	; <UNPREDICTABLE>
    1fdc:	00000000 	andeq	r0, r0, r0
    1fe0:	0009f800 	andeq	pc, r9, r0, lsl #16
    1fe4:	000a0600 	andeq	r0, sl, r0, lsl #12
    1fe8:	50000100 	andpl	r0, r0, r0, lsl #2
    1fec:	00000a06 	andeq	r0, r0, r6, lsl #20
    1ff0:	00000a0a 	andeq	r0, r0, sl, lsl #20
    1ff4:	01f30004 	mvnseq	r0, r4
    1ff8:	00009f50 	andeq	r9, r0, r0, asr pc
    1ffc:	00000000 	andeq	r0, r0, r0
    2000:	09f80000 	ldmibeq	r8!, {}^	; <UNPREDICTABLE>
    2004:	0a090000 	beq	24200c <__bss_end__+0x21df40>
    2008:	00050000 	andeq	r0, r5, r0
    200c:	02408c03 	subeq	r8, r0, #768	; 0x300
	...
    2018:	000a0c00 	andeq	r0, sl, r0, lsl #24
    201c:	000a0e00 	andeq	r0, sl, r0, lsl #28
    2020:	50000100 	andpl	r0, r0, r0, lsl #2
    2024:	00000a0e 	andeq	r0, r0, lr, lsl #20
    2028:	00000a24 	andeq	r0, r0, r4, lsr #20
    202c:	01f30004 	mvnseq	r0, r4
    2030:	00009f50 	andeq	r9, r0, r0, asr pc
    2034:	00000000 	andeq	r0, r0, r0
    2038:	0a0c0000 	beq	302040 <__bss_end__+0x2ddf74>
    203c:	0a1c0000 	beq	702044 <__bss_end__+0x6ddf78>
    2040:	00010000 	andeq	r0, r1, r0
    2044:	000a1c51 	andeq	r1, sl, r1, asr ip
    2048:	000a2400 	andeq	r2, sl, r0, lsl #8
    204c:	f3000400 	vshl.u8	d0, d0, d0
    2050:	009f5101 	addseq	r5, pc, r1, lsl #2
    2054:	00000000 	andeq	r0, r0, r0
    2058:	0c000000 	stceq	0, cr0, [r0], {-0}
    205c:	2300000a 	movwcs	r0, #10
    2060:	0500000a 	streq	r0, [r0, #-10]
    2064:	408c0300 	addmi	r0, ip, r0, lsl #6
    2068:	00000002 	andeq	r0, r0, r2
    206c:	00000000 	andeq	r0, r0, r0
    2070:	0a0c0000 	beq	302078 <__bss_end__+0x2ddfac>
    2074:	0a0e0000 	beq	38207c <__bss_end__+0x35dfb0>
    2078:	00030000 	andeq	r0, r3, r0
    207c:	0e9f1570 	mrceq	5, 4, r1, cr15, cr0, {3}
    2080:	2400000a 	strcs	r0, [r0], #-10
    2084:	0600000a 	streq	r0, [r0], -sl
    2088:	5001f300 	andpl	pc, r1, r0, lsl #6
    208c:	009f1523 	addseq	r1, pc, r3, lsr #10
    2090:	00000000 	andeq	r0, r0, r0
    2094:	24000000 	strcs	r0, [r0], #-0
    2098:	3800000a 	stmdacc	r0, {r1, r3}
    209c:	0100000a 	tsteq	r0, sl
    20a0:	0a385000 	beq	e160a8 <__bss_end__+0xdf1fdc>
    20a4:	0aa60000 	beq	fe9820ac <__bss_end__+0xfe95dfe0>
    20a8:	00040000 	andeq	r0, r4, r0
    20ac:	9f5001f3 	svcls	0x005001f3
	...
    20b8:	00000a36 	andeq	r0, r0, r6, lsr sl
    20bc:	00000a88 	andeq	r0, r0, r8, lsl #21
    20c0:	88540001 	ldmdahi	r4, {r0}^
    20c4:	8b00000a 	blhi	20f4 <_init-0xe6e8>
    20c8:	0100000a 	tsteq	r0, sl
    20cc:	0a8c5000 	beq	fe3160d4 <__bss_end__+0xfe2f2008>
    20d0:	0aa60000 	beq	fe9820d8 <__bss_end__+0xfe95e00c>
    20d4:	00010000 	andeq	r0, r1, r0
    20d8:	00000054 	andeq	r0, r0, r4, asr r0
    20dc:	00000000 	andeq	r0, r0, r0
    20e0:	000a3600 	andeq	r3, sl, r0, lsl #12
    20e4:	000a8800 	andeq	r8, sl, r0, lsl #16
    20e8:	74000300 	strvc	r0, [r0], #-768	; 0xfffffd00
    20ec:	0a889f04 	beq	fe229d04 <__bss_end__+0xfe205c38>
    20f0:	0a8b0000 	beq	fe2c20f8 <__bss_end__+0xfe29e02c>
    20f4:	00030000 	andeq	r0, r3, r0
    20f8:	8c9f0470 	cfldrshi	mvf0, [pc], {112}	; 0x70
    20fc:	a600000a 	strge	r0, [r0], -sl
    2100:	0300000a 	movweq	r0, #10
    2104:	9f047400 	svcls	0x00047400
	...
    2110:	00000a5a 	andeq	r0, r0, sl, asr sl
    2114:	00000a60 	andeq	r0, r0, r0, ror #20
    2118:	8c510001 	mrrchi	0, 0, r0, r1, cr1
    211c:	9300000a 	movwls	r0, #10
    2120:	0100000a 	tsteq	r0, sl
    2124:	0a935100 	beq	fe4d652c <__bss_end__+0xfe4b2460>
    2128:	0a940000 	beq	fe502130 <__bss_end__+0xfe4de064>
    212c:	00050000 	andeq	r0, r5, r0
    2130:	25380076 	ldrcs	r0, [r8, #-118]!	; 0xffffff8a
    2134:	0000009f 	muleq	r0, pc, r0	; <UNPREDICTABLE>
    2138:	00000000 	andeq	r0, r0, r0
    213c:	000a5a00 	andeq	r5, sl, r0, lsl #20
    2140:	000a6000 	andeq	r6, sl, r0
    2144:	74000300 	strvc	r0, [r0], #-768	; 0xfffffd00
    2148:	0a8c9f04 	beq	fe329d60 <__bss_end__+0xfe305c94>
    214c:	0a940000 	beq	fe502154 <__bss_end__+0xfe4de088>
    2150:	00030000 	andeq	r0, r3, r0
    2154:	009f0474 	addseq	r0, pc, r4, ror r4	; <UNPREDICTABLE>
    2158:	00000000 	andeq	r0, r0, r0
    215c:	62000000 	andvs	r0, r0, #0
    2160:	6600000a 	strvs	r0, [r0], -sl
    2164:	0100000a 	tsteq	r0, sl
    2168:	0a985100 	beq	fe616570 <__bss_end__+0xfe5f24a4>
    216c:	0aa10000 	beq	fe842174 <__bss_end__+0xfe81e0a8>
    2170:	00010000 	andeq	r0, r1, r0
    2174:	000aa151 	andeq	sl, sl, r1, asr r1
    2178:	000aa600 	andeq	sl, sl, r0, lsl #12
    217c:	76000600 	strvc	r0, [r0], -r0, lsl #12
    2180:	1aff0800 	bne	fffc4188 <__bss_end__+0xfffa00bc>
    2184:	0000009f 	muleq	r0, pc, r0	; <UNPREDICTABLE>
    2188:	00000000 	andeq	r0, r0, r0
    218c:	000a6200 	andeq	r6, sl, r0, lsl #4
    2190:	000a8800 	andeq	r8, sl, r0, lsl #16
    2194:	74000300 	strvc	r0, [r0], #-768	; 0xfffffd00
    2198:	0a889f04 	beq	fe229db0 <__bss_end__+0xfe205ce4>
    219c:	0a8b0000 	beq	fe2c21a4 <__bss_end__+0xfe29e0d8>
    21a0:	00030000 	andeq	r0, r3, r0
    21a4:	989f0470 	ldmls	pc, {r4, r5, r6, sl}	; <UNPREDICTABLE>
    21a8:	a600000a 	strge	r0, [r0], -sl
    21ac:	0300000a 	movweq	r0, #10
    21b0:	9f047400 	svcls	0x00047400
	...
    21bc:	00000a66 	andeq	r0, r0, r6, ror #20
    21c0:	00000a68 	andeq	r0, r0, r8, ror #20
    21c4:	70540001 	subsvc	r0, r4, r1
    21c8:	7a00000a 	bvc	21f8 <_init-0xe5e4>
    21cc:	0100000a 	tsteq	r0, sl
    21d0:	00005400 	andeq	r5, r0, r0, lsl #8
    21d4:	00000000 	andeq	r0, r0, r0
    21d8:	0ab60000 	beq	fed821e0 <__bss_end__+0xfed5e114>
    21dc:	0abc0000 	beq	fef021e4 <__bss_end__+0xfeede118>
    21e0:	00030000 	andeq	r0, r3, r0
    21e4:	bc9f0470 	cfldrslt	mvf0, [pc], {112}	; 0x70
    21e8:	2000000a 	andcs	r0, r0, sl
    21ec:	0100000b 	tsteq	r0, fp
    21f0:	0b205600 	bleq	8179f8 <__bss_end__+0x7f392c>
    21f4:	0b220000 	bleq	8821fc <__bss_end__+0x85e130>
    21f8:	00030000 	andeq	r0, r3, r0
    21fc:	229f0470 	addscs	r0, pc, #112, 8	; 0x70000000
    2200:	2400000b 	strcs	r0, [r0], #-11
    2204:	0900000b 	stmdbeq	r0, {r0, r1, r3}
    2208:	409c0300 	addsmi	r0, ip, r0, lsl #6
    220c:	23060002 	movwcs	r0, #24578	; 0x6002
    2210:	00009f04 	andeq	r9, r0, r4, lsl #30
    2214:	00000000 	andeq	r0, r0, r0
    2218:	0ab60000 	beq	fed82220 <__bss_end__+0xfed5e154>
    221c:	0aca0000 	beq	ff282224 <__bss_end__+0xff25e158>
    2220:	00030000 	andeq	r0, r3, r0
    2224:	ca9f0475 	bgt	fe7c3400 <__bss_end__+0xfe79f334>
    2228:	2000000a 	andcs	r0, r0, sl
    222c:	0100000b 	tsteq	r0, fp
    2230:	0b205700 	bleq	817e38 <__bss_end__+0x7f3d6c>
    2234:	0b240000 	bleq	90223c <__bss_end__+0x8de170>
    2238:	00030000 	andeq	r0, r3, r0
    223c:	009f0475 	addseq	r0, pc, r5, ror r4	; <UNPREDICTABLE>
    2240:	00000000 	andeq	r0, r0, r0
    2244:	ba000000 	blt	224c <_init-0xe590>
    2248:	ce00000a 	cdpgt	0, 0, cr0, cr0, cr10, {0}
    224c:	0200000a 	andeq	r0, r0, #10
    2250:	009f3300 	addseq	r3, pc, r0, lsl #6
    2254:	00000000 	andeq	r0, r0, r0
    2258:	ba000000 	blt	2260 <_init-0xe57c>
    225c:	ce00000a 	cdpgt	0, 0, cr0, cr0, cr10, {0}
    2260:	0200000a 	andeq	r0, r0, #10
    2264:	009f4000 	addseq	r4, pc, r0
    2268:	00000000 	andeq	r0, r0, r0
    226c:	ba000000 	blt	2274 <_init-0xe568>
    2270:	c800000a 	stmdagt	r0, {r1, r3}
    2274:	0900000a 	stmdbeq	r0, {r1, r3}
    2278:	407c0300 	rsbsmi	r0, ip, r0, lsl #6
    227c:	23060002 	movwcs	r0, #24578	; 0x6002
    2280:	0ac89f04 	beq	ff229e98 <__bss_end__+0xff205dcc>
    2284:	0acd0000 	beq	ff34228c <__bss_end__+0xff31e1c0>
    2288:	00010000 	andeq	r0, r1, r0
    228c:	00000050 	andeq	r0, r0, r0, asr r0
    2290:	00000000 	andeq	r0, r0, r0
    2294:	000aba00 	andeq	fp, sl, r0, lsl #20
    2298:	000ace00 	andeq	ip, sl, r0, lsl #28
    229c:	42000200 	andmi	r0, r0, #0, 4
    22a0:	0000009f 	muleq	r0, pc, r0	; <UNPREDICTABLE>
    22a4:	00000000 	andeq	r0, r0, r0
    22a8:	000aba00 	andeq	fp, sl, r0, lsl #20
    22ac:	000ace00 	andeq	ip, sl, r0, lsl #28
    22b0:	4c000400 	cfstrsmi	mvf0, [r0], {-0}
    22b4:	009f2440 	addseq	r2, pc, r0, asr #8
    22b8:	00000000 	andeq	r0, r0, r0
    22bc:	ba000000 	blt	22c4 <_init-0xe518>
    22c0:	ce00000a 	cdpgt	0, 0, cr0, cr0, cr10, {0}
    22c4:	0400000a 	streq	r0, [r0], #-10
    22c8:	243f4800 	ldrtcs	r4, [pc], #-2048	; 22d0 <_init-0xe50c>
    22cc:	0000009f 	muleq	r0, pc, r0	; <UNPREDICTABLE>
    22d0:	00000000 	andeq	r0, r0, r0
    22d4:	000ace00 	andeq	ip, sl, r0, lsl #28
    22d8:	000ade00 	andeq	sp, sl, r0, lsl #28
    22dc:	33000200 	movwcc	r0, #512	; 0x200
    22e0:	0000009f 	muleq	r0, pc, r0	; <UNPREDICTABLE>
    22e4:	00000000 	andeq	r0, r0, r0
    22e8:	000ace00 	andeq	ip, sl, r0, lsl #28
    22ec:	000ade00 	andeq	sp, sl, r0, lsl #28
    22f0:	43000200 	movwmi	r0, #512	; 0x200
    22f4:	0000009f 	muleq	r0, pc, r0	; <UNPREDICTABLE>
    22f8:	00000000 	andeq	r0, r0, r0
    22fc:	000ace00 	andeq	ip, sl, r0, lsl #28
    2300:	000ada00 	andeq	sp, sl, r0, lsl #20
    2304:	03000900 	movweq	r0, #2304	; 0x900
    2308:	0002407c 	andeq	r4, r2, ip, ror r0
    230c:	9f042306 	svcls	0x00042306
    2310:	00000ada 	ldrdeq	r0, [r0], -sl
    2314:	00000add 	ldrdeq	r0, [r0], -sp
    2318:	00500001 	subseq	r0, r0, r1
    231c:	00000000 	andeq	r0, r0, r0
    2320:	ce000000 	cdpgt	0, 0, cr0, cr0, cr0, {0}
    2324:	de00000a 	cdple	0, 0, cr0, cr0, cr10, {0}
    2328:	0200000a 	andeq	r0, r0, #10
    232c:	009f4b00 	addseq	r4, pc, r0, lsl #22
    2330:	00000000 	andeq	r0, r0, r0
    2334:	ce000000 	cdpgt	0, 0, cr0, cr0, cr0, {0}
    2338:	de00000a 	cdple	0, 0, cr0, cr0, cr10, {0}
    233c:	0400000a 	streq	r0, [r0], #-10
    2340:	24494c00 	strbcs	r4, [r9], #-3072	; 0xfffff400
    2344:	0000009f 	muleq	r0, pc, r0	; <UNPREDICTABLE>
    2348:	00000000 	andeq	r0, r0, r0
    234c:	000ace00 	andeq	ip, sl, r0, lsl #28
    2350:	000ade00 	andeq	sp, sl, r0, lsl #28
    2354:	48000400 	stmdami	r0, {sl}
    2358:	009f2448 	addseq	r2, pc, r8, asr #8
    235c:	00000000 	andeq	r0, r0, r0
    2360:	de000000 	cdple	0, 0, cr0, cr0, cr0, {0}
    2364:	ea00000a 	b	2394 <_init-0xe448>
    2368:	0200000a 	andeq	r0, r0, #10
    236c:	009f3300 	addseq	r3, pc, r0, lsl #6
    2370:	00000000 	andeq	r0, r0, r0
    2374:	de000000 	cdple	0, 0, cr0, cr0, cr0, {0}
    2378:	ea00000a 	b	23a8 <_init-0xe434>
    237c:	0200000a 	andeq	r0, r0, #10
    2380:	009f4400 	addseq	r4, pc, r0, lsl #8
    2384:	00000000 	andeq	r0, r0, r0
    2388:	de000000 	cdple	0, 0, cr0, cr0, cr0, {0}
    238c:	e600000a 	str	r0, [r0], -sl
    2390:	0900000a 	stmdbeq	r0, {r1, r3}
    2394:	407c0300 	rsbsmi	r0, ip, r0, lsl #6
    2398:	23060002 	movwcs	r0, #24578	; 0x6002
    239c:	0ae69f08 	beq	ff9a9fc4 <__bss_end__+0xff985ef8>
    23a0:	0ae90000 	beq	ffa423a8 <__bss_end__+0xffa1e2dc>
    23a4:	00010000 	andeq	r0, r1, r0
    23a8:	00000050 	andeq	r0, r0, r0, asr r0
    23ac:	00000000 	andeq	r0, r0, r0
    23b0:	000ade00 	andeq	sp, sl, r0, lsl #28
    23b4:	000aea00 	andeq	lr, sl, r0, lsl #20
    23b8:	30000200 	andcc	r0, r0, r0, lsl #4
    23bc:	0000009f 	muleq	r0, pc, r0	; <UNPREDICTABLE>
    23c0:	00000000 	andeq	r0, r0, r0
    23c4:	000ade00 	andeq	sp, sl, r0, lsl #28
    23c8:	000aea00 	andeq	lr, sl, r0, lsl #20
    23cc:	37000200 	strcc	r0, [r0, -r0, lsl #4]
    23d0:	0000009f 	muleq	r0, pc, r0	; <UNPREDICTABLE>
    23d4:	00000000 	andeq	r0, r0, r0
    23d8:	000aea00 	andeq	lr, sl, r0, lsl #20
    23dc:	000af600 	andeq	pc, sl, r0, lsl #12
    23e0:	33000200 	movwcc	r0, #512	; 0x200
    23e4:	0000009f 	muleq	r0, pc, r0	; <UNPREDICTABLE>
    23e8:	00000000 	andeq	r0, r0, r0
    23ec:	000aea00 	andeq	lr, sl, r0, lsl #20
    23f0:	000af600 	andeq	pc, sl, r0, lsl #12
    23f4:	45000200 	strmi	r0, [r0, #-512]	; 0xfffffe00
    23f8:	0000009f 	muleq	r0, pc, r0	; <UNPREDICTABLE>
    23fc:	00000000 	andeq	r0, r0, r0
    2400:	000aea00 	andeq	lr, sl, r0, lsl #20
    2404:	000af200 	andeq	pc, sl, r0, lsl #4
    2408:	03000900 	movweq	r0, #2304	; 0x900
    240c:	0002407c 	andeq	r4, r2, ip, ror r0
    2410:	9f082306 	svcls	0x00082306
    2414:	00000af2 	strdeq	r0, [r0], -r2
    2418:	00000af5 	strdeq	r0, [r0], -r5
    241c:	00500001 	subseq	r0, r0, r1
    2420:	00000000 	andeq	r0, r0, r0
    2424:	ea000000 	b	242c <_init-0xe3b0>
    2428:	f600000a 			; <UNDEFINED> instruction: 0xf600000a
    242c:	0300000a 	movweq	r0, #10
    2430:	9f380800 	svcls	0x00380800
	...
    243c:	00000aea 	andeq	r0, r0, sl, ror #21
    2440:	00000af6 	strdeq	r0, [r0], -r6
    2444:	9f480002 	svcls	0x00480002
	...
    2450:	00000b24 	andeq	r0, r0, r4, lsr #22
    2454:	00000b3c 	andeq	r0, r0, ip, lsr fp
    2458:	9f300002 	svcls	0x00300002
	...
    2464:	00000b24 	andeq	r0, r0, r4, lsr #22
    2468:	00000b3c 	andeq	r0, r0, ip, lsr fp
    246c:	9f400002 	svcls	0x00400002
	...
    2478:	00000b24 	andeq	r0, r0, r4, lsr #22
    247c:	00000b38 	andeq	r0, r0, r8, lsr fp
    2480:	7c030009 	stcvc	0, cr0, [r3], {9}
    2484:	06000240 	streq	r0, [r0], -r0, asr #4
    2488:	389f0423 	ldmcc	pc, {r0, r1, r5, sl}	; <UNPREDICTABLE>
    248c:	3b00000b 	blcc	24c0 <_init-0xe31c>
    2490:	0100000b 	tsteq	r0, fp
    2494:	00005000 	andeq	r5, r0, r0
    2498:	00000000 	andeq	r0, r0, r0
    249c:	0b240000 	bleq	9024a4 <__bss_end__+0x8de3d8>
    24a0:	0b3c0000 	bleq	f024a8 <__bss_end__+0xede3dc>
    24a4:	00020000 	andeq	r0, r2, r0
    24a8:	00009f42 	andeq	r9, r0, r2, asr #30
    24ac:	00000000 	andeq	r0, r0, r0
    24b0:	0b240000 	bleq	9024b8 <__bss_end__+0x8de3ec>
    24b4:	0b3c0000 	bleq	f024bc <__bss_end__+0xede3f0>
    24b8:	00040000 	andeq	r0, r4, r0
    24bc:	9f24404c 	svcls	0x0024404c
	...
    24c8:	00000b3c 	andeq	r0, r0, ip, lsr fp
    24cc:	00000b4a 	andeq	r0, r0, sl, asr #22
    24d0:	9f300002 	svcls	0x00300002
	...
    24dc:	00000b3c 	andeq	r0, r0, ip, lsr fp
    24e0:	00000b4a 	andeq	r0, r0, sl, asr #22
    24e4:	9f430002 	svcls	0x00430002
	...
    24f0:	00000b3c 	andeq	r0, r0, ip, lsr fp
    24f4:	00000b46 	andeq	r0, r0, r6, asr #22
    24f8:	7c030009 	stcvc	0, cr0, [r3], {9}
    24fc:	06000240 	streq	r0, [r0], -r0, asr #4
    2500:	469f0423 	ldrmi	r0, [pc], r3, lsr #8
    2504:	4900000b 	stmdbmi	r0, {r0, r1, r3}
    2508:	0100000b 	tsteq	r0, fp
    250c:	00005000 	andeq	r5, r0, r0
    2510:	00000000 	andeq	r0, r0, r0
    2514:	0b3c0000 	bleq	f0251c <__bss_end__+0xede450>
    2518:	0b4a0000 	bleq	1282520 <__bss_end__+0x125e454>
    251c:	00020000 	andeq	r0, r2, r0
    2520:	00009f4b 	andeq	r9, r0, fp, asr #30
    2524:	00000000 	andeq	r0, r0, r0
    2528:	0b3c0000 	bleq	f02530 <__bss_end__+0xede464>
    252c:	0b4a0000 	bleq	1282534 <__bss_end__+0x125e468>
    2530:	00040000 	andeq	r0, r4, r0
    2534:	9f24494c 	svcls	0x0024494c
	...
    2540:	00000b4a 	andeq	r0, r0, sl, asr #22
    2544:	00000b56 	andeq	r0, r0, r6, asr fp
    2548:	9f300002 	svcls	0x00300002
	...
    2554:	00000b4a 	andeq	r0, r0, sl, asr #22
    2558:	00000b56 	andeq	r0, r0, r6, asr fp
    255c:	9f440002 	svcls	0x00440002
	...
    2568:	00000b4a 	andeq	r0, r0, sl, asr #22
    256c:	00000b52 	andeq	r0, r0, r2, asr fp
    2570:	7c030009 	stcvc	0, cr0, [r3], {9}
    2574:	06000240 	streq	r0, [r0], -r0, asr #4
    2578:	529f0823 	addspl	r0, pc, #2293760	; 0x230000
    257c:	5500000b 	strpl	r0, [r0, #-11]
    2580:	0100000b 	tsteq	r0, fp
    2584:	00005000 	andeq	r5, r0, r0
    2588:	00000000 	andeq	r0, r0, r0
    258c:	0b4a0000 	bleq	1282594 <__bss_end__+0x125e4c8>
    2590:	0b560000 	bleq	1582598 <__bss_end__+0x155e4cc>
    2594:	00020000 	andeq	r0, r2, r0
    2598:	00009f37 	andeq	r9, r0, r7, lsr pc
    259c:	00000000 	andeq	r0, r0, r0
    25a0:	0b560000 	bleq	15825a8 <__bss_end__+0x155e4dc>
    25a4:	0b5e0000 	bleq	17825ac <__bss_end__+0x175e4e0>
    25a8:	00090000 	andeq	r0, r9, r0
    25ac:	02407c03 	subeq	r7, r0, #768	; 0x300
    25b0:	08230600 	stmdaeq	r3!, {r9, sl}
    25b4:	000b5e9f 	muleq	fp, pc, lr	; <UNPREDICTABLE>
    25b8:	000b6500 	andeq	r6, fp, r0, lsl #10
    25bc:	50000100 	andpl	r0, r0, r0, lsl #2
	...
    25c8:	00000b68 	andeq	r0, r0, r8, ror #22
    25cc:	00000b80 	andeq	r0, r0, r0, lsl #23
    25d0:	80500001 	subshi	r0, r0, r1
    25d4:	8200000b 	andhi	r0, r0, #11
    25d8:	0400000b 	streq	r0, [r0], #-11
    25dc:	5001f300 	andpl	pc, r1, r0, lsl #6
    25e0:	000b829f 	muleq	fp, pc, r2	; <UNPREDICTABLE>
    25e4:	000b8600 	andeq	r8, fp, r0, lsl #12
    25e8:	50000100 	andpl	r0, r0, r0, lsl #2
    25ec:	00000b86 	andeq	r0, r0, r6, lsl #23
    25f0:	00000b88 	andeq	r0, r0, r8, lsl #23
    25f4:	01f30004 	mvnseq	r0, r4
    25f8:	0b889f50 	bleq	fe22a340 <__bss_end__+0xfe206274>
    25fc:	0b8a0000 	bleq	fe282604 <__bss_end__+0xfe25e538>
    2600:	00010000 	andeq	r0, r1, r0
    2604:	000b8a50 	andeq	r8, fp, r0, asr sl
    2608:	000bac00 	andeq	sl, fp, r0, lsl #24
    260c:	f3000400 	vshl.u8	d0, d0, d0
    2610:	009f5001 	addseq	r5, pc, r1
    2614:	00000000 	andeq	r0, r0, r0
    2618:	94000000 	strls	r0, [r0], #-0
    261c:	9800000b 	stmdals	r0, {r0, r1, r3}
    2620:	1200000b 	andne	r0, r0, #11
    2624:	f77f7000 			; <UNDEFINED> instruction: 0xf77f7000
    2628:	9b807025 	blls	fe01e6c4 <__bss_end__+0xfdffa5f8>
    262c:	f77f88e5 			; <UNDEFINED> instruction: 0xf77f88e5
    2630:	00f71b25 	rscseq	r1, r7, r5, lsr #22
    2634:	989f1c31 	ldmls	pc, {r0, r4, r5, sl, fp, ip}	; <UNPREDICTABLE>
    2638:	9b00000b 	blls	266c <_init-0xe170>
    263c:	1200000b 	andne	r0, r0, #11
    2640:	f7007000 			; <UNDEFINED> instruction: 0xf7007000
    2644:	9b817025 	blls	fe05e6e0 <__bss_end__+0xfe03a614>
    2648:	f77f88e5 			; <UNDEFINED> instruction: 0xf77f88e5
    264c:	00f71b25 	rscseq	r1, r7, r5, lsr #22
    2650:	009f1c31 	addseq	r1, pc, r1, lsr ip	; <UNPREDICTABLE>
    2654:	00000000 	andeq	r0, r0, r0
    2658:	b8000000 	stmdalt	r0, {}	; <UNPREDICTABLE>
    265c:	e200000b 	and	r0, r0, #11
    2660:	0100000b 	tsteq	r0, fp
    2664:	0be25000 	bleq	ff89666c <__bss_end__+0xff8725a0>
    2668:	0c080000 	stceq	0, cr0, [r8], {-0}
    266c:	00040000 	andeq	r0, r4, r0
    2670:	9f5001f3 	svcls	0x005001f3
	...
    267c:	00000bd0 	ldrdeq	r0, [r0], -r0	; <UNPREDICTABLE>
    2680:	00000c04 	andeq	r0, r0, r4, lsl #24
    2684:	04550001 	ldrbeq	r0, [r5], #-1
    2688:	0700000c 	streq	r0, [r0, -ip]
    268c:	0300000c 	movweq	r0, #12
    2690:	9f607000 	svcls	0x00607000
	...
    269c:	00000bd0 	ldrdeq	r0, [r0], -r0	; <UNPREDICTABLE>
    26a0:	00000bec 	andeq	r0, r0, ip, ror #23
    26a4:	04750003 	ldrbteq	r0, [r5], #-3
    26a8:	000bec9f 	muleq	fp, pc, ip	; <UNPREDICTABLE>
    26ac:	000bf100 	andeq	pc, fp, r0, lsl #2
    26b0:	50000100 	andpl	r0, r0, r0, lsl #2
    26b4:	00000bf1 	strdeq	r0, [r0], -r1
    26b8:	00000c04 	andeq	r0, r0, r4, lsl #24
    26bc:	04750003 	ldrbteq	r0, [r5], #-3
    26c0:	000c049f 	muleq	ip, pc, r4	; <UNPREDICTABLE>
    26c4:	000c0700 	andeq	r0, ip, r0, lsl #14
    26c8:	70000300 	andvc	r0, r0, r0, lsl #6
    26cc:	00009f64 	andeq	r9, r0, r4, ror #30
    26d0:	00000000 	andeq	r0, r0, r0
    26d4:	0bdc0000 	bleq	ff7026dc <__bss_end__+0xff6de610>
    26d8:	0c040000 	stceq	0, cr0, [r4], {-0}
    26dc:	00010000 	andeq	r0, r1, r0
    26e0:	000c0454 	andeq	r0, ip, r4, asr r4
    26e4:	000c0700 	andeq	r0, ip, r0, lsl #14
    26e8:	70000300 	andvc	r0, r0, r0, lsl #6
    26ec:	00009f68 	andeq	r9, r0, r8, ror #30
    26f0:	00000000 	andeq	r0, r0, r0
    26f4:	0be00000 	bleq	ff8026fc <__bss_end__+0xff7de630>
    26f8:	0c040000 	stceq	0, cr0, [r4], {-0}
    26fc:	00010000 	andeq	r0, r1, r0
    2700:	000c0456 	andeq	r0, ip, r6, asr r4
    2704:	000c0700 	andeq	r0, ip, r0, lsl #14
    2708:	50000100 	andpl	r0, r0, r0, lsl #2
	...
    2714:	00000be0 	andeq	r0, r0, r0, ror #23
    2718:	00000be9 	andeq	r0, r0, r9, ror #23
    271c:	0073000b 	rsbseq	r0, r3, fp
    2720:	500c2444 	andpl	r2, ip, r4, asr #8
    2724:	21000608 	tstcs	r0, r8, lsl #12
    2728:	0000009f 	muleq	r0, pc, r0	; <UNPREDICTABLE>
    272c:	00000000 	andeq	r0, r0, r0
    2730:	000c0800 	andeq	r0, ip, r0, lsl #16
    2734:	000c3400 	andeq	r3, ip, r0, lsl #8
    2738:	50000100 	andpl	r0, r0, r0, lsl #2
    273c:	00000c34 	andeq	r0, r0, r4, lsr ip
    2740:	00000c50 	andeq	r0, r0, r0, asr ip
    2744:	50540001 	subspl	r0, r4, r1
    2748:	ac00000c 	stcge	0, cr0, [r0], {12}
    274c:	0400000c 	streq	r0, [r0], #-12
    2750:	5001f300 	andpl	pc, r1, r0, lsl #6
    2754:	0000009f 	muleq	r0, pc, r0	; <UNPREDICTABLE>
    2758:	00000000 	andeq	r0, r0, r0
    275c:	000c0800 	andeq	r0, ip, r0, lsl #16
    2760:	000c3c00 	andeq	r3, ip, r0, lsl #24
    2764:	51000100 	mrspl	r0, (UNDEF: 16)
    2768:	00000c3c 	andeq	r0, r0, ip, lsr ip
    276c:	00000c50 	andeq	r0, r0, r0, asr ip
    2770:	50560001 	subspl	r0, r6, r1
    2774:	ac00000c 	stcge	0, cr0, [r0], {12}
    2778:	0400000c 	streq	r0, [r0], #-12
    277c:	5101f300 	mrspl	pc, SP_irq	; <UNPREDICTABLE>
    2780:	0000009f 	muleq	r0, pc, r0	; <UNPREDICTABLE>
    2784:	00000000 	andeq	r0, r0, r0
    2788:	000c2400 	andeq	r2, ip, r0, lsl #8
    278c:	000c4800 	andeq	r4, ip, r0, lsl #16
    2790:	79000300 	stmdbvc	r0, {r8, r9}
    2794:	0c489f04 	mcrreq	15, 0, r9, r8, cr4
    2798:	0c4d0000 	mareq	acc0, r0, sp
    279c:	00010000 	andeq	r0, r1, r0
    27a0:	000c4d50 	andeq	r4, ip, r0, asr sp
    27a4:	000cac00 	andeq	sl, ip, r0, lsl #24
    27a8:	79000300 	stmdbvc	r0, {r8, r9}
    27ac:	00009f04 	andeq	r9, r0, r4, lsl #30
    27b0:	00000000 	andeq	r0, r0, r0
    27b4:	0c400000 	mareq	acc0, r0, r0
    27b8:	0c700000 	ldcleq	0, cr0, [r0], #-0
    27bc:	00010000 	andeq	r0, r1, r0
    27c0:	000c7054 	andeq	r7, ip, r4, asr r0
    27c4:	000c7400 	andeq	r7, ip, r0, lsl #8
    27c8:	74000300 	strvc	r0, [r0], #-768	; 0xfffffd00
    27cc:	0c749f01 	ldcleq	15, cr9, [r4], #-4
    27d0:	0c760000 	ldcleq	0, cr0, [r6], #-0
    27d4:	00030000 	andeq	r0, r3, r0
    27d8:	769f0172 			; <UNDEFINED> instruction: 0x769f0172
    27dc:	7800000c 	stmdavc	r0, {r2, r3}
    27e0:	0300000c 	movweq	r0, #12
    27e4:	9f017400 	svcls	0x00017400
    27e8:	00000c78 	andeq	r0, r0, r8, ror ip
    27ec:	00000cac 	andeq	r0, r0, ip, lsr #25
    27f0:	00540001 	subseq	r0, r4, r1
    27f4:	00000000 	andeq	r0, r0, r0
    27f8:	40000000 	andmi	r0, r0, r0
    27fc:	8600000c 	strhi	r0, [r0], -ip
    2800:	0100000c 	tsteq	r0, ip
    2804:	0ca45600 	stceq	6, cr5, [r4]
    2808:	0cac0000 	stceq	0, cr0, [ip]
    280c:	00010000 	andeq	r0, r1, r0
    2810:	00000056 	andeq	r0, r0, r6, asr r0
    2814:	00000000 	andeq	r0, r0, r0
    2818:	000c6a00 	andeq	r6, ip, r0, lsl #20
    281c:	000c9300 	andeq	r9, ip, r0, lsl #6
    2820:	5e000100 	adfpls	f0, f0, f0
	...
    282c:	00000c6a 	andeq	r0, r0, sl, ror #24
    2830:	00000c70 	andeq	r0, r0, r0, ror ip
    2834:	9f300002 	svcls	0x00300002
    2838:	00000c70 	andeq	r0, r0, r0, ror ip
    283c:	00000c8a 	andeq	r0, r0, sl, lsl #25
    2840:	8a500001 	bhi	140284c <__bss_end__+0x13de780>
    2844:	9300000c 	movwls	r0, #12
    2848:	0100000c 	tsteq	r0, ip
    284c:	00005100 	andeq	r5, r0, r0, lsl #2
    2850:	00000000 	andeq	r0, r0, r0
    2854:	0c6a0000 	stcleq	0, cr0, [sl], #-0
    2858:	0c700000 	ldcleq	0, cr0, [r0], #-0
    285c:	00020000 	andeq	r0, r2, r0
    2860:	00009f30 	andeq	r9, r0, r0, lsr pc
    2864:	00000000 	andeq	r0, r0, r0
    2868:	0c400000 	mareq	acc0, r0, r0
    286c:	0c430000 	mareq	acc0, r0, r3
    2870:	000b0000 	andeq	r0, fp, r0
    2874:	24440073 	strbcs	r0, [r4], #-115	; 0xffffff8d
    2878:	0648400c 	strbeq	r4, [r8], -ip
    287c:	009f2100 	addseq	r2, pc, r0, lsl #2
    2880:	00000000 	andeq	r0, r0, r0
    2884:	ac000000 	stcge	0, cr0, [r0], {-0}
    2888:	d400000c 	strle	r0, [r0], #-12
    288c:	0100000c 	tsteq	r0, ip
    2890:	0cd45000 	ldcleq	0, cr5, [r4], {0}
    2894:	0cf40000 	ldcleq	0, cr0, [r4]
    2898:	00010000 	andeq	r0, r1, r0
    289c:	000cf45b 	andeq	pc, ip, fp, asr r4	; <UNPREDICTABLE>
    28a0:	000df000 	andeq	pc, sp, r0
    28a4:	f3000400 	vshl.u8	d0, d0, d0
    28a8:	009f5001 	addseq	r5, pc, r1
    28ac:	00000000 	andeq	r0, r0, r0
    28b0:	ac000000 	stcge	0, cr0, [r0], {-0}
    28b4:	dc00000c 	stcle	0, cr0, [r0], {12}
    28b8:	0100000c 	tsteq	r0, ip
    28bc:	0cdc5100 	ldfeqe	f5, [ip], {0}
    28c0:	0df00000 	ldcleq	0, cr0, [r0]
    28c4:	00010000 	andeq	r0, r1, r0
    28c8:	00000059 	andeq	r0, r0, r9, asr r0
    28cc:	00000000 	andeq	r0, r0, r0
    28d0:	000cac00 	andeq	sl, ip, r0, lsl #24
    28d4:	000ce300 	andeq	lr, ip, r0, lsl #6
    28d8:	52000100 	andpl	r0, r0, #0, 2
    28dc:	00000ce3 	andeq	r0, r0, r3, ror #25
    28e0:	00000cf4 	strdeq	r0, [r0], -r4
    28e4:	f4560001 			; <UNDEFINED> instruction: 0xf4560001
    28e8:	f000000c 			; <UNDEFINED> instruction: 0xf000000c
    28ec:	0400000d 	streq	r0, [r0], #-13
    28f0:	5201f300 	andpl	pc, r1, #0, 6
    28f4:	0000009f 	muleq	r0, pc, r0	; <UNPREDICTABLE>
    28f8:	00000000 	andeq	r0, r0, r0
    28fc:	000cc600 	andeq	ip, ip, r0, lsl #12
    2900:	000cf200 	andeq	pc, ip, r0, lsl #4
    2904:	54000100 	strpl	r0, [r0], #-256	; 0xffffff00
    2908:	00000cf2 	strdeq	r0, [r0], -r2
    290c:	00000d4c 	andeq	r0, r0, ip, asr #26
    2910:	60780003 	rsbsvs	r0, r8, r3
    2914:	000d4c9f 	muleq	sp, pc, ip	; <UNPREDICTABLE>
    2918:	000d5300 	andeq	r5, sp, r0, lsl #6
    291c:	70000300 	andvc	r0, r0, r0, lsl #6
    2920:	0d539f60 	ldcleq	15, cr9, [r3, #-384]	; 0xfffffe80
    2924:	0d920000 	ldceq	0, cr0, [r2]
    2928:	00030000 	andeq	r0, r3, r0
    292c:	929f6078 	addsls	r6, pc, #120	; 0x78
    2930:	9400000d 	strls	r0, [r0], #-13
    2934:	0300000d 	movweq	r0, #13
    2938:	9f607000 	svcls	0x00607000
    293c:	00000d94 	muleq	r0, r4, sp
    2940:	00000da0 	andeq	r0, r0, r0, lsr #27
    2944:	60780003 	rsbsvs	r0, r8, r3
    2948:	000da09f 	muleq	sp, pc, r0	; <UNPREDICTABLE>
    294c:	000da700 	andeq	sl, sp, r0, lsl #14
    2950:	70000300 	andvc	r0, r0, r0, lsl #6
    2954:	0da79f60 	stceq	15, cr9, [r7, #384]!	; 0x180
    2958:	0de60000 	stcleq	0, cr0, [r6]
    295c:	00030000 	andeq	r0, r3, r0
    2960:	e69f6078 			; <UNDEFINED> instruction: 0xe69f6078
    2964:	ec00000d 	stc	0, cr0, [r0], {13}
    2968:	0300000d 	movweq	r0, #13
    296c:	9f607000 	svcls	0x00607000
    2970:	00000dec 	andeq	r0, r0, ip, ror #27
    2974:	00000df0 	strdeq	r0, [r0], -r0	; <UNPREDICTABLE>
    2978:	60780003 	rsbsvs	r0, r8, r3
    297c:	0000009f 	muleq	r0, pc, r0	; <UNPREDICTABLE>
    2980:	00000000 	andeq	r0, r0, r0
    2984:	000cc600 	andeq	ip, ip, r0, lsl #12
    2988:	000ce600 	andeq	lr, ip, r0, lsl #12
    298c:	74000300 	strvc	r0, [r0], #-768	; 0xfffffd00
    2990:	0ce69f04 	stcleq	15, cr9, [r6], #16
    2994:	0cef0000 	stcleq	0, cr0, [pc]	; 299c <_init-0xde40>
    2998:	00010000 	andeq	r0, r1, r0
    299c:	000cef50 	andeq	lr, ip, r0, asr pc
    29a0:	000cf200 	andeq	pc, ip, r0, lsl #4
    29a4:	74000300 	strvc	r0, [r0], #-768	; 0xfffffd00
    29a8:	0cf29f04 	ldcleq	15, cr9, [r2], #16
    29ac:	0d4c0000 	stcleq	0, cr0, [ip, #-0]
    29b0:	00030000 	andeq	r0, r3, r0
    29b4:	4c9f6478 	cfldrsmi	mvf6, [pc], {120}	; 0x78
    29b8:	5300000d 	movwpl	r0, #13
    29bc:	0300000d 	movweq	r0, #13
    29c0:	9f647000 	svcls	0x00647000
    29c4:	00000d53 	andeq	r0, r0, r3, asr sp
    29c8:	00000d92 	muleq	r0, r2, sp
    29cc:	64780003 	ldrbtvs	r0, [r8], #-3
    29d0:	000d929f 	muleq	sp, pc, r2	; <UNPREDICTABLE>
    29d4:	000d9400 	andeq	r9, sp, r0, lsl #8
    29d8:	70000300 	andvc	r0, r0, r0, lsl #6
    29dc:	0d949f64 	ldceq	15, cr9, [r4, #400]	; 0x190
    29e0:	0da00000 	stceq	0, cr0, [r0]
    29e4:	00030000 	andeq	r0, r3, r0
    29e8:	a09f6478 	addsge	r6, pc, r8, ror r4	; <UNPREDICTABLE>
    29ec:	a700000d 	strge	r0, [r0, -sp]
    29f0:	0300000d 	movweq	r0, #13
    29f4:	9f647000 	svcls	0x00647000
    29f8:	00000da7 	andeq	r0, r0, r7, lsr #27
    29fc:	00000de6 	andeq	r0, r0, r6, ror #27
    2a00:	64780003 	ldrbtvs	r0, [r8], #-3
    2a04:	000de69f 	muleq	sp, pc, r6	; <UNPREDICTABLE>
    2a08:	000dec00 	andeq	lr, sp, r0, lsl #24
    2a0c:	70000300 	andvc	r0, r0, r0, lsl #6
    2a10:	0dec9f64 	stcleq	15, cr9, [ip, #400]!	; 0x190
    2a14:	0df00000 	ldcleq	0, cr0, [r0]
    2a18:	00030000 	andeq	r0, r3, r0
    2a1c:	009f6478 	addseq	r6, pc, r8, ror r4	; <UNPREDICTABLE>
    2a20:	00000000 	andeq	r0, r0, r0
    2a24:	ec000000 	stc	0, cr0, [r0], {-0}
    2a28:	4c00000c 	stcmi	0, cr0, [r0], {12}
    2a2c:	0100000d 	tsteq	r0, sp
    2a30:	0d4c5800 	stcleq	8, cr5, [ip, #-0]
    2a34:	0d530000 	ldcleq	0, cr0, [r3, #-0]
    2a38:	00010000 	andeq	r0, r1, r0
    2a3c:	000d5350 	andeq	r5, sp, r0, asr r3
    2a40:	000d9200 	andeq	r9, sp, r0, lsl #4
    2a44:	58000100 	stmdapl	r0, {r8}
    2a48:	00000d92 	muleq	r0, r2, sp
    2a4c:	00000d94 	muleq	r0, r4, sp
    2a50:	94500001 	ldrbls	r0, [r0], #-1
    2a54:	a000000d 	andge	r0, r0, sp
    2a58:	0100000d 	tsteq	r0, sp
    2a5c:	0da05800 	stceq	8, cr5, [r0]
    2a60:	0da70000 	stceq	0, cr0, [r7]
    2a64:	00010000 	andeq	r0, r1, r0
    2a68:	000da750 	andeq	sl, sp, r0, asr r7
    2a6c:	000de600 	andeq	lr, sp, r0, lsl #12
    2a70:	58000100 	stmdapl	r0, {r8}
    2a74:	00000de6 	andeq	r0, r0, r6, ror #27
    2a78:	00000dec 	andeq	r0, r0, ip, ror #27
    2a7c:	ec500001 	mrrc	0, 0, r0, r0, cr1	; <UNPREDICTABLE>
    2a80:	f000000d 			; <UNDEFINED> instruction: 0xf000000d
    2a84:	0100000d 	tsteq	r0, sp
    2a88:	00005800 	andeq	r5, r0, r0, lsl #16
    2a8c:	00000000 	andeq	r0, r0, r0
    2a90:	0cec0000 	stcleq	0, cr0, [ip]
    2a94:	0d1e0000 	ldceq	0, cr0, [lr, #-0]
    2a98:	00010000 	andeq	r0, r1, r0
    2a9c:	000d1e5b 	andeq	r1, sp, fp, asr lr
    2aa0:	000d2600 	andeq	r2, sp, r0, lsl #12
    2aa4:	7b000300 	blvc	36ac <_init-0xd130>
    2aa8:	0d269f01 	stceq	15, cr9, [r6, #-4]!
    2aac:	0d2a0000 	stceq	0, cr0, [sl, #-0]
    2ab0:	00030000 	andeq	r0, r3, r0
    2ab4:	2a9f0172 	bcs	fe7c3084 <__bss_end__+0xfe79efb8>
    2ab8:	2e00000d 	cdpcs	0, 0, cr0, cr0, cr13, {0}
    2abc:	0300000d 	movweq	r0, #13
    2ac0:	9f017b00 	svcls	0x00017b00
    2ac4:	00000d2e 	andeq	r0, r0, lr, lsr #26
    2ac8:	00000df0 	strdeq	r0, [r0], -r0	; <UNPREDICTABLE>
    2acc:	005b0001 	subseq	r0, fp, r1
    2ad0:	00000000 	andeq	r0, r0, r0
    2ad4:	ec000000 	stc	0, cr0, [r0], {-0}
    2ad8:	f400000c 	vst4.8	{d0-d3}, [r0], ip
    2adc:	0100000c 	tsteq	r0, ip
    2ae0:	0cf45900 	ldcleq	9, cr5, [r4]
    2ae4:	0d6a0000 	stcleq	0, cr0, [sl, #-0]
    2ae8:	00010000 	andeq	r0, r1, r0
    2aec:	000d6a55 	andeq	r6, sp, r5, asr sl
    2af0:	000d7400 	andeq	r7, sp, r0, lsl #8
    2af4:	75000300 	strvc	r0, [r0, #-768]	; 0xfffffd00
    2af8:	0d749f01 	ldcleq	15, cr9, [r4, #-4]!
    2afc:	0d7a0000 	ldcleq	0, cr0, [sl, #-0]
    2b00:	00030000 	andeq	r0, r3, r0
    2b04:	7a9f0172 	bvc	fe7c30d4 <__bss_end__+0xfe79f008>
    2b08:	7c00000d 	stcvc	0, cr0, [r0], {13}
    2b0c:	0100000d 	tsteq	r0, sp
    2b10:	0d7c5500 	cfldr64eq	mvdx5, [ip, #-0]
    2b14:	0d800000 	stceq	0, cr0, [r0]
    2b18:	00010000 	andeq	r0, r1, r0
    2b1c:	000d8052 	andeq	r8, sp, r2, asr r0
    2b20:	000dbe00 	andeq	fp, sp, r0, lsl #28
    2b24:	55000100 	strpl	r0, [r0, #-256]	; 0xffffff00
    2b28:	00000dbe 			; <UNDEFINED> instruction: 0x00000dbe
    2b2c:	00000dc8 	andeq	r0, r0, r8, asr #27
    2b30:	01750003 	cmneq	r5, r3
    2b34:	000dc89f 	muleq	sp, pc, r8	; <UNPREDICTABLE>
    2b38:	000dce00 	andeq	ip, sp, r0, lsl #28
    2b3c:	72000300 	andvc	r0, r0, #0, 6
    2b40:	0dce9f01 	stcleq	15, cr9, [lr, #4]
    2b44:	0dd00000 	ldcleq	0, cr0, [r0]
    2b48:	00010000 	andeq	r0, r1, r0
    2b4c:	000dd055 	andeq	sp, sp, r5, asr r0
    2b50:	000dd400 	andeq	sp, sp, r0, lsl #8
    2b54:	52000100 	andpl	r0, r0, #0, 2
    2b58:	00000dd4 	ldrdeq	r0, [r0], -r4
    2b5c:	00000df0 	strdeq	r0, [r0], -r0	; <UNPREDICTABLE>
    2b60:	00550001 	subseq	r0, r5, r1
    2b64:	00000000 	andeq	r0, r0, r0
    2b68:	ec000000 	stc	0, cr0, [r0], {-0}
    2b6c:	3c00000c 	stccc	0, cr0, [r0], {12}
    2b70:	0100000d 	tsteq	r0, sp
    2b74:	0d4c5600 	stcleq	6, cr5, [ip, #-0]
    2b78:	0df00000 	ldcleq	0, cr0, [r0]
    2b7c:	00010000 	andeq	r0, r1, r0
    2b80:	00000056 	andeq	r0, r0, r6, asr r0
    2b84:	00000000 	andeq	r0, r0, r0
    2b88:	000cec00 	andeq	lr, ip, r0, lsl #24
    2b8c:	000cf400 	andeq	pc, ip, r0, lsl #8
    2b90:	56000100 	strpl	r0, [r0], -r0, lsl #2
    2b94:	00000cf4 	strdeq	r0, [r0], -r4
    2b98:	00000df0 	strdeq	r0, [r0], -r0	; <UNPREDICTABLE>
    2b9c:	00540001 	subseq	r0, r4, r1
    2ba0:	00000000 	andeq	r0, r0, r0
    2ba4:	18000000 	stmdane	r0, {}	; <UNPREDICTABLE>
    2ba8:	4900000d 	stmdbmi	r0, {r0, r2, r3}
    2bac:	0100000d 	tsteq	r0, sp
    2bb0:	0d5c5e00 	ldcleq	14, cr5, [ip, #-0]
    2bb4:	0d840000 	stceq	0, cr0, [r4]
    2bb8:	00010000 	andeq	r0, r1, r0
    2bbc:	000db053 	andeq	fp, sp, r3, asr r0
    2bc0:	000dd800 	andeq	sp, sp, r0, lsl #16
    2bc4:	53000100 	movwpl	r0, #256	; 0x100
	...
    2bd0:	00000d18 	andeq	r0, r0, r8, lsl sp
    2bd4:	00000d1e 	andeq	r0, r0, lr, lsl sp
    2bd8:	9f300002 	svcls	0x00300002
    2bdc:	00000d1e 	andeq	r0, r0, lr, lsl sp
    2be0:	00000d40 	andeq	r0, r0, r0, asr #26
    2be4:	40500001 	subsmi	r0, r0, r1
    2be8:	4900000d 	stmdbmi	r0, {r0, r2, r3}
    2bec:	0100000d 	tsteq	r0, sp
    2bf0:	0d5c5100 	ldfeqe	f5, [ip, #-0]
    2bf4:	0d840000 	stceq	0, cr0, [r4]
    2bf8:	00010000 	andeq	r0, r1, r0
    2bfc:	000db050 	andeq	fp, sp, r0, asr r0
    2c00:	000dd800 	andeq	sp, sp, r0, lsl #16
    2c04:	50000100 	andpl	r0, r0, r0, lsl #2
	...
    2c10:	00000d18 	andeq	r0, r0, r8, lsl sp
    2c14:	00000d1e 	andeq	r0, r0, lr, lsl sp
    2c18:	9f300002 	svcls	0x00300002
	...
    2c24:	00000df0 	strdeq	r0, [r0], -r0	; <UNPREDICTABLE>
    2c28:	00000df7 	strdeq	r0, [r0], -r7
    2c2c:	f7500001 			; <UNDEFINED> instruction: 0xf7500001
    2c30:	f800000d 			; <UNDEFINED> instruction: 0xf800000d
    2c34:	0400000d 	streq	r0, [r0], #-13
    2c38:	5001f300 	andpl	pc, r1, r0, lsl #6
    2c3c:	0000009f 	muleq	r0, pc, r0	; <UNPREDICTABLE>
    2c40:	00000000 	andeq	r0, r0, r0
    2c44:	000df000 	andeq	pc, sp, r0
    2c48:	000df400 	andeq	pc, sp, r0, lsl #8
    2c4c:	51000100 	mrspl	r0, (UNDEF: 16)
    2c50:	00000df4 	strdeq	r0, [r0], -r4
    2c54:	00000df7 	strdeq	r0, [r0], -r7
    2c58:	f7520001 			; <UNDEFINED> instruction: 0xf7520001
    2c5c:	f800000d 			; <UNDEFINED> instruction: 0xf800000d
    2c60:	0400000d 	streq	r0, [r0], #-13
    2c64:	5101f300 	mrspl	pc, SP_irq	; <UNPREDICTABLE>
    2c68:	0000009f 	muleq	r0, pc, r0	; <UNPREDICTABLE>
    2c6c:	00000000 	andeq	r0, r0, r0
    2c70:	000e3200 	andeq	r3, lr, r0, lsl #4
    2c74:	000e5000 	andeq	r5, lr, r0
    2c78:	50000100 	andpl	r0, r0, r0, lsl #2
    2c7c:	00000e50 	andeq	r0, r0, r0, asr lr
    2c80:	00000e58 	andeq	r0, r0, r8, asr lr
    2c84:	4f900002 	svcmi	0x00900002
	...
    2c90:	00000e0e 	andeq	r0, r0, lr, lsl #28
    2c94:	00000e2e 	andeq	r0, r0, lr, lsr #28
    2c98:	14750003 	ldrbtne	r0, [r5], #-3
    2c9c:	000e2e9f 	muleq	lr, pc, lr	; <UNPREDICTABLE>
    2ca0:	000e3100 	andeq	r3, lr, r0, lsl #2
    2ca4:	50000100 	andpl	r0, r0, r0, lsl #2
    2ca8:	00000e31 	andeq	r0, r0, r1, lsr lr
    2cac:	00000e6a 	andeq	r0, r0, sl, ror #28
    2cb0:	14750003 	ldrbtne	r0, [r5], #-3
    2cb4:	0000009f 	muleq	r0, pc, r0	; <UNPREDICTABLE>
    2cb8:	00000000 	andeq	r0, r0, r0
    2cbc:	000e0e00 	andeq	r0, lr, r0, lsl #28
    2cc0:	000e1c00 	andeq	r1, lr, r0, lsl #24
    2cc4:	34000200 	strcc	r0, [r0], #-512	; 0xfffffe00
    2cc8:	0000009f 	muleq	r0, pc, r0	; <UNPREDICTABLE>
    2ccc:	00000000 	andeq	r0, r0, r0
    2cd0:	000e0e00 	andeq	r0, lr, r0, lsl #28
    2cd4:	000e1c00 	andeq	r1, lr, r0, lsl #24
    2cd8:	32000200 	andcc	r0, r0, #0, 4
    2cdc:	0000009f 	muleq	r0, pc, r0	; <UNPREDICTABLE>
    2ce0:	00000000 	andeq	r0, r0, r0
    2ce4:	000e0e00 	andeq	r0, lr, r0, lsl #28
    2ce8:	000e1b00 	andeq	r1, lr, r0, lsl #22
    2cec:	03000500 	movweq	r0, #1280	; 0x500
    2cf0:	0002407c 	andeq	r4, r2, ip, ror r0
	...
    2cfc:	00000e0e 	andeq	r0, r0, lr, lsl #28
    2d00:	00000e1c 	andeq	r0, r0, ip, lsl lr
    2d04:	9f360002 	svcls	0x00360002
	...
    2d10:	00000e0e 	andeq	r0, r0, lr, lsl #28
    2d14:	00000e1c 	andeq	r0, r0, ip, lsl lr
    2d18:	c00a0004 	andgt	r0, sl, r4
    2d1c:	00009f01 	andeq	r9, r0, r1, lsl #30
    2d20:	00000000 	andeq	r0, r0, r0
    2d24:	0e0e0000 	cdpeq	0, 0, cr0, cr14, cr0, {0}
    2d28:	0e1c0000 	cdpeq	0, 1, cr0, cr12, cr0, {0}
    2d2c:	00040000 	andeq	r0, r4, r0
    2d30:	9f01000a 	svcls	0x0001000a
	...
    2d3c:	00000e1c 	andeq	r0, r0, ip, lsl lr
    2d40:	00000e2a 	andeq	r0, r0, sl, lsr #28
    2d44:	9f340002 	svcls	0x00340002
	...
    2d50:	00000e1c 	andeq	r0, r0, ip, lsl lr
    2d54:	00000e2a 	andeq	r0, r0, sl, lsr #28
    2d58:	9f330002 	svcls	0x00330002
	...
    2d64:	00000e1c 	andeq	r0, r0, ip, lsl lr
    2d68:	00000e29 	andeq	r0, r0, r9, lsr #28
    2d6c:	7c030005 	stcvc	0, cr0, [r3], {5}
    2d70:	00000240 	andeq	r0, r0, r0, asr #4
    2d74:	00000000 	andeq	r0, r0, r0
    2d78:	1c000000 	stcne	0, cr0, [r0], {-0}
    2d7c:	2a00000e 	bcs	2dbc <_init-0xda20>
    2d80:	0200000e 	andeq	r0, r0, #14
    2d84:	009f3900 	addseq	r3, pc, r0, lsl #18
    2d88:	00000000 	andeq	r0, r0, r0
    2d8c:	1c000000 	stcne	0, cr0, [r0], {-0}
    2d90:	2a00000e 	bcs	2dd0 <_init-0xda0c>
    2d94:	0400000e 	streq	r0, [r0], #-14
    2d98:	0e000a00 	vmlaeq.f32	s0, s0, s0
    2d9c:	0000009f 	muleq	r0, pc, r0	; <UNPREDICTABLE>
    2da0:	00000000 	andeq	r0, r0, r0
    2da4:	000e1c00 	andeq	r1, lr, r0, lsl #24
    2da8:	000e2a00 	andeq	r2, lr, r0, lsl #20
    2dac:	0a000400 	beq	3db4 <_init-0xca28>
    2db0:	009f0800 	addseq	r0, pc, r0, lsl #16
    2db4:	00000000 	andeq	r0, r0, r0
    2db8:	78000000 	stmdavc	r0, {}	; <UNPREDICTABLE>
    2dbc:	8e00000e 	cdphi	0, 0, cr0, cr0, cr14, {0}
    2dc0:	0200000e 	andeq	r0, r0, #14
    2dc4:	009f3000 	addseq	r3, pc, r0
    2dc8:	00000000 	andeq	r0, r0, r0
    2dcc:	78000000 	stmdavc	r0, {}	; <UNPREDICTABLE>
    2dd0:	8e00000e 	cdphi	0, 0, cr0, cr0, cr14, {0}
    2dd4:	0200000e 	andeq	r0, r0, #14
    2dd8:	009f3200 	addseq	r3, pc, r0, lsl #4
    2ddc:	00000000 	andeq	r0, r0, r0
    2de0:	78000000 	stmdavc	r0, {}	; <UNPREDICTABLE>
    2de4:	8d00000e 	stchi	0, cr0, [r0, #-56]	; 0xffffffc8
    2de8:	0500000e 	streq	r0, [r0, #-14]
    2dec:	407c0300 	rsbsmi	r0, ip, r0, lsl #6
    2df0:	00000002 	andeq	r0, r0, r2
    2df4:	00000000 	andeq	r0, r0, r0
    2df8:	0e780000 	cdpeq	0, 7, cr0, cr8, cr0, {0}
    2dfc:	0e8e0000 	cdpeq	0, 8, cr0, cr14, cr0, {0}
    2e00:	00020000 	andeq	r0, r2, r0
    2e04:	00009f36 	andeq	r9, r0, r6, lsr pc
    2e08:	00000000 	andeq	r0, r0, r0
    2e0c:	0e780000 	cdpeq	0, 7, cr0, cr8, cr0, {0}
    2e10:	0e8e0000 	cdpeq	0, 8, cr0, cr14, cr0, {0}
    2e14:	00040000 	andeq	r0, r4, r0
    2e18:	9f01c00a 	svcls	0x0001c00a
	...
    2e24:	00000e8e 	andeq	r0, r0, lr, lsl #29
    2e28:	00000e9d 	muleq	r0, sp, lr
    2e2c:	7c030005 	stcvc	0, cr0, [r3], {5}
    2e30:	00000240 	andeq	r0, r0, r0, asr #4
    2e34:	00000000 	andeq	r0, r0, r0
    2e38:	a0000000 	andge	r0, r0, r0
    2e3c:	ac00000e 	stcge	0, cr0, [r0], {14}
    2e40:	0100000e 	tsteq	r0, lr
    2e44:	0eac5000 	cdpeq	0, 10, cr5, cr12, cr0, {0}
    2e48:	0eb20000 	cdpeq	0, 11, cr0, cr2, cr0, {0}
    2e4c:	00040000 	andeq	r0, r4, r0
    2e50:	9f5001f3 	svcls	0x005001f3
	...
    2e5c:	00000ea0 	andeq	r0, r0, r0, lsr #29
    2e60:	00000eae 	andeq	r0, r0, lr, lsr #29
    2e64:	94030009 	strls	r0, [r3], #-9
    2e68:	06000240 	streq	r0, [r0], -r0, asr #4
    2e6c:	ae9f0c23 	cdpge	12, 9, cr0, cr15, cr3, {1}
    2e70:	b100000e 	tstlt	r0, lr
    2e74:	0100000e 	tsteq	r0, lr
    2e78:	00005000 	andeq	r5, r0, r0
    2e7c:	00000000 	andeq	r0, r0, r0
    2e80:	0eb40000 	cdpeq	0, 11, cr0, cr4, cr0, {0}
    2e84:	0ec40000 	cdpeq	0, 12, cr0, cr4, cr0, {0}
    2e88:	00010000 	andeq	r0, r1, r0
    2e8c:	000ec450 	andeq	ip, lr, r0, asr r4
    2e90:	000f0c00 	andeq	r0, pc, r0, lsl #24
    2e94:	f3000400 	vshl.u8	d0, d0, d0
    2e98:	009f5001 	addseq	r5, pc, r1
    2e9c:	00000000 	andeq	r0, r0, r0
    2ea0:	b4000000 	strlt	r0, [r0], #-0
    2ea4:	c800000e 	stmdagt	r0, {r1, r2, r3}
    2ea8:	0900000e 	stmdbeq	r0, {r1, r2, r3}
    2eac:	40940300 	addsmi	r0, r4, r0, lsl #6
    2eb0:	23060002 	movwcs	r0, #24578	; 0x6002
    2eb4:	0ec89f14 	mcreq	15, 6, r9, cr8, cr4, {0}
    2eb8:	0ecb0000 	cdpeq	0, 12, cr0, cr11, cr0, {0}
    2ebc:	00010000 	andeq	r0, r1, r0
    2ec0:	00000050 	andeq	r0, r0, r0, asr r0
    2ec4:	00000000 	andeq	r0, r0, r0
    2ec8:	000f0c00 	andeq	r0, pc, r0, lsl #24
    2ecc:	000f1400 	andeq	r1, pc, r0, lsl #8
    2ed0:	50000100 	andpl	r0, r0, r0, lsl #2
    2ed4:	00000f14 	andeq	r0, r0, r4, lsl pc
    2ed8:	00000f1b 	andeq	r0, r0, fp, lsl pc
    2edc:	1b510001 	blne	1442ee8 <__bss_end__+0x141ee1c>
    2ee0:	2a00000f 	bcs	2f24 <_init-0xd8b8>
    2ee4:	0400000f 	streq	r0, [r0], #-15
    2ee8:	5001f300 	andpl	pc, r1, r0, lsl #6
    2eec:	0000009f 	muleq	r0, pc, r0	; <UNPREDICTABLE>
    2ef0:	00000000 	andeq	r0, r0, r0
    2ef4:	000f0c00 	andeq	r0, pc, r0, lsl #24
    2ef8:	000f1400 	andeq	r1, pc, r0, lsl #8
    2efc:	0c001300 	stceq	3, cr1, [r0], {-0}
    2f00:	0ee6b280 	cdpeq	2, 14, cr11, cr6, cr0, {4}
    2f04:	007025f7 	ldrshteq	r2, [r0], #-87	; 0xffffffa9
    2f08:	f71b25f7 			; <UNDEFINED> instruction: 0xf71b25f7
    2f0c:	fffe0a00 			; <UNDEFINED> instruction: 0xfffe0a00
    2f10:	0f149f1a 	svceq	0x00149f1a
    2f14:	0f1b0000 	svceq	0x001b0000
    2f18:	00130000 	andseq	r0, r3, r0
    2f1c:	e6b2800c 	ldrt	r8, [r2], ip
    2f20:	7125f70e 	msrvc	SP_abt, lr
    2f24:	1b25f700 	blne	980b2c <__bss_end__+0x95ca60>
    2f28:	fe0a00f7 	mcr2	0, 0, r0, cr10, cr7, {7}
    2f2c:	1b9f1aff 	blne	fe7c9b30 <__bss_end__+0xfe7a5a64>
    2f30:	2a00000f 	bcs	2f74 <_init-0xd868>
    2f34:	1400000f 	strne	r0, [r0], #-15
    2f38:	b2800c00 	addlt	r0, r0, #0, 24
    2f3c:	25f70ee6 	ldrbcs	r0, [r7, #3814]!	; 0xee6
    2f40:	f75001f3 			; <UNDEFINED> instruction: 0xf75001f3
    2f44:	00f71b25 	rscseq	r1, r7, r5, lsr #22
    2f48:	1afffe0a 	bne	2778 <_init-0xe064>
    2f4c:	0000009f 	muleq	r0, pc, r0	; <UNPREDICTABLE>
    2f50:	00000000 	andeq	r0, r0, r0
    2f54:	000f2c00 	andeq	r2, pc, r0, lsl #24
    2f58:	000f4e00 	andeq	r4, pc, r0, lsl #28
    2f5c:	50000100 	andpl	r0, r0, r0, lsl #2
    2f60:	00000f4e 	andeq	r0, r0, lr, asr #30
    2f64:	00001022 	andeq	r1, r0, r2, lsr #32
    2f68:	005a0001 	subseq	r0, sl, r1
    2f6c:	00000000 	andeq	r0, r0, r0
    2f70:	2c000000 	stccs	0, cr0, [r0], {-0}
    2f74:	4400000f 	strmi	r0, [r0], #-15
    2f78:	0100000f 	tsteq	r0, pc
    2f7c:	0f445100 	svceq	0x00445100
    2f80:	0f780000 	svceq	0x00780000
    2f84:	00010000 	andeq	r0, r1, r0
    2f88:	000f7854 	andeq	r7, pc, r4, asr r8	; <UNPREDICTABLE>
    2f8c:	000fa800 	andeq	sl, pc, r0, lsl #16
    2f90:	f3000400 	vshl.u8	d0, d0, d0
    2f94:	a89f5101 	ldmge	pc, {r0, r8, ip, lr}	; <UNPREDICTABLE>
    2f98:	aa00000f 	bge	2fdc <_init-0xd800>
    2f9c:	0100000f 	tsteq	r0, pc
    2fa0:	0faa5400 	svceq	0x00aa5400
    2fa4:	10220000 	eorne	r0, r2, r0
    2fa8:	00040000 	andeq	r0, r4, r0
    2fac:	9f5101f3 	svcls	0x005101f3
	...
    2fb8:	00000f42 	andeq	r0, r0, r2, asr #30
    2fbc:	00000f62 	andeq	r0, r0, r2, ror #30
    2fc0:	08790003 	ldmdaeq	r9!, {r0, r1}^
    2fc4:	000f629f 	muleq	pc, pc, r2	; <UNPREDICTABLE>
    2fc8:	000f6500 	andeq	r6, pc, r0, lsl #10
    2fcc:	50000100 	andpl	r0, r0, r0, lsl #2
    2fd0:	00000f65 	andeq	r0, r0, r5, ror #30
    2fd4:	00001022 	andeq	r1, r0, r2, lsr #32
    2fd8:	08790003 	ldmdaeq	r9!, {r0, r1}^
    2fdc:	0000009f 	muleq	r0, pc, r0	; <UNPREDICTABLE>
    2fe0:	00000000 	andeq	r0, r0, r0
    2fe4:	000f4c00 	andeq	r4, pc, r0, lsl #24
    2fe8:	000fd400 	andeq	sp, pc, r0, lsl #8
    2fec:	58000100 	stmdapl	r0, {r8}
    2ff0:	00000fd4 	ldrdeq	r0, [r0], -r4
    2ff4:	00000fdd 	ldrdeq	r0, [r0], -sp
    2ff8:	dd500001 	ldclle	0, cr0, [r0, #-4]
    2ffc:	2200000f 	andcs	r0, r0, #15
    3000:	01000010 	tsteq	r0, r0, lsl r0
    3004:	00005800 	andeq	r5, r0, r0, lsl #16
    3008:	00000000 	andeq	r0, r0, r0
    300c:	0f4c0000 	svceq	0x004c0000
    3010:	0f7e0000 	svceq	0x007e0000
    3014:	00010000 	andeq	r0, r1, r0
    3018:	000f7e54 	andeq	r7, pc, r4, asr lr	; <UNPREDICTABLE>
    301c:	000f8200 	andeq	r8, pc, r0, lsl #4
    3020:	74000300 	strvc	r0, [r0], #-768	; 0xfffffd00
    3024:	0f949f01 	svceq	0x00949f01
    3028:	0faa0000 	svceq	0x00aa0000
    302c:	00010000 	andeq	r0, r1, r0
    3030:	000fb454 	andeq	fp, pc, r4, asr r4	; <UNPREDICTABLE>
    3034:	000fde00 	andeq	sp, pc, r0, lsl #28
    3038:	54000100 	strpl	r0, [r0], #-256	; 0xffffff00
    303c:	00000fde 	ldrdeq	r0, [r0], -lr
    3040:	00000fe0 	andeq	r0, r0, r0, ror #31
    3044:	7f740003 	svcvc	0x00740003
    3048:	000fe09f 	muleq	pc, pc, r0	; <UNPREDICTABLE>
    304c:	000ff800 	andeq	pc, pc, r0, lsl #16
    3050:	54000100 	strpl	r0, [r0], #-256	; 0xffffff00
	...
    305c:	00000f4c 	andeq	r0, r0, ip, asr #30
    3060:	00000f78 	andeq	r0, r0, r8, ror pc
    3064:	9f300002 	svcls	0x00300002
    3068:	00000f78 	andeq	r0, r0, r8, ror pc
    306c:	00000fa8 	andeq	r0, r0, r8, lsr #31
    3070:	a8550001 	ldmdage	r5, {r0}^
    3074:	aa00000f 	bge	30b8 <_init-0xd724>
    3078:	0200000f 	andeq	r0, r0, #15
    307c:	b49f3000 	ldrlt	r3, [pc], #0	; 3084 <_init-0xd758>
    3080:	da00000f 	ble	30c4 <_init-0xd718>
    3084:	0100000f 	tsteq	r0, pc
    3088:	0fda5500 	svceq	0x00da5500
    308c:	0fde0000 	svceq	0x00de0000
    3090:	00030000 	andeq	r0, r3, r0
    3094:	de9f7f75 	mrcle	15, 4, r7, cr15, cr5, {3}
    3098:	2200000f 	andcs	r0, r0, #15
    309c:	01000010 	tsteq	r0, r0, lsl r0
    30a0:	00005500 	andeq	r5, r0, r0, lsl #10
    30a4:	00000000 	andeq	r0, r0, r0
    30a8:	0f4c0000 	svceq	0x004c0000
    30ac:	0ffa0000 	svceq	0x00fa0000
    30b0:	00020000 	andeq	r0, r2, r0
    30b4:	0ffa9f30 	svceq	0x00fa9f30
    30b8:	100a0000 	andne	r0, sl, r0
    30bc:	00010000 	andeq	r0, r1, r0
    30c0:	00100a54 	andseq	r0, r0, r4, asr sl
    30c4:	00102200 	andseq	r2, r0, r0, lsl #4
    30c8:	30000200 	andcc	r0, r0, r0, lsl #4
    30cc:	0000009f 	muleq	r0, pc, r0	; <UNPREDICTABLE>
    30d0:	00000000 	andeq	r0, r0, r0
    30d4:	000f7800 	andeq	r7, pc, r0, lsl #16
    30d8:	000f7c00 	andeq	r7, pc, r0, lsl #24
    30dc:	51000100 	mrspl	r0, (UNDEF: 16)
    30e0:	00000f9c 	muleq	r0, ip, pc	; <UNPREDICTABLE>
    30e4:	00000fa5 	andeq	r0, r0, r5, lsr #31
    30e8:	00510001 	subseq	r0, r1, r1
    30ec:	00000000 	andeq	r0, r0, r0
    30f0:	24000000 	strcs	r0, [r0], #-0
    30f4:	4c000010 	stcmi	0, cr0, [r0], {16}
    30f8:	01000010 	tsteq	r0, r0, lsl r0
    30fc:	104c5000 	subne	r5, ip, r0
    3100:	115e0000 	cmpne	lr, r0
    3104:	00010000 	andeq	r0, r1, r0
    3108:	0000005a 	andeq	r0, r0, sl, asr r0
    310c:	00000000 	andeq	r0, r0, r0
    3110:	00102400 	andseq	r2, r0, r0, lsl #8
    3114:	00104200 	andseq	r4, r0, r0, lsl #4
    3118:	51000100 	mrspl	r0, (UNDEF: 16)
    311c:	00001042 	andeq	r1, r0, r2, asr #32
    3120:	00001068 	andeq	r1, r0, r8, rrx
    3124:	68540001 	ldmdavs	r4, {r0}^
    3128:	30000010 	andcc	r0, r0, r0, lsl r0
    312c:	04000011 	streq	r0, [r0], #-17	; 0xffffffef
    3130:	5101f300 	mrspl	pc, SP_irq	; <UNPREDICTABLE>
    3134:	0011309f 	mulseq	r1, pc, r0	; <UNPREDICTABLE>
    3138:	00115e00 	andseq	r5, r1, r0, lsl #28
    313c:	54000100 	strpl	r0, [r0], #-256	; 0xffffff00
	...
    3148:	00001046 	andeq	r1, r0, r6, asr #32
    314c:	000010a6 	andeq	r1, r0, r6, lsr #1
    3150:	a6590001 	ldrbge	r0, [r9], -r1
    3154:	ad000010 	stcge	0, cr0, [r0, #-64]	; 0xffffffc0
    3158:	01000010 	tsteq	r0, r0, lsl r0
    315c:	10ad5000 	adcne	r5, sp, r0
    3160:	10e60000 	rscne	r0, r6, r0
    3164:	00010000 	andeq	r0, r1, r0
    3168:	0010e659 	andseq	lr, r0, r9, asr r6
    316c:	0010ef00 	andseq	lr, r0, r0, lsl #30
    3170:	50000100 	andpl	r0, r0, r0, lsl #2
    3174:	000010ef 	andeq	r1, r0, pc, ror #1
    3178:	0000115e 	andeq	r1, r0, lr, asr r1
    317c:	00590001 	subseq	r0, r9, r1
    3180:	00000000 	andeq	r0, r0, r0
    3184:	50000000 	andpl	r0, r0, r0
    3188:	88000010 	stmdahi	r0, {r4}
    318c:	01000010 	tsteq	r0, r0, lsl r0
    3190:	10885400 	addne	r5, r8, r0, lsl #8
    3194:	108c0000 	addne	r0, ip, r0
    3198:	00030000 	andeq	r0, r3, r0
    319c:	929f0174 	addsls	r0, pc, #116, 2
    31a0:	cc000010 	stcgt	0, cr0, [r0], {16}
    31a4:	01000010 	tsteq	r0, r0, lsl r0
    31a8:	10cc5400 	sbcne	r5, ip, r0, lsl #8
    31ac:	10d00000 	sbcsne	r0, r0, r0
    31b0:	00030000 	andeq	r0, r3, r0
    31b4:	d29f0174 	addsle	r0, pc, #116, 2
    31b8:	f2000010 	vqadd.s8	d0, d0, d0
    31bc:	01000010 	tsteq	r0, r0, lsl r0
    31c0:	10f25400 	rscsne	r5, r2, r0, lsl #8
    31c4:	10f60000 	rscsne	r0, r6, r0
    31c8:	00030000 	andeq	r0, r3, r0
    31cc:	309f0174 	addscc	r0, pc, r4, ror r1	; <UNPREDICTABLE>
    31d0:	5e000011 	mcrpl	0, 0, r0, cr0, cr1, {0}
    31d4:	01000011 	tsteq	r0, r1, lsl r0
    31d8:	00005400 	andeq	r5, r0, r0, lsl #8
    31dc:	00000000 	andeq	r0, r0, r0
    31e0:	10500000 	subsne	r0, r0, r0
    31e4:	10680000 	rsbne	r0, r8, r0
    31e8:	00020000 	andeq	r0, r2, r0
    31ec:	10689f30 	rsbne	r9, r8, r0, lsr pc
    31f0:	10be0000 	adcsne	r0, lr, r0
    31f4:	00010000 	andeq	r0, r1, r0
    31f8:	0010c255 	andseq	ip, r0, r5, asr r2
    31fc:	0010d000 	andseq	sp, r0, r0
    3200:	75000600 	strvc	r0, [r0, #-1536]	; 0xfffffa00
    3204:	1c007a00 	stcne	10, cr7, [r0], {-0}
    3208:	0010d09f 	mulseq	r0, pc, r0	; <UNPREDICTABLE>
    320c:	0010d200 	andseq	sp, r0, r0, lsl #4
    3210:	75000800 	strvc	r0, [r0, #-2048]	; 0xfffff800
    3214:	1c007a00 	stcne	10, cr7, [r0], {-0}
    3218:	d29f0123 	addsle	r0, pc, #-1073741816	; 0xc0000008
    321c:	f6000010 			; <UNDEFINED> instruction: 0xf6000010
    3220:	06000010 			; <UNDEFINED> instruction: 0x06000010
    3224:	7a007500 	bvc	2062c <__FRAME_END__+0xd45c>
    3228:	f69f1c00 			; <UNDEFINED> instruction: 0xf69f1c00
    322c:	f8000010 			; <UNDEFINED> instruction: 0xf8000010
    3230:	08000010 	stmdaeq	r0, {r4}
    3234:	7a007500 	bvc	2063c <__FRAME_END__+0xd46c>
    3238:	01231c00 			; <UNDEFINED> instruction: 0x01231c00
    323c:	0011309f 	mulseq	r1, pc, r0	; <UNPREDICTABLE>
    3240:	00115e00 	andseq	r5, r1, r0, lsl #28
    3244:	30000200 	andcc	r0, r0, r0, lsl #4
    3248:	0000009f 	muleq	r0, pc, r0	; <UNPREDICTABLE>
    324c:	00000000 	andeq	r0, r0, r0
    3250:	00105000 	andseq	r5, r0, r0
    3254:	00110800 	andseq	r0, r1, r0, lsl #16
    3258:	30000200 	andcc	r0, r0, r0, lsl #4
    325c:	0011089f 	mulseq	r1, pc, r8	; <UNPREDICTABLE>
    3260:	00111800 	andseq	r1, r1, r0, lsl #16
    3264:	54000100 	strpl	r0, [r0], #-256	; 0xffffff00
    3268:	00001118 	andeq	r1, r0, r8, lsl r1
    326c:	0000115e 	andeq	r1, r0, lr, asr r1
    3270:	9f300002 	svcls	0x00300002
	...
    327c:	00001050 	andeq	r1, r0, r0, asr r0
    3280:	0000105c 	andeq	r1, r0, ip, asr r0
    3284:	020a0004 	andeq	r0, sl, #4
    3288:	11309f03 	teqne	r0, r3, lsl #30
    328c:	113a0000 	teqne	sl, r0
    3290:	00040000 	andeq	r0, r4, r0
    3294:	9f03020a 	svcls	0x0003020a
	...
    32a0:	00001050 	andeq	r1, r0, r0, asr r0
    32a4:	0000105c 	andeq	r1, r0, ip, asr r0
    32a8:	30580001 	subscc	r0, r8, r1
    32ac:	3a000011 	bcc	32f8 <_init-0xd4e4>
    32b0:	01000011 	tsteq	r0, r1, lsl r0
    32b4:	00005800 	andeq	r5, r0, r0, lsl #16
    32b8:	00000000 	andeq	r0, r0, r0
    32bc:	105c0000 	subsne	r0, ip, r0
    32c0:	105e0000 	subsne	r0, lr, r0
    32c4:	00010000 	andeq	r0, r1, r0
    32c8:	00113a54 	andseq	r3, r1, r4, asr sl
    32cc:	00114a00 	andseq	r4, r1, r0, lsl #20
    32d0:	54000100 	strpl	r0, [r0], #-256	; 0xffffff00
	...
    32dc:	0000105c 	andeq	r1, r0, ip, asr r0
    32e0:	0000105e 	andeq	r1, r0, lr, asr r0
    32e4:	08760003 	ldmdaeq	r6!, {r0, r1}^
    32e8:	00113a9f 	mulseq	r1, pc, sl	; <UNPREDICTABLE>
    32ec:	00114a00 	andseq	r4, r1, r0, lsl #20
    32f0:	76000300 	strvc	r0, [r0], -r0, lsl #6
    32f4:	00009f08 	andeq	r9, r0, r8, lsl #30
    32f8:	00000000 	andeq	r0, r0, r0
    32fc:	105e0000 	subsne	r0, lr, r0
    3300:	11300000 	teqne	r0, r0
    3304:	00040000 	andeq	r0, r4, r0
    3308:	9f80810a 	svcls	0x0080810a
    330c:	0000114a 	andeq	r1, r0, sl, asr #2
    3310:	0000115e 	andeq	r1, r0, lr, asr r1
    3314:	810a0004 	tsthi	sl, r4
    3318:	00009f80 	andeq	r9, r0, r0, lsl #31
    331c:	00000000 	andeq	r0, r0, r0
    3320:	105e0000 	subsne	r0, lr, r0
    3324:	11300000 	teqne	r0, r0
    3328:	00010000 	andeq	r0, r1, r0
    332c:	00114a56 	andseq	r4, r1, r6, asr sl
    3330:	00115e00 	andseq	r5, r1, r0, lsl #28
    3334:	56000100 	strpl	r0, [r0], -r0, lsl #2
	...
    3340:	00001170 	andeq	r1, r0, r0, ror r1
    3344:	00001172 	andeq	r1, r0, r2, ror r1
    3348:	08700003 	ldmdaeq	r0!, {r0, r1}^
    334c:	0011729f 	mulseq	r1, pc, r2	; <UNPREDICTABLE>
    3350:	00117700 	andseq	r7, r1, r0, lsl #14
    3354:	50000100 	andpl	r0, r0, r0, lsl #2
    3358:	0000117a 	andeq	r1, r0, sl, ror r1
    335c:	0000117e 	andeq	r1, r0, lr, ror r1
    3360:	98030009 	stmdals	r3, {r0, r3}
    3364:	06000240 	streq	r0, [r0], -r0, asr #4
    3368:	7e9f0423 	cdpvc	4, 9, cr0, cr15, cr3, {1}
    336c:	81000011 	tsthi	r0, r1, lsl r0
    3370:	01000011 	tsteq	r0, r1, lsl r0
    3374:	11845000 	orrne	r5, r4, r0
    3378:	11880000 	orrne	r0, r8, r0
    337c:	00090000 	andeq	r0, r9, r0
    3380:	02409803 	subeq	r9, r0, #196608	; 0x30000
    3384:	08230600 	stmdaeq	r3!, {r9, sl}
    3388:	0011889f 	mulseq	r1, pc, r8	; <UNPREDICTABLE>
    338c:	00118b00 	andseq	r8, r1, r0, lsl #22
    3390:	50000100 	andpl	r0, r0, r0, lsl #2
	...
    339c:	0000117a 	andeq	r1, r0, sl, ror r1
    33a0:	0000117c 	andeq	r1, r0, ip, ror r1
    33a4:	7c500001 	mrrcvc	0, 0, r0, r0, cr1	; <UNPREDICTABLE>
    33a8:	9a000011 	bls	33f4 <_init-0xd3e8>
    33ac:	01000011 	tsteq	r0, r1, lsl r0
    33b0:	119a5600 	orrsne	r5, sl, r0, lsl #12
    33b4:	119e0000 	orrsne	r0, lr, r0
    33b8:	00010000 	andeq	r0, r1, r0
    33bc:	0011b250 	andseq	fp, r1, r0, asr r2
    33c0:	0011b400 	andseq	fp, r1, r0, lsl #8
    33c4:	50000100 	andpl	r0, r0, r0, lsl #2
	...
    33d0:	00001184 	andeq	r1, r0, r4, lsl #3
    33d4:	00001186 	andeq	r1, r0, r6, lsl #3
    33d8:	86500001 	ldrbhi	r0, [r0], -r1
    33dc:	bc000011 	stclt	0, cr0, [r0], {17}
    33e0:	01000011 	tsteq	r0, r1, lsl r0
    33e4:	00005500 	andeq	r5, r0, r0, lsl #10
    33e8:	00000000 	andeq	r0, r0, r0
    33ec:	119a0000 	orrsne	r0, sl, r0
    33f0:	11a60000 			; <UNDEFINED> instruction: 0x11a60000
    33f4:	00060000 	andeq	r0, r6, r0
    33f8:	57049356 	smlsdpl	r4, r6, r3, r9
    33fc:	11b20493 			; <UNDEFINED> instruction: 0x11b20493
    3400:	11b40000 			; <UNDEFINED> instruction: 0x11b40000
    3404:	00060000 	andeq	r0, r6, r0
    3408:	57049356 	smlsdpl	r4, r6, r3, r9
    340c:	00000493 	muleq	r0, r3, r4
    3410:	00000000 	andeq	r0, r0, r0
    3414:	11c40000 	bicne	r0, r4, r0
    3418:	11ec0000 	mvnne	r0, r0
    341c:	00060000 	andeq	r0, r6, r0
    3420:	51049350 	tstpl	r4, r0, asr r3
    3424:	11ec0493 			; <UNDEFINED> instruction: 0x11ec0493
    3428:	12060000 	andne	r0, r6, #0
    342c:	00060000 	andeq	r0, r6, r0
    3430:	00f503f3 	ldrshteq	r0, [r5], #51	; 0x33
    3434:	12069f2c 	andne	r9, r6, #44, 30	; 0xb0
    3438:	12090000 	andne	r0, r9, #0
    343c:	00060000 	andeq	r0, r6, r0
    3440:	51049350 	tstpl	r4, r0, asr r3
    3444:	12090493 	andne	r0, r9, #-1828716544	; 0x93000000
    3448:	12700000 	rsbsne	r0, r0, #0
    344c:	00060000 	andeq	r0, r6, r0
    3450:	00f503f3 	ldrshteq	r0, [r5], #51	; 0x33
    3454:	00009f2c 	andeq	r9, r0, ip, lsr #30
    3458:	00000000 	andeq	r0, r0, r0
    345c:	120e0000 	andne	r0, lr, #0
    3460:	126c0000 	rsbne	r0, ip, #0
    3464:	00060000 	andeq	r0, r6, r0
    3468:	59049358 	stmdbpl	r4, {r3, r4, r6, r8, r9, ip, pc}
    346c:	00000493 	muleq	r0, r3, r4
    3470:	00000000 	andeq	r0, r0, r0
    3474:	11e60000 	mvnne	r0, r0
    3478:	11f80000 	mvnsne	r0, r0
    347c:	00060000 	andeq	r0, r6, r0
    3480:	012fd003 			; <UNDEFINED> instruction: 0x012fd003
    3484:	00009f00 	andeq	r9, r0, r0, lsl #30
    3488:	00000000 	andeq	r0, r0, r0
    348c:	12220000 	eorne	r0, r2, #0
    3490:	12260000 	eorne	r0, r6, #0
    3494:	00060000 	andeq	r0, r6, r0
    3498:	55049354 	strpl	r9, [r4, #-852]	; 0xfffffcac
    349c:	00000493 	muleq	r0, r3, r4
    34a0:	00000000 	andeq	r0, r0, r0
    34a4:	12220000 	eorne	r0, r2, #0
    34a8:	12380000 	eorsne	r0, r8, #0
    34ac:	00060000 	andeq	r0, r6, r0
    34b0:	59049358 	stmdbpl	r4, {r3, r4, r6, r8, r9, ip, pc}
    34b4:	00000493 	muleq	r0, r3, r4
    34b8:	00000000 	andeq	r0, r0, r0
    34bc:	122a0000 	eorne	r0, sl, #0
    34c0:	12380000 	eorsne	r0, r8, #0
    34c4:	00060000 	andeq	r0, r6, r0
    34c8:	55049354 	strpl	r9, [r4, #-852]	; 0xfffffcac
    34cc:	00000493 	muleq	r0, r3, r4
    34d0:	00000000 	andeq	r0, r0, r0
    34d4:	12700000 	rsbsne	r0, r0, #0
    34d8:	12860000 	addne	r0, r6, #0
    34dc:	00010000 	andeq	r0, r1, r0
    34e0:	00128650 	andseq	r8, r2, r0, asr r6
    34e4:	0012ce00 	andseq	ip, r2, r0, lsl #28
    34e8:	f3000400 	vshl.u8	d0, d0, d0
    34ec:	ce9f5001 	cdpgt	0, 9, cr5, cr15, cr1, {0}
    34f0:	d0000012 	andle	r0, r0, r2, lsl r0
    34f4:	01000012 	tsteq	r0, r2, lsl r0
    34f8:	12d05000 	sbcsne	r5, r0, #0
    34fc:	13400000 	movtne	r0, #0
    3500:	00040000 	andeq	r0, r4, r0
    3504:	9f5001f3 	svcls	0x005001f3
	...
    3510:	00001270 	andeq	r1, r0, r0, ror r2
    3514:	00001296 	muleq	r0, r6, r2
    3518:	96510001 	ldrbls	r0, [r1], -r1
    351c:	ce000012 	mcrgt	0, 0, r0, cr0, cr2, {0}
    3520:	04000012 	streq	r0, [r0], #-18	; 0xffffffee
    3524:	5101f300 	mrspl	pc, SP_irq	; <UNPREDICTABLE>
    3528:	0012ce9f 	mulseq	r2, pc, lr	; <UNPREDICTABLE>
    352c:	0012d300 	andseq	sp, r2, r0, lsl #6
    3530:	51000100 	mrspl	r0, (UNDEF: 16)
    3534:	000012d3 	ldrdeq	r1, [r0], -r3
    3538:	00001312 	andeq	r1, r0, r2, lsl r3
    353c:	01f30004 	mvnseq	r0, r4
    3540:	13129f51 	tstne	r2, #324	; 0x144
    3544:	13140000 	tstne	r4, #0
    3548:	00010000 	andeq	r0, r1, r0
    354c:	00131451 	andseq	r1, r3, r1, asr r4
    3550:	00131a00 	andseq	r1, r3, r0, lsl #20
    3554:	f3000400 	vshl.u8	d0, d0, d0
    3558:	1a9f5101 	bne	fe7d7964 <__bss_end__+0xfe7b3898>
    355c:	1e000013 	mcrne	0, 0, r0, cr0, cr3, {0}
    3560:	01000013 	tsteq	r0, r3, lsl r0
    3564:	131e5100 	tstne	lr, #0, 2
    3568:	13400000 	movtne	r0, #0
    356c:	00040000 	andeq	r0, r4, r0
    3570:	9f5101f3 	svcls	0x005101f3
	...
    357c:	00001282 	andeq	r1, r0, r2, lsl #5
    3580:	00001296 	muleq	r0, r6, r2
    3584:	96510001 	ldrbls	r0, [r1], -r1
    3588:	ce000012 	mcrgt	0, 0, r0, cr0, cr2, {0}
    358c:	04000012 	streq	r0, [r0], #-18	; 0xffffffee
    3590:	5101f300 	mrspl	pc, SP_irq	; <UNPREDICTABLE>
    3594:	0012fe9f 	mulseq	r2, pc, lr	; <UNPREDICTABLE>
    3598:	00130200 	andseq	r0, r3, r0, lsl #4
    359c:	f3000400 	vshl.u8	d0, d0, d0
    35a0:	129f5101 	addsne	r5, pc, #1073741824	; 0x40000000
    35a4:	14000013 	strne	r0, [r0], #-19	; 0xffffffed
    35a8:	01000013 	tsteq	r0, r3, lsl r0
    35ac:	13145100 	tstne	r4, #0, 2
    35b0:	131a0000 	tstne	sl, #0
    35b4:	00040000 	andeq	r0, r4, r0
    35b8:	9f5101f3 	svcls	0x005101f3
    35bc:	0000131a 	andeq	r1, r0, sl, lsl r3
    35c0:	0000131e 	andeq	r1, r0, lr, lsl r3
    35c4:	1e510001 	cdpne	0, 5, cr0, cr1, cr1, {0}
    35c8:	40000013 	andmi	r0, r0, r3, lsl r0
    35cc:	04000013 	streq	r0, [r0], #-19	; 0xffffffed
    35d0:	5101f300 	mrspl	pc, SP_irq	; <UNPREDICTABLE>
    35d4:	0000009f 	muleq	r0, pc, r0	; <UNPREDICTABLE>
    35d8:	00000000 	andeq	r0, r0, r0
    35dc:	00128200 	andseq	r8, r2, r0, lsl #4
    35e0:	00128600 	andseq	r8, r2, r0, lsl #12
    35e4:	50000100 	andpl	r0, r0, r0, lsl #2
    35e8:	00001286 	andeq	r1, r0, r6, lsl #5
    35ec:	000012ce 	andeq	r1, r0, lr, asr #5
    35f0:	01f30004 	mvnseq	r0, r4
    35f4:	12fe9f50 	rscsne	r9, lr, #80, 30	; 0x140
    35f8:	13020000 	movwne	r0, #8192	; 0x2000
    35fc:	00040000 	andeq	r0, r4, r0
    3600:	9f5001f3 	svcls	0x005001f3
    3604:	00001312 	andeq	r1, r0, r2, lsl r3
    3608:	00001340 	andeq	r1, r0, r0, asr #6
    360c:	01f30004 	mvnseq	r0, r4
    3610:	00009f50 	andeq	r9, r0, r0, asr pc
    3614:	00000000 	andeq	r0, r0, r0
    3618:	128c0000 	addne	r0, ip, #0
    361c:	12ce0000 	sbcne	r0, lr, #0
    3620:	00010000 	andeq	r0, r1, r0
    3624:	0012fe57 	andseq	pc, r2, r7, asr lr	; <UNPREDICTABLE>
    3628:	00130200 	andseq	r0, r3, r0, lsl #4
    362c:	57000100 	strpl	r0, [r0, -r0, lsl #2]
    3630:	00001312 	andeq	r1, r0, r2, lsl r3
    3634:	0000133c 	andeq	r1, r0, ip, lsr r3
    3638:	00570001 	subseq	r0, r7, r1
    363c:	00000000 	andeq	r0, r0, r0
    3640:	c2000000 	andgt	r0, r0, #0
    3644:	c6000012 			; <UNDEFINED> instruction: 0xc6000012
    3648:	01000012 	tsteq	r0, r2, lsl r0
    364c:	12c65000 	sbcne	r5, r6, #0
    3650:	12ce0000 	sbcne	r0, lr, #0
    3654:	00010000 	andeq	r0, r1, r0
    3658:	00132e51 	andseq	r2, r3, r1, asr lr
    365c:	00133200 	andseq	r3, r3, r0, lsl #4
    3660:	50000100 	andpl	r0, r0, r0, lsl #2
    3664:	00001332 	andeq	r1, r0, r2, lsr r3
    3668:	0000133f 	andeq	r1, r0, pc, lsr r3
    366c:	00510001 	subseq	r0, r1, r1
    3670:	00000000 	andeq	r0, r0, r0
    3674:	12000000 	andne	r0, r0, #0
    3678:	1a000013 	bne	36cc <_init-0xd110>
    367c:	02000013 	andeq	r0, r0, #19
    3680:	009f3200 	addseq	r3, pc, r0, lsl #4
    3684:	00000000 	andeq	r0, r0, r0
    3688:	b2000000 	andlt	r0, r0, #0
    368c:	ce000012 	mcrgt	0, 0, r0, cr0, cr2, {0}
    3690:	01000012 	tsteq	r0, r2, lsl r0
    3694:	131e5900 	tstne	lr, #0, 18
    3698:	133c0000 	teqne	ip, #0
    369c:	00010000 	andeq	r0, r1, r0
    36a0:	00133c59 	andseq	r3, r3, r9, asr ip
    36a4:	00133f00 	andseq	r3, r3, r0, lsl #30
    36a8:	50000100 	andpl	r0, r0, r0, lsl #2
	...
    36b4:	000012b2 			; <UNDEFINED> instruction: 0x000012b2
    36b8:	000012ba 			; <UNDEFINED> instruction: 0x000012ba
    36bc:	1e590001 	cdpne	0, 5, cr0, cr9, cr1, {0}
    36c0:	24000013 	strcs	r0, [r0], #-19	; 0xffffffed
    36c4:	01000013 	tsteq	r0, r3, lsl r0
    36c8:	00005900 	andeq	r5, r0, r0, lsl #18
    36cc:	00000000 	andeq	r0, r0, r0
    36d0:	12c60000 	sbcne	r0, r6, #0
    36d4:	12ce0000 	sbcne	r0, lr, #0
    36d8:	00010000 	andeq	r0, r1, r0
    36dc:	00133251 	andseq	r3, r3, r1, asr r2
    36e0:	00133f00 	andseq	r3, r3, r0, lsl #30
    36e4:	51000100 	mrspl	r0, (UNDEF: 16)
	...
    36f0:	000012c6 	andeq	r1, r0, r6, asr #5
    36f4:	000012ce 	andeq	r1, r0, lr, asr #5
    36f8:	32590001 	subscc	r0, r9, #1
    36fc:	3c000013 	stccc	0, cr0, [r0], {19}
    3700:	01000013 	tsteq	r0, r3, lsl r0
    3704:	133c5900 	teqne	ip, #0, 18
    3708:	133f0000 	teqne	pc, #0
    370c:	00010000 	andeq	r0, r1, r0
    3710:	00000050 	andeq	r0, r0, r0, asr r0
    3714:	00000000 	andeq	r0, r0, r0
    3718:	0012ce00 	andseq	ip, r2, r0, lsl #28
    371c:	0012d300 	andseq	sp, r2, r0, lsl #6
    3720:	51000100 	mrspl	r0, (UNDEF: 16)
    3724:	000012d3 	ldrdeq	r1, [r0], -r3
    3728:	000012d4 	ldrdeq	r1, [r0], -r4
    372c:	01f30004 	mvnseq	r0, r4
    3730:	00009f51 	andeq	r9, r0, r1, asr pc
    3734:	00000000 	andeq	r0, r0, r0
    3738:	12ec0000 	rscne	r0, ip, #0
    373c:	12f20000 	rscsne	r0, r2, #0
    3740:	00020000 	andeq	r0, r2, r0
    3744:	13029f30 	movwne	r9, #12080	; 0x2f30
    3748:	13060000 	movwne	r0, #24576	; 0x6000
    374c:	00020000 	andeq	r0, r2, r0
    3750:	00009f30 	andeq	r9, r0, r0, lsr pc
    3754:	00000000 	andeq	r0, r0, r0
    3758:	13400000 	movtne	r0, #0
    375c:	135c0000 	cmpne	ip, #0
    3760:	00010000 	andeq	r0, r1, r0
    3764:	00135c50 	andseq	r5, r3, r0, asr ip
    3768:	00138000 	andseq	r8, r3, r0
    376c:	f3000400 	vshl.u8	d0, d0, d0
    3770:	809f5001 	addshi	r5, pc, r1
    3774:	89000013 	stmdbhi	r0, {r0, r1, r4}
    3778:	01000013 	tsteq	r0, r3, lsl r0
    377c:	13895000 	orrne	r5, r9, #0
    3780:	138a0000 	orrne	r0, sl, #0
    3784:	00040000 	andeq	r0, r4, r0
    3788:	9f5001f3 	svcls	0x005001f3
	...
    3794:	00001340 	andeq	r1, r0, r0, asr #6
    3798:	00001364 	andeq	r1, r0, r4, ror #6
    379c:	64510001 	ldrbvs	r0, [r1], #-1
    37a0:	80000013 	andhi	r0, r0, r3, lsl r0
    37a4:	04000013 	streq	r0, [r0], #-19	; 0xffffffed
    37a8:	5101f300 	mrspl	pc, SP_irq	; <UNPREDICTABLE>
    37ac:	0013809f 	mulseq	r3, pc, r0	; <UNPREDICTABLE>
    37b0:	00138200 	andseq	r8, r3, r0, lsl #4
    37b4:	51000100 	mrspl	r0, (UNDEF: 16)
    37b8:	00001382 	andeq	r1, r0, r2, lsl #7
    37bc:	0000138a 	andeq	r1, r0, sl, lsl #7
    37c0:	01f30004 	mvnseq	r0, r4
    37c4:	00009f51 	andeq	r9, r0, r1, asr pc
    37c8:	00000000 	andeq	r0, r0, r0
    37cc:	13580000 	cmpne	r8, #0
    37d0:	136e0000 	cmnne	lr, #0
    37d4:	00130000 	andseq	r0, r3, r0
    37d8:	25350072 	ldrcs	r0, [r5, #-114]!	; 0xffffff8e
    37dc:	231aff08 	tstcs	sl, #8, 30	; <UNPREDICTABLE>
    37e0:	03243226 			; <UNDEFINED> instruction: 0x03243226
    37e4:	0002407c 	andeq	r4, r2, ip, ror r0
    37e8:	009f2206 	addseq	r2, pc, r6, lsl #4
    37ec:	00000000 	andeq	r0, r0, r0
    37f0:	58000000 	stmdapl	r0, {}	; <UNPREDICTABLE>
    37f4:	6e000013 	mcrvs	0, 0, r0, cr0, cr3, {0}
    37f8:	05000013 	streq	r0, [r0, #-19]	; 0xffffffed
    37fc:	4f007200 	svcmi	0x00007200
    3800:	00009f1a 	andeq	r9, r0, sl, lsl pc
    3804:	00000000 	andeq	r0, r0, r0
    3808:	13800000 	orrne	r0, r0, #0
    380c:	13820000 	orrne	r0, r2, #0
    3810:	00010000 	andeq	r0, r1, r0
    3814:	00000051 	andeq	r0, r0, r1, asr r0
    3818:	00000000 	andeq	r0, r0, r0
    381c:	00138c00 	andseq	r8, r3, r0, lsl #24
    3820:	0013ac00 	andseq	sl, r3, r0, lsl #24
    3824:	50000100 	andpl	r0, r0, r0, lsl #2
    3828:	000013ac 	andeq	r1, r0, ip, lsr #7
    382c:	00001426 	andeq	r1, r0, r6, lsr #8
    3830:	26560001 	ldrbcs	r0, [r6], -r1
    3834:	ba000014 	blt	388c <_init-0xcf50>
    3838:	04000014 	streq	r0, [r0], #-20	; 0xffffffec
    383c:	5001f300 	andpl	pc, r1, r0, lsl #6
    3840:	0000009f 	muleq	r0, pc, r0	; <UNPREDICTABLE>
    3844:	00000000 	andeq	r0, r0, r0
    3848:	00138c00 	andseq	r8, r3, r0, lsl #24
    384c:	0013aa00 	andseq	sl, r3, r0, lsl #20
    3850:	51000100 	mrspl	r0, (UNDEF: 16)
    3854:	000013aa 	andeq	r1, r0, sl, lsr #7
    3858:	000014ba 			; <UNDEFINED> instruction: 0x000014ba
    385c:	00590001 	subseq	r0, r9, r1
    3860:	00000000 	andeq	r0, r0, r0
    3864:	8c000000 	stchi	0, cr0, [r0], {-0}
    3868:	a0000013 	andge	r0, r0, r3, lsl r0
    386c:	01000013 	tsteq	r0, r3, lsl r0
    3870:	13a05200 	movne	r5, #0, 4
    3874:	14260000 	strtne	r0, [r6], #-0
    3878:	00010000 	andeq	r0, r1, r0
    387c:	00142654 	andseq	r2, r4, r4, asr r6
    3880:	0014ba00 	andseq	fp, r4, r0, lsl #20
    3884:	f3000400 	vshl.u8	d0, d0, d0
    3888:	009f5201 	addseq	r5, pc, r1, lsl #4
    388c:	00000000 	andeq	r0, r0, r0
    3890:	b0000000 	andlt	r0, r0, r0
    3894:	0e000013 	mcreq	0, 0, r0, cr0, cr3, {0}
    3898:	01000014 	tsteq	r0, r4, lsl r0
    389c:	140e5500 	strne	r5, [lr], #-1280	; 0xfffffb00
    38a0:	14ba0000 	ldrtne	r0, [sl], #0
    38a4:	00030000 	andeq	r0, r3, r0
    38a8:	009f087a 	addseq	r0, pc, sl, ror r8	; <UNPREDICTABLE>
    38ac:	00000000 	andeq	r0, r0, r0
    38b0:	be000000 	cdplt	0, 0, cr0, cr0, cr0, {0}
    38b4:	46000013 			; <UNDEFINED> instruction: 0x46000013
    38b8:	01000014 	tsteq	r0, r4, lsl r0
    38bc:	14465800 	strbne	r5, [r6], #-2048	; 0xfffff800
    38c0:	14490000 	strbne	r0, [r9], #-0
    38c4:	00010000 	andeq	r0, r1, r0
    38c8:	00144950 	andseq	r4, r4, r0, asr r9
    38cc:	00146600 	andseq	r6, r4, r0, lsl #12
    38d0:	58000100 	stmdapl	r0, {r8}
    38d4:	00001466 	andeq	r1, r0, r6, ror #8
    38d8:	00001469 	andeq	r1, r0, r9, ror #8
    38dc:	69500001 	ldmdbvs	r0, {r0}^
    38e0:	ba000014 	blt	3938 <_init-0xcea4>
    38e4:	01000014 	tsteq	r0, r4, lsl r0
    38e8:	00005800 	andeq	r5, r0, r0, lsl #16
    38ec:	00000000 	andeq	r0, r0, r0
    38f0:	13be0000 			; <UNDEFINED> instruction: 0x13be0000
    38f4:	13c10000 	bicne	r0, r1, #0
    38f8:	00010000 	andeq	r0, r1, r0
    38fc:	0013c150 	andseq	ip, r3, r0, asr r1
    3900:	0013e800 	andseq	lr, r3, r0, lsl #16
    3904:	57000100 	strpl	r0, [r0, -r0, lsl #2]
    3908:	000013e8 	andeq	r1, r0, r8, ror #7
    390c:	000013eb 	andeq	r1, r0, fp, ror #7
    3910:	eb500001 	bl	140391c <__bss_end__+0x13df850>
    3914:	ba000013 	blt	3968 <_init-0xce74>
    3918:	01000014 	tsteq	r0, r4, lsl r0
    391c:	00005700 	andeq	r5, r0, r0, lsl #14
    3920:	00000000 	andeq	r0, r0, r0
    3924:	13be0000 			; <UNDEFINED> instruction: 0x13be0000
    3928:	144c0000 	strbne	r0, [ip], #-0
    392c:	00010000 	andeq	r0, r1, r0
    3930:	00144c54 	andseq	r4, r4, r4, asr ip
    3934:	00145000 	andseq	r5, r4, r0
    3938:	74000300 	strvc	r0, [r0], #-768	; 0xfffffd00
    393c:	14569f01 	ldrbne	r9, [r6], #-3841	; 0xfffff0ff
    3940:	146c0000 	strbtne	r0, [ip], #-0
    3944:	00010000 	andeq	r0, r1, r0
    3948:	00146c54 	andseq	r6, r4, r4, asr ip
    394c:	00147000 	andseq	r7, r4, r0
    3950:	74000300 	strvc	r0, [r0], #-768	; 0xfffffd00
    3954:	14729f01 	ldrbtne	r9, [r2], #-3841	; 0xfffff0ff
    3958:	14800000 	strne	r0, [r0], #0
    395c:	00010000 	andeq	r0, r1, r0
    3960:	00000054 	andeq	r0, r0, r4, asr r0
    3964:	00000000 	andeq	r0, r0, r0
    3968:	0013be00 	andseq	fp, r3, r0, lsl #28
    396c:	00142600 	andseq	r2, r4, r0, lsl #12
    3970:	30000200 	andcc	r0, r0, r0, lsl #4
    3974:	0014269f 	mulseq	r4, pc, r6	; <UNPREDICTABLE>
    3978:	00146200 	andseq	r6, r4, r0, lsl #4
    397c:	55000100 	strpl	r0, [r0, #-256]	; 0xffffff00
    3980:	00001466 	andeq	r1, r0, r6, ror #8
    3984:	00001480 	andeq	r1, r0, r0, lsl #9
    3988:	00750006 	rsbseq	r0, r5, r6
    398c:	9f1c0079 	svcls	0x001c0079
	...
    3998:	000013be 			; <UNDEFINED> instruction: 0x000013be
    399c:	0000148e 	andeq	r1, r0, lr, lsl #9
    39a0:	9f300002 	svcls	0x00300002
    39a4:	0000148e 	andeq	r1, r0, lr, lsl #9
    39a8:	0000149e 	muleq	r0, lr, r4
    39ac:	9e540001 	cdpls	0, 5, cr0, cr4, cr1, {0}
    39b0:	ba000014 	blt	3a08 <_init-0xcdd4>
    39b4:	02000014 	andeq	r0, r0, #20
    39b8:	009f3000 	addseq	r3, pc, r0
    39bc:	00000000 	andeq	r0, r0, r0
    39c0:	bc000000 	stclt	0, cr0, [r0], {-0}
    39c4:	e4000014 	str	r0, [r0], #-20	; 0xffffffec
    39c8:	01000014 	tsteq	r0, r4, lsl r0
    39cc:	14e45000 	strbtne	r5, [r4], #0
    39d0:	150c0000 	strne	r0, [ip, #-0]
    39d4:	00010000 	andeq	r0, r1, r0
    39d8:	00150c58 	andseq	r0, r5, r8, asr ip
    39dc:	00151400 	andseq	r1, r5, r0, lsl #8
    39e0:	72000300 	andvc	r0, r0, #0, 6
    39e4:	15149f01 	ldrne	r9, [r4, #-3841]	; 0xfffff0ff
    39e8:	16420000 	strbne	r0, [r2], -r0
    39ec:	00040000 	andeq	r0, r4, r0
    39f0:	9f5001f3 	svcls	0x005001f3
	...
    39fc:	000014bc 			; <UNDEFINED> instruction: 0x000014bc
    3a00:	000014e2 	andeq	r1, r0, r2, ror #9
    3a04:	e2510001 	subs	r0, r1, #1
    3a08:	9a000014 	bls	3a60 <_init-0xcd7c>
    3a0c:	01000015 	tsteq	r0, r5, lsl r0
    3a10:	159a5600 	ldrne	r5, [sl, #1536]	; 0x600
    3a14:	16420000 	strbne	r0, [r2], -r0
    3a18:	00040000 	andeq	r0, r4, r0
    3a1c:	9f5101f3 	svcls	0x005101f3
	...
    3a28:	000014bc 			; <UNDEFINED> instruction: 0x000014bc
    3a2c:	000014ce 	andeq	r1, r0, lr, asr #9
    3a30:	ce520001 	cdpgt	0, 5, cr0, cr2, cr1, {0}
    3a34:	42000014 	andmi	r0, r0, #20
    3a38:	01000016 	tsteq	r0, r6, lsl r0
    3a3c:	00005b00 	andeq	r5, r0, r0, lsl #22
    3a40:	00000000 	andeq	r0, r0, r0
    3a44:	14bc0000 	ldrtne	r0, [ip], #0
    3a48:	14dc0000 	ldrbne	r0, [ip], #0
    3a4c:	00010000 	andeq	r0, r1, r0
    3a50:	0014dc53 	andseq	sp, r4, r3, asr ip
    3a54:	00159a00 	andseq	r9, r5, r0, lsl #20
    3a58:	54000100 	strpl	r0, [r0], #-256	; 0xffffff00
    3a5c:	0000159a 	muleq	r0, sl, r5
    3a60:	00001642 	andeq	r1, r0, r2, asr #12
    3a64:	01f30004 	mvnseq	r0, r4
    3a68:	00009f53 	andeq	r9, r0, r3, asr pc
    3a6c:	00000000 	andeq	r0, r0, r0
    3a70:	14e80000 	strbtne	r0, [r8], #0
    3a74:	14eb0000 	strbtne	r0, [fp], #0
    3a78:	00010000 	andeq	r0, r1, r0
    3a7c:	0014eb53 	andseq	lr, r4, r3, asr fp
    3a80:	00150000 	andseq	r0, r5, r0
    3a84:	55000100 	strpl	r0, [r0, #-256]	; 0xffffff00
    3a88:	00001500 	andeq	r1, r0, r0, lsl #10
    3a8c:	00001503 	andeq	r1, r0, r3, lsl #10
    3a90:	03500001 	cmpeq	r0, #1
    3a94:	42000015 	andmi	r0, r0, #21
    3a98:	02000016 	andeq	r0, r0, #22
    3a9c:	00549100 	subseq	r9, r4, r0, lsl #2
    3aa0:	00000000 	andeq	r0, r0, r0
    3aa4:	f6000000 			; <UNDEFINED> instruction: 0xf6000000
    3aa8:	ec000014 	stc	0, cr0, [r0], {20}
    3aac:	01000015 	tsteq	r0, r5, lsl r0
    3ab0:	15ec5a00 	strbne	r5, [ip, #2560]!	; 0xa00
    3ab4:	15ef0000 	strbne	r0, [pc, #0]!	; 3abc <_init-0xcd20>
    3ab8:	00010000 	andeq	r0, r1, r0
    3abc:	0015ef50 	andseq	lr, r5, r0, asr pc
    3ac0:	00164200 	andseq	r4, r6, r0, lsl #4
    3ac4:	5a000100 	bpl	3ecc <_init-0xc910>
	...
    3ad0:	000014f6 	strdeq	r1, [r0], -r6
    3ad4:	000014f9 	strdeq	r1, [r0], -r9
    3ad8:	f9500001 			; <UNDEFINED> instruction: 0xf9500001
    3adc:	42000014 	andmi	r0, r0, #20
    3ae0:	01000016 	tsteq	r0, r6, lsl r0
    3ae4:	00005700 	andeq	r5, r0, r0, lsl #14
    3ae8:	00000000 	andeq	r0, r0, r0
    3aec:	14f60000 	ldrbtne	r0, [r6], #0
    3af0:	15140000 	ldrne	r0, [r4, #-0]
    3af4:	00010000 	andeq	r0, r1, r0
    3af8:	00151a56 	andseq	r1, r5, r6, asr sl
    3afc:	00151c00 	andseq	r1, r5, r0, lsl #24
    3b00:	76000600 	strvc	r0, [r0], -r0, lsl #12
    3b04:	1c007500 	cfstr32ne	mvfx7, [r0], {-0}
    3b08:	00151c9f 	mulseq	r5, pc, ip	; <UNPREDICTABLE>
    3b0c:	00152000 	andseq	r2, r5, r0
    3b10:	51000100 	mrspl	r0, (UNDEF: 16)
    3b14:	00001520 	andeq	r1, r0, r0, lsr #10
    3b18:	00001528 	andeq	r1, r0, r8, lsr #10
    3b1c:	00760006 	rsbseq	r0, r6, r6
    3b20:	9f1c0075 	svcls	0x001c0075
    3b24:	00001540 	andeq	r1, r0, r0, asr #10
    3b28:	00001548 	andeq	r1, r0, r8, asr #10
    3b2c:	78560001 	ldmdavc	r6, {r0}^
    3b30:	b8000015 	stmdalt	r0, {r0, r2, r4}
    3b34:	01000015 	tsteq	r0, r5, lsl r0
    3b38:	15b85400 	ldrne	r5, [r8, #1024]!	; 0x400
    3b3c:	15bc0000 	ldrne	r0, [ip, #0]!
    3b40:	00030000 	andeq	r0, r3, r0
    3b44:	c29f0174 	addsgt	r0, pc, #116, 2
    3b48:	f2000015 	vqadd.s8	d0, d0, d5
    3b4c:	01000015 	tsteq	r0, r5, lsl r0
    3b50:	15f25400 	ldrbne	r5, [r2, #1024]!	; 0x400
    3b54:	15f60000 	ldrbne	r0, [r6, #0]!
    3b58:	00030000 	andeq	r0, r3, r0
    3b5c:	f89f0174 			; <UNDEFINED> instruction: 0xf89f0174
    3b60:	06000015 			; <UNDEFINED> instruction: 0x06000015
    3b64:	01000016 	tsteq	r0, r6, lsl r0
    3b68:	00005400 	andeq	r5, r0, r0, lsl #8
    3b6c:	00000000 	andeq	r0, r0, r0
    3b70:	14f60000 	ldrbtne	r0, [r6], #0
    3b74:	15140000 	ldrne	r0, [r4, #-0]
    3b78:	00020000 	andeq	r0, r2, r0
    3b7c:	15149f30 	ldrne	r9, [r4, #-3888]	; 0xfffff0d0
    3b80:	15400000 	strbne	r0, [r0, #-0]
    3b84:	00010000 	andeq	r0, r1, r0
    3b88:	00154055 	andseq	r4, r5, r5, asr r0
    3b8c:	00154800 	andseq	r4, r5, r0, lsl #16
    3b90:	30000200 	andcc	r0, r0, r0, lsl #4
    3b94:	0015789f 	mulseq	r5, pc, r8	; <UNPREDICTABLE>
    3b98:	00159a00 	andseq	r9, r5, r0, lsl #20
    3b9c:	30000200 	andcc	r0, r0, r0, lsl #4
    3ba0:	00159a9f 	mulseq	r5, pc, sl	; <UNPREDICTABLE>
    3ba4:	0015e800 	andseq	lr, r5, r0, lsl #16
    3ba8:	55000100 	strpl	r0, [r0, #-256]	; 0xffffff00
	...
    3bb4:	000014f6 	strdeq	r1, [r0], -r6
    3bb8:	00001614 	andeq	r1, r0, r4, lsl r6
    3bbc:	9f300002 	svcls	0x00300002
    3bc0:	00001614 	andeq	r1, r0, r4, lsl r6
    3bc4:	00001626 	andeq	r1, r0, r6, lsr #12
    3bc8:	26540001 	ldrbcs	r0, [r4], -r1
    3bcc:	42000016 	andmi	r0, r0, #22
    3bd0:	02000016 	andeq	r0, r0, #22
    3bd4:	009f3000 	addseq	r3, pc, r0
    3bd8:	00000000 	andeq	r0, r0, r0
    3bdc:	14000000 	strne	r0, [r0], #-0
    3be0:	18000015 	stmdane	r0, {r0, r2, r4}
    3be4:	01000015 	tsteq	r0, r5, lsl r0
    3be8:	15305100 	ldrne	r5, [r0, #-256]!	; 0xffffff00
    3bec:	153b0000 	ldrne	r0, [fp, #-0]!
    3bf0:	00010000 	andeq	r0, r1, r0
    3bf4:	00000051 	andeq	r0, r0, r1, asr r0
    3bf8:	00000000 	andeq	r0, r0, r0
    3bfc:	00164400 	andseq	r4, r6, r0, lsl #8
    3c00:	00164c00 	andseq	r4, r6, r0, lsl #24
    3c04:	50000600 	andpl	r0, r0, r0, lsl #12
    3c08:	93510493 	cmpls	r1, #-1828716544	; 0x93000000
    3c0c:	00164c04 	andseq	r4, r6, r4, lsl #24
    3c10:	00165a00 	andseq	r5, r6, r0, lsl #20
    3c14:	f3000600 	vmax.u8	d0, d0, d0
    3c18:	2c00f503 	cfstr32cs	mvfx15, [r0], {3}
    3c1c:	0000009f 	muleq	r0, pc, r0	; <UNPREDICTABLE>
    3c20:	00000000 	andeq	r0, r0, r0
    3c24:	00164400 	andseq	r4, r6, r0, lsl #8
    3c28:	00164c00 	andseq	r4, r6, r0, lsl #24
    3c2c:	52000600 	andpl	r0, r0, #0, 12
    3c30:	93530493 	cmpls	r3, #-1828716544	; 0x93000000
    3c34:	00164c04 	andseq	r4, r6, r4, lsl #24
    3c38:	00165a00 	andseq	r5, r6, r0, lsl #20
    3c3c:	f3000600 	vmax.u8	d0, d0, d0
    3c40:	2c02f503 	cfstr32cs	mvfx15, [r2], {3}
    3c44:	0000009f 	muleq	r0, pc, r0	; <UNPREDICTABLE>
    3c48:	00000000 	andeq	r0, r0, r0
    3c4c:	00165c00 	andseq	r5, r6, r0, lsl #24
    3c50:	00167400 	andseq	r7, r6, r0, lsl #8
    3c54:	50000100 	andpl	r0, r0, r0, lsl #2
    3c58:	00001674 	andeq	r1, r0, r4, ror r6
    3c5c:	00001692 	muleq	r0, r2, r6
    3c60:	92520001 	subsls	r0, r2, #1
    3c64:	ec000016 	stc	0, cr0, [r0], {22}
    3c68:	01000016 	tsteq	r0, r6, lsl r0
    3c6c:	00005800 	andeq	r5, r0, r0, lsl #16
    3c70:	00000000 	andeq	r0, r0, r0
    3c74:	16960000 	ldrne	r0, [r6], r0
    3c78:	16ec0000 	strbtne	r0, [ip], r0
    3c7c:	00030000 	andeq	r0, r3, r0
    3c80:	009f6e08 	addseq	r6, pc, r8, lsl #28
    3c84:	00000000 	andeq	r0, r0, r0
    3c88:	b6000000 	strlt	r0, [r0], -r0
    3c8c:	c2000016 	andgt	r0, r0, #22
    3c90:	02000016 	andeq	r0, r0, #22
    3c94:	009f3100 	addseq	r3, pc, r0, lsl #2
	...
    3ca0:	1a000017 	bne	3d04 <_init-0xcad8>
    3ca4:	01000017 	tsteq	r0, r7, lsl r0
    3ca8:	171a5000 	ldrne	r5, [sl, -r0]
    3cac:	177c0000 	ldrbne	r0, [ip, -r0]!
    3cb0:	00040000 	andeq	r0, r4, r0
    3cb4:	9f5001f3 	svcls	0x005001f3
	...
    3cc0:	00001700 	andeq	r1, r0, r0, lsl #14
    3cc4:	00001721 	andeq	r1, r0, r1, lsr #14
    3cc8:	21510001 	cmpcs	r1, r1
    3ccc:	7c000017 	stcvc	0, cr0, [r0], {23}
    3cd0:	04000017 	streq	r0, [r0], #-23	; 0xffffffe9
    3cd4:	5101f300 	mrspl	pc, SP_irq	; <UNPREDICTABLE>
    3cd8:	0000009f 	muleq	r0, pc, r0	; <UNPREDICTABLE>
    3cdc:	00000000 	andeq	r0, r0, r0
    3ce0:	00170000 	andseq	r0, r7, r0
    3ce4:	00172100 	andseq	r2, r7, r0, lsl #2
    3ce8:	52000100 	andpl	r0, r0, #0, 2
    3cec:	00001721 	andeq	r1, r0, r1, lsr #14
    3cf0:	0000177c 	andeq	r1, r0, ip, ror r7
    3cf4:	01f30004 	mvnseq	r0, r4
    3cf8:	00009f52 	andeq	r9, r0, r2, asr pc
    3cfc:	00000000 	andeq	r0, r0, r0
    3d00:	17220000 	strne	r0, [r2, -r0]!
    3d04:	17380000 	ldrne	r0, [r8, -r0]!
    3d08:	00010000 	andeq	r0, r1, r0
    3d0c:	00173a50 	andseq	r3, r7, r0, asr sl
    3d10:	00175a00 	andseq	r5, r7, r0, lsl #20
    3d14:	50000100 	andpl	r0, r0, r0, lsl #2
    3d18:	0000175a 	andeq	r1, r0, sl, asr r7
    3d1c:	00001761 	andeq	r1, r0, r1, ror #14
    3d20:	62510001 	subsvs	r0, r1, #1
    3d24:	7c000017 	stcvc	0, cr0, [r0], {23}
    3d28:	01000017 	tsteq	r0, r7, lsl r0
    3d2c:	00005000 	andeq	r5, r0, r0
    3d30:	00000000 	andeq	r0, r0, r0
    3d34:	17320000 	ldrne	r0, [r2, -r0]!
    3d38:	17380000 	ldrne	r0, [r8, -r0]!
    3d3c:	00010000 	andeq	r0, r1, r0
    3d40:	00175650 	andseq	r5, r7, r0, asr r6
    3d44:	00175a00 	andseq	r5, r7, r0, lsl #20
    3d48:	50000100 	andpl	r0, r0, r0, lsl #2
    3d4c:	0000175a 	andeq	r1, r0, sl, asr r7
    3d50:	00001761 	andeq	r1, r0, r1, ror #14
    3d54:	00510001 	subseq	r0, r1, r1
    3d58:	00000000 	andeq	r0, r0, r0
    3d5c:	32000000 	andcc	r0, r0, #0
    3d60:	38000017 	stmdacc	r0, {r0, r1, r2, r4}
    3d64:	01000017 	tsteq	r0, r7, lsl r0
    3d68:	17565200 	ldrbne	r5, [r6, -r0, lsl #4]
    3d6c:	17610000 	strbne	r0, [r1, -r0]!
    3d70:	00010000 	andeq	r0, r1, r0
    3d74:	00000052 	andeq	r0, r0, r2, asr r0
    3d78:	00000000 	andeq	r0, r0, r0
    3d7c:	00177c00 	andseq	r7, r7, r0, lsl #24
    3d80:	0017c600 	andseq	ip, r7, r0, lsl #12
    3d84:	50000100 	andpl	r0, r0, r0, lsl #2
    3d88:	000017c6 	andeq	r1, r0, r6, asr #15
    3d8c:	000017ce 	andeq	r1, r0, lr, asr #15
    3d90:	01f30004 	mvnseq	r0, r4
    3d94:	17ce9f50 			; <UNDEFINED> instruction: 0x17ce9f50
    3d98:	17d20000 	ldrbne	r0, [r2, r0]
    3d9c:	00010000 	andeq	r0, r1, r0
    3da0:	0017d250 	andseq	sp, r7, r0, asr r2
    3da4:	0017da00 	andseq	sp, r7, r0, lsl #20
    3da8:	f3000400 	vshl.u8	d0, d0, d0
    3dac:	009f5001 	addseq	r5, pc, r1
    3db0:	00000000 	andeq	r0, r0, r0
    3db4:	7c000000 	stcvc	0, cr0, [r0], {-0}
    3db8:	cd000017 	stcgt	0, cr0, [r0, #-92]	; 0xffffffa4
    3dbc:	01000017 	tsteq	r0, r7, lsl r0
    3dc0:	17cd5100 	strbne	r5, [sp, r0, lsl #2]
    3dc4:	17ce0000 	strbne	r0, [lr, r0]
    3dc8:	00040000 	andeq	r0, r4, r0
    3dcc:	9f5101f3 	svcls	0x005101f3
    3dd0:	000017ce 	andeq	r1, r0, lr, asr #15
    3dd4:	000017d9 	ldrdeq	r1, [r0], -r9
    3dd8:	d9510001 	ldmdble	r1, {r0}^
    3ddc:	da000017 	ble	3e40 <_init-0xc99c>
    3de0:	04000017 	streq	r0, [r0], #-23	; 0xffffffe9
    3de4:	5101f300 	mrspl	pc, SP_irq	; <UNPREDICTABLE>
    3de8:	0000009f 	muleq	r0, pc, r0	; <UNPREDICTABLE>
    3dec:	00000000 	andeq	r0, r0, r0
    3df0:	00179400 	andseq	r9, r7, r0, lsl #8
    3df4:	0017a600 	andseq	sl, r7, r0, lsl #12
    3df8:	51000100 	mrspl	r0, (UNDEF: 16)
    3dfc:	000017c2 	andeq	r1, r0, r2, asr #15
    3e00:	000017cd 	andeq	r1, r0, sp, asr #15
    3e04:	cd510001 	ldclgt	0, cr0, [r1, #-4]
    3e08:	ce000017 	mcrgt	0, 0, r0, cr0, cr7, {0}
    3e0c:	04000017 	streq	r0, [r0], #-23	; 0xffffffe9
    3e10:	5101f300 	mrspl	pc, SP_irq	; <UNPREDICTABLE>
    3e14:	0000009f 	muleq	r0, pc, r0	; <UNPREDICTABLE>
    3e18:	00000000 	andeq	r0, r0, r0
    3e1c:	00179400 	andseq	r9, r7, r0, lsl #8
    3e20:	0017a600 	andseq	sl, r7, r0, lsl #12
    3e24:	73000300 	movwvc	r0, #768	; 0x300
    3e28:	17c29f10 	bfine	r9, r0, (invalid: 30:2)
    3e2c:	17cd0000 	strbne	r0, [sp, r0]
    3e30:	00030000 	andeq	r0, r3, r0
    3e34:	009f1073 	addseq	r1, pc, r3, ror r0	; <UNPREDICTABLE>
    3e38:	00000000 	andeq	r0, r0, r0
    3e3c:	b2000000 	andlt	r0, r0, #0
    3e40:	c2000017 	andgt	r0, r0, #23
    3e44:	01000017 	tsteq	r0, r7, lsl r0
    3e48:	17ce5100 	strbne	r5, [lr, r0, lsl #2]
    3e4c:	17d90000 	ldrbne	r0, [r9, r0]
    3e50:	00010000 	andeq	r0, r1, r0
    3e54:	0017d951 	andseq	sp, r7, r1, asr r9
    3e58:	0017da00 	andseq	sp, r7, r0, lsl #20
    3e5c:	f3000400 	vshl.u8	d0, d0, d0
    3e60:	009f5101 	addseq	r5, pc, r1, lsl #2
    3e64:	00000000 	andeq	r0, r0, r0
    3e68:	b2000000 	andlt	r0, r0, #0
    3e6c:	c2000017 	andgt	r0, r0, #23
    3e70:	03000017 	movweq	r0, #23
    3e74:	9f207300 	svcls	0x00207300
    3e78:	000017ce 	andeq	r1, r0, lr, asr #15
    3e7c:	000017d9 	ldrdeq	r1, [r0], -r9
    3e80:	20730003 	rsbscs	r0, r3, r3
    3e84:	0000009f 	muleq	r0, pc, r0	; <UNPREDICTABLE>
    3e88:	00000000 	andeq	r0, r0, r0
    3e8c:	0017dc00 	andseq	sp, r7, r0, lsl #24
    3e90:	00182600 	andseq	r2, r8, r0, lsl #12
    3e94:	50000100 	andpl	r0, r0, r0, lsl #2
    3e98:	00001826 	andeq	r1, r0, r6, lsr #16
    3e9c:	0000182e 	andeq	r1, r0, lr, lsr #16
    3ea0:	01f30004 	mvnseq	r0, r4
    3ea4:	182e9f50 	stmdane	lr!, {r4, r6, r8, r9, sl, fp, ip, pc}
    3ea8:	18320000 	ldmdane	r2!, {}	; <UNPREDICTABLE>
    3eac:	00010000 	andeq	r0, r1, r0
    3eb0:	00183250 	andseq	r3, r8, r0, asr r2
    3eb4:	00183a00 	andseq	r3, r8, r0, lsl #20
    3eb8:	f3000400 	vshl.u8	d0, d0, d0
    3ebc:	009f5001 	addseq	r5, pc, r1
    3ec0:	00000000 	andeq	r0, r0, r0
    3ec4:	dc000000 	stcle	0, cr0, [r0], {-0}
    3ec8:	2d000017 	stccs	0, cr0, [r0, #-92]	; 0xffffffa4
    3ecc:	01000018 	tsteq	r0, r8, lsl r0
    3ed0:	182d5100 	stmdane	sp!, {r8, ip, lr}
    3ed4:	182e0000 	stmdane	lr!, {}	; <UNPREDICTABLE>
    3ed8:	00040000 	andeq	r0, r4, r0
    3edc:	9f5101f3 	svcls	0x005101f3
    3ee0:	0000182e 	andeq	r1, r0, lr, lsr #16
    3ee4:	00001839 	andeq	r1, r0, r9, lsr r8
    3ee8:	39510001 	ldmdbcc	r1, {r0}^
    3eec:	3a000018 	bcc	3f54 <_init-0xc888>
    3ef0:	04000018 	streq	r0, [r0], #-24	; 0xffffffe8
    3ef4:	5101f300 	mrspl	pc, SP_irq	; <UNPREDICTABLE>
    3ef8:	0000009f 	muleq	r0, pc, r0	; <UNPREDICTABLE>
    3efc:	00000000 	andeq	r0, r0, r0
    3f00:	0017f400 	andseq	pc, r7, r0, lsl #8
    3f04:	00180600 	andseq	r0, r8, r0, lsl #12
    3f08:	51000100 	mrspl	r0, (UNDEF: 16)
    3f0c:	00001822 	andeq	r1, r0, r2, lsr #16
    3f10:	0000182d 	andeq	r1, r0, sp, lsr #16
    3f14:	2d510001 	ldclcs	0, cr0, [r1, #-4]
    3f18:	2e000018 	mcrcs	0, 0, r0, cr0, cr8, {0}
    3f1c:	04000018 	streq	r0, [r0], #-24	; 0xffffffe8
    3f20:	5101f300 	mrspl	pc, SP_irq	; <UNPREDICTABLE>
    3f24:	0000009f 	muleq	r0, pc, r0	; <UNPREDICTABLE>
    3f28:	00000000 	andeq	r0, r0, r0
    3f2c:	0017f400 	andseq	pc, r7, r0, lsl #8
    3f30:	00180600 	andseq	r0, r8, r0, lsl #12
    3f34:	73000300 	movwvc	r0, #768	; 0x300
    3f38:	18229f14 	stmdane	r2!, {r2, r4, r8, r9, sl, fp, ip, pc}
    3f3c:	182d0000 	stmdane	sp!, {}	; <UNPREDICTABLE>
    3f40:	00030000 	andeq	r0, r3, r0
    3f44:	009f1473 	addseq	r1, pc, r3, ror r4	; <UNPREDICTABLE>
    3f48:	00000000 	andeq	r0, r0, r0
    3f4c:	12000000 	andne	r0, r0, #0
    3f50:	22000018 	andcs	r0, r0, #24
    3f54:	01000018 	tsteq	r0, r8, lsl r0
    3f58:	182e5100 	stmdane	lr!, {r8, ip, lr}
    3f5c:	18390000 	ldmdane	r9!, {}	; <UNPREDICTABLE>
    3f60:	00010000 	andeq	r0, r1, r0
    3f64:	00183951 	andseq	r3, r8, r1, asr r9
    3f68:	00183a00 	andseq	r3, r8, r0, lsl #20
    3f6c:	f3000400 	vshl.u8	d0, d0, d0
    3f70:	009f5101 	addseq	r5, pc, r1, lsl #2
    3f74:	00000000 	andeq	r0, r0, r0
    3f78:	12000000 	andne	r0, r0, #0
    3f7c:	22000018 	andcs	r0, r0, #24
    3f80:	03000018 	movweq	r0, #24
    3f84:	9f247300 	svcls	0x00247300
    3f88:	0000182e 	andeq	r1, r0, lr, lsr #16
    3f8c:	00001839 	andeq	r1, r0, r9, lsr r8
    3f90:	24730003 	ldrbtcs	r0, [r3], #-3
    3f94:	0000009f 	muleq	r0, pc, r0	; <UNPREDICTABLE>
    3f98:	00000000 	andeq	r0, r0, r0
    3f9c:	00183c00 	andseq	r3, r8, r0, lsl #24
    3fa0:	00185100 	andseq	r5, r8, r0, lsl #2
    3fa4:	50000100 	andpl	r0, r0, r0, lsl #2
    3fa8:	00001851 	andeq	r1, r0, r1, asr r8
    3fac:	0000187e 	andeq	r1, r0, lr, ror r8
    3fb0:	00560001 	subseq	r0, r6, r1
    3fb4:	00000000 	andeq	r0, r0, r0
    3fb8:	64000000 	strvs	r0, [r0], #-0
    3fbc:	68000018 	stmdavs	r0, {r3, r4}
    3fc0:	01000018 	tsteq	r0, r8, lsl r0
    3fc4:	00005300 	andeq	r5, r0, r0, lsl #6
    3fc8:	00000000 	andeq	r0, r0, r0
    3fcc:	19640000 	stmdbne	r4!, {}^	; <UNPREDICTABLE>
    3fd0:	19800000 	stmibne	r0, {}	; <UNPREDICTABLE>
    3fd4:	00030000 	andeq	r0, r3, r0
    3fd8:	e49fff09 	ldr	pc, [pc], #3849	; 3fe0 <_init-0xc7fc>
    3fdc:	f4000019 	vst4.8	{d0-d3}, [r0 :64], r9
    3fe0:	03000019 	movweq	r0, #25
    3fe4:	9fff0900 	svcls	0x00ff0900
    3fe8:	00001a18 	andeq	r1, r0, r8, lsl sl
    3fec:	00001a22 	andeq	r1, r0, r2, lsr #20
    3ff0:	da570001 	ble	15c3ffc <__bss_end__+0x159ff30>
    3ff4:	e200001a 	and	r0, r0, #26
    3ff8:	0100001a 	tsteq	r0, sl, lsl r0
    3ffc:	00005700 	andeq	r5, r0, r0, lsl #14
    4000:	00000000 	andeq	r0, r0, r0
    4004:	19640000 	stmdbne	r4!, {}^	; <UNPREDICTABLE>
    4008:	19d00000 	ldmibne	r0, {}^	; <UNPREDICTABLE>
    400c:	00020000 	andeq	r0, r2, r0
    4010:	19d09f30 	ldmibne	r0, {r4, r5, r8, r9, sl, fp, ip, pc}^
    4014:	19e40000 	stmibne	r4!, {}^	; <UNPREDICTABLE>
    4018:	00020000 	andeq	r0, r2, r0
    401c:	19e49f31 	stmibne	r4!, {r0, r4, r5, r8, r9, sl, fp, ip, pc}^
    4020:	1a180000 	bne	604028 <__bss_end__+0x5dff5c>
    4024:	00020000 	andeq	r0, r2, r0
    4028:	1a189f30 	bne	62bcf0 <__bss_end__+0x607c24>
    402c:	1a220000 	bne	884034 <__bss_end__+0x85ff68>
    4030:	00020000 	andeq	r0, r2, r0
    4034:	1a229f31 	bne	8abd00 <__bss_end__+0x887c34>
    4038:	1a820000 	bne	fe084040 <__bss_end__+0xfe05ff74>
    403c:	00020000 	andeq	r0, r2, r0
    4040:	1ada9f30 	bne	ff6abd08 <__bss_end__+0xff687c3c>
    4044:	1ae20000 	bne	ff88404c <__bss_end__+0xff85ff80>
    4048:	00020000 	andeq	r0, r2, r0
    404c:	00009f30 	andeq	r9, r0, r0, lsr pc
    4050:	00000000 	andeq	r0, r0, r0
    4054:	19300000 	ldmdbne	r0!, {}	; <UNPREDICTABLE>
    4058:	193c0000 	ldmdbne	ip!, {}	; <UNPREDICTABLE>
    405c:	00010000 	andeq	r0, r1, r0
    4060:	00193c50 	andseq	r3, r9, r0, asr ip
    4064:	00193f00 	andseq	r3, r9, r0, lsl #30
    4068:	53000100 	movwpl	r0, #256	; 0x100
    406c:	0000193f 	andeq	r1, r0, pc, lsr r9
    4070:	00001988 	andeq	r1, r0, r8, lsl #19
    4074:	e4560001 	ldrb	r0, [r6], #-1
    4078:	fc000019 	stc2	0, cr0, [r0], {25}
    407c:	01000019 	tsteq	r0, r9, lsl r0
    4080:	1a225600 	bne	899888 <__bss_end__+0x8757bc>
    4084:	1a2c0000 	bne	b0408c <__bss_end__+0xadffc0>
    4088:	00010000 	andeq	r0, r1, r0
    408c:	001a5a56 	andseq	r5, sl, r6, asr sl
    4090:	001a6400 	andseq	r6, sl, r0, lsl #8
    4094:	56000100 	strpl	r0, [r0], -r0, lsl #2
    4098:	00001a82 	andeq	r1, r0, r2, lsl #21
    409c:	00001ada 	ldrdeq	r1, [r0], -sl
    40a0:	00560001 	subseq	r0, r6, r1
    40a4:	00000000 	andeq	r0, r0, r0
    40a8:	4a000000 	bmi	40b0 <_init-0xc72c>
    40ac:	4e000019 	mcrmi	0, 0, r0, cr0, cr9, {0}
    40b0:	01000019 	tsteq	r0, r9, lsl r0
    40b4:	194e5300 	stmdbne	lr, {r8, r9, ip, lr}^
    40b8:	19540000 	ldmdbne	r4, {}^	; <UNPREDICTABLE>
    40bc:	00010000 	andeq	r0, r1, r0
    40c0:	00195452 	andseq	r5, r9, r2, asr r4
    40c4:	00195e00 	andseq	r5, r9, r0, lsl #28
    40c8:	53000100 	movwpl	r0, #256	; 0x100
    40cc:	00001a82 	andeq	r1, r0, r2, lsl #21
    40d0:	00001ad2 	ldrdeq	r1, [r0], -r2
    40d4:	d2530001 	subsle	r0, r3, #1
    40d8:	da00001a 	ble	4148 <_init-0xc694>
    40dc:	0500001a 	streq	r0, [r0, #-26]	; 0xffffffe6
    40e0:	40a80300 	adcmi	r0, r8, r0, lsl #6
    40e4:	00000002 	andeq	r0, r0, r2
    40e8:	00000000 	andeq	r0, r0, r0
    40ec:	194c0000 	stmdbne	ip, {}^	; <UNPREDICTABLE>
    40f0:	19500000 	ldmdbne	r0, {}^	; <UNPREDICTABLE>
    40f4:	00010000 	andeq	r0, r1, r0
    40f8:	00195052 	andseq	r5, r9, r2, asr r0
    40fc:	00195400 	andseq	r5, r9, r0, lsl #8
    4100:	71002300 	mrsvc	r2, LR_irq
    4104:	15304800 	ldrne	r4, [r0, #-2048]!	; 0xfffff800
    4108:	03154802 	tsteq	r5, #131072	; 0x20000
    410c:	ff08251c 			; <UNDEFINED> instruction: 0xff08251c
    4110:	2402151a 	strcs	r1, [r2], #-1306	; 0xfffffae6
    4114:	30121621 	andscc	r1, r2, r1, lsr #12
    4118:	00062829 	andeq	r2, r6, r9, lsr #16
    411c:	2f161c38 	svccs	0x00161c38
    4120:	1613ffe5 	ldrne	pc, [r3], -r5, ror #31
    4124:	19549f13 	ldmdbne	r4, {r0, r1, r4, r8, r9, sl, fp, ip, pc}^
    4128:	195e0000 	ldmdbne	lr, {}^	; <UNPREDICTABLE>
    412c:	00010000 	andeq	r0, r1, r0
    4130:	001a8252 	andseq	r8, sl, r2, asr r2
    4134:	001ada00 	andseq	sp, sl, r0, lsl #20
    4138:	52000100 	andpl	r0, r0, #0, 2
	...
    4144:	00001934 	andeq	r1, r0, r4, lsr r9
    4148:	0000193c 	andeq	r1, r0, ip, lsr r9
    414c:	3c500001 	mrrccc	0, 0, r0, r0, cr1	; <UNPREDICTABLE>
    4150:	3f000019 	svccc	0x00000019
    4154:	01000019 	tsteq	r0, r9, lsl r0
    4158:	193f5300 	ldmdbne	pc!, {r8, r9, ip, lr}	; <UNPREDICTABLE>
    415c:	19400000 	stmdbne	r0, {}^	; <UNPREDICTABLE>
    4160:	00010000 	andeq	r0, r1, r0
    4164:	00000056 	andeq	r0, r0, r6, asr r0
    4168:	00000000 	andeq	r0, r0, r0
    416c:	00193400 	andseq	r3, r9, r0, lsl #8
    4170:	00194000 	andseq	r4, r9, r0
    4174:	40000200 	andmi	r0, r0, r0, lsl #4
    4178:	0000009f 	muleq	r0, pc, r0	; <UNPREDICTABLE>
    417c:	00000000 	andeq	r0, r0, r0
    4180:	00193400 	andseq	r3, r9, r0, lsl #8
    4184:	00194000 	andseq	r4, r9, r0
    4188:	31000200 	mrscc	r0, R8_usr
    418c:	0000009f 	muleq	r0, pc, r0	; <UNPREDICTABLE>
    4190:	00000000 	andeq	r0, r0, r0
    4194:	00193400 	andseq	r3, r9, r0, lsl #8
    4198:	00193c00 	andseq	r3, r9, r0, lsl #24
    419c:	91000300 	mrsls	r0, LR_irq
    41a0:	193c9f54 	ldmdbne	ip!, {r2, r4, r6, r8, r9, sl, fp, ip, pc}
    41a4:	193f0000 	ldmdbne	pc!, {}	; <UNPREDICTABLE>
    41a8:	00010000 	andeq	r0, r1, r0
    41ac:	00193f50 	andseq	r3, r9, r0, asr pc
    41b0:	00194000 	andseq	r4, r9, r0
    41b4:	91000300 	mrsls	r0, LR_irq
    41b8:	00009f54 	andeq	r9, r0, r4, asr pc
    41bc:	00000000 	andeq	r0, r0, r0
    41c0:	19700000 	ldmdbne	r0!, {}^	; <UNPREDICTABLE>
    41c4:	19800000 	stmibne	r0, {}	; <UNPREDICTABLE>
    41c8:	00060000 	andeq	r0, r6, r0
    41cc:	1010020c 	andsne	r0, r0, ip, lsl #4
    41d0:	00009f00 	andeq	r9, r0, r0, lsl #30
    41d4:	00000000 	andeq	r0, r0, r0
    41d8:	19700000 	ldmdbne	r0!, {}^	; <UNPREDICTABLE>
    41dc:	19800000 	stmibne	r0, {}	; <UNPREDICTABLE>
    41e0:	00060000 	andeq	r0, r6, r0
    41e4:	01301403 	teqeq	r0, r3, lsl #8
    41e8:	00009f00 	andeq	r9, r0, r0, lsl #30
    41ec:	00000000 	andeq	r0, r0, r0
    41f0:	19e40000 	stmibne	r4!, {}^	; <UNPREDICTABLE>
    41f4:	19f40000 	ldmibne	r4!, {}^	; <UNPREDICTABLE>
    41f8:	00060000 	andeq	r0, r6, r0
    41fc:	1010020c 	andsne	r0, r0, ip, lsl #4
    4200:	00009f00 	andeq	r9, r0, r0, lsl #30
    4204:	00000000 	andeq	r0, r0, r0
    4208:	19e40000 	stmibne	r4!, {}^	; <UNPREDICTABLE>
    420c:	19f40000 	ldmibne	r4!, {}^	; <UNPREDICTABLE>
    4210:	00060000 	andeq	r0, r6, r0
    4214:	01304c03 	teqeq	r0, r3, lsl #24
    4218:	00009f00 	andeq	r9, r0, r0, lsl #30
    421c:	00000000 	andeq	r0, r0, r0
    4220:	1a360000 	bne	d84228 <__bss_end__+0xd6015c>
    4224:	1a480000 	bne	120422c <__bss_end__+0x11e0160>
    4228:	00060000 	andeq	r0, r6, r0
    422c:	01305c03 	teqeq	r0, r3, lsl #24
    4230:	00009f00 	andeq	r9, r0, r0, lsl #30
    4234:	00000000 	andeq	r0, r0, r0
    4238:	1a360000 	bne	d84240 <__bss_end__+0xd60174>
    423c:	1a480000 	bne	1204244 <__bss_end__+0x11e0178>
    4240:	00010000 	andeq	r0, r1, r0
    4244:	00000056 	andeq	r0, r0, r6, asr r0
    4248:	00000000 	andeq	r0, r0, r0
    424c:	001a6e00 	andseq	r6, sl, r0, lsl #28
    4250:	001a8200 	andseq	r8, sl, r0, lsl #4
    4254:	03000600 	movweq	r0, #1536	; 0x600
    4258:	00013020 	andeq	r3, r1, r0, lsr #32
    425c:	0000009f 	muleq	r0, pc, r0	; <UNPREDICTABLE>
    4260:	00000000 	andeq	r0, r0, r0
    4264:	001a6e00 	andseq	r6, sl, r0, lsl #28
    4268:	001a8200 	andseq	r8, sl, r0, lsl #4
    426c:	56000100 	strpl	r0, [r0], -r0, lsl #2
	...

Disassembly of section .debug_ranges:

00000000 <.debug_ranges>:
   0:	00000000 	andeq	r0, r0, r0
   4:	00000006 	andeq	r0, r0, r6
   8:	00000008 	andeq	r0, r0, r8
   c:	00000012 	andeq	r0, r0, r2, lsl r0
	...
  18:	000001b2 			; <UNDEFINED> instruction: 0x000001b2
  1c:	000001c0 	andeq	r0, r0, r0, asr #3
  20:	000001c4 	andeq	r0, r0, r4, asr #3
  24:	000001c8 	andeq	r0, r0, r8, asr #3
	...
  30:	000001b2 			; <UNDEFINED> instruction: 0x000001b2
  34:	000001c0 	andeq	r0, r0, r0, asr #3
  38:	000001c4 	andeq	r0, r0, r4, asr #3
  3c:	000001c8 	andeq	r0, r0, r8, asr #3
	...
  48:	000005a8 	andeq	r0, r0, r8, lsr #11
  4c:	000005b0 			; <UNDEFINED> instruction: 0x000005b0
  50:	000005bc 			; <UNDEFINED> instruction: 0x000005bc
  54:	000005c6 	andeq	r0, r0, r6, asr #11
	...
  60:	000005ca 	andeq	r0, r0, sl, asr #11
  64:	000005d2 	ldrdeq	r0, [r0], -r2
  68:	000005d6 	ldrdeq	r0, [r0], -r6
  6c:	000005e0 	andeq	r0, r0, r0, ror #11
	...
  78:	000005e0 	andeq	r0, r0, r0, ror #11
  7c:	000005e8 	andeq	r0, r0, r8, ror #11
  80:	000005ec 	andeq	r0, r0, ip, ror #11
  84:	000005f0 	strdeq	r0, [r0], -r0	; <UNPREDICTABLE>
	...
  90:	00000600 	andeq	r0, r0, r0, lsl #12
  94:	00000608 	andeq	r0, r0, r8, lsl #12
  98:	0000060c 	andeq	r0, r0, ip, lsl #12
  9c:	0000063e 	andeq	r0, r0, lr, lsr r6
  a0:	00000640 	andeq	r0, r0, r0, asr #12
  a4:	0000064a 	andeq	r0, r0, sl, asr #12
	...
  b0:	0000060c 	andeq	r0, r0, ip, lsl #12
  b4:	0000060e 	andeq	r0, r0, lr, lsl #12
  b8:	00000618 	andeq	r0, r0, r8, lsl r6
  bc:	0000061e 	andeq	r0, r0, lr, lsl r6
  c0:	00000640 	andeq	r0, r0, r0, asr #12
  c4:	00000646 	andeq	r0, r0, r6, asr #12
	...
  d0:	000006a8 	andeq	r0, r0, r8, lsr #13
  d4:	000006b6 			; <UNDEFINED> instruction: 0x000006b6
  d8:	000006b8 			; <UNDEFINED> instruction: 0x000006b8
  dc:	000006bc 			; <UNDEFINED> instruction: 0x000006bc
  e0:	000006c0 	andeq	r0, r0, r0, asr #13
  e4:	000006c8 	andeq	r0, r0, r8, asr #13
	...
  f0:	00000706 	andeq	r0, r0, r6, lsl #14
  f4:	0000070e 	andeq	r0, r0, lr, lsl #14
  f8:	00000712 	andeq	r0, r0, r2, lsl r7
  fc:	00000716 	andeq	r0, r0, r6, lsl r7
	...
 108:	0000074c 	andeq	r0, r0, ip, asr #14
 10c:	00000760 	andeq	r0, r0, r0, ror #14
 110:	00000764 	andeq	r0, r0, r4, ror #14
 114:	00000768 	andeq	r0, r0, r8, ror #14
	...
 120:	000007bc 			; <UNDEFINED> instruction: 0x000007bc
 124:	000007ca 	andeq	r0, r0, sl, asr #15
 128:	00000802 	andeq	r0, r0, r2, lsl #16
 12c:	0000080c 	andeq	r0, r0, ip, lsl #16
	...
 138:	000007ca 	andeq	r0, r0, sl, asr #15
 13c:	000007ce 	andeq	r0, r0, lr, asr #15
 140:	000007f8 	strdeq	r0, [r0], -r8
 144:	00000802 	andeq	r0, r0, r2, lsl #16
	...
 150:	000007d2 	ldrdeq	r0, [r0], -r2
 154:	000007d6 	ldrdeq	r0, [r0], -r6
 158:	0000080c 	andeq	r0, r0, ip, lsl #16
 15c:	00000814 	andeq	r0, r0, r4, lsl r8
	...
 168:	000007d6 	ldrdeq	r0, [r0], -r6
 16c:	000007da 	ldrdeq	r0, [r0], -sl
 170:	000007dc 	ldrdeq	r0, [r0], -ip
 174:	000007ea 	andeq	r0, r0, sl, ror #15
	...
 180:	00000846 	andeq	r0, r0, r6, asr #16
 184:	0000084a 	andeq	r0, r0, sl, asr #16
 188:	00000852 	andeq	r0, r0, r2, asr r8
 18c:	00000856 	andeq	r0, r0, r6, asr r8
 190:	00000880 	andeq	r0, r0, r0, lsl #17
 194:	00000884 	andeq	r0, r0, r4, lsl #17
 198:	00000888 	andeq	r0, r0, r8, lsl #17
 19c:	0000088e 	andeq	r0, r0, lr, lsl #17
	...
 1a8:	00000868 	andeq	r0, r0, r8, ror #16
 1ac:	0000086a 	andeq	r0, r0, sl, ror #16
 1b0:	0000088e 	andeq	r0, r0, lr, lsl #17
 1b4:	0000089e 	muleq	r0, lr, r8
	...
 1c0:	0000089e 	muleq	r0, lr, r8
 1c4:	000008a0 	andeq	r0, r0, r0, lsr #17
 1c8:	000008a4 	andeq	r0, r0, r4, lsr #17
 1cc:	000008b2 			; <UNDEFINED> instruction: 0x000008b2
	...
 1d8:	000008d2 	ldrdeq	r0, [r0], -r2
 1dc:	000008d4 	ldrdeq	r0, [r0], -r4
 1e0:	000008fc 	strdeq	r0, [r0], -ip
 1e4:	00000910 	andeq	r0, r0, r0, lsl r9
	...
 1f0:	000008d4 	ldrdeq	r0, [r0], -r4
 1f4:	000008da 	ldrdeq	r0, [r0], -sl
 1f8:	000008dc 	ldrdeq	r0, [r0], -ip
 1fc:	000008e2 	andeq	r0, r0, r2, ror #17
	...
 208:	00000944 	andeq	r0, r0, r4, asr #18
 20c:	00000952 	andeq	r0, r0, r2, asr r9
 210:	0000095c 	andeq	r0, r0, ip, asr r9
 214:	00000960 	andeq	r0, r0, r0, ror #18
 218:	00000964 	andeq	r0, r0, r4, ror #18
 21c:	0000096a 	andeq	r0, r0, sl, ror #18
	...
 228:	0000096a 	andeq	r0, r0, sl, ror #18
 22c:	00000972 	andeq	r0, r0, r2, ror r9
 230:	000009e2 	andeq	r0, r0, r2, ror #19
 234:	000009f0 	strdeq	r0, [r0], -r0	; <UNPREDICTABLE>
	...
 240:	0000097c 	andeq	r0, r0, ip, ror r9
 244:	00000980 	andeq	r0, r0, r0, lsl #19
 248:	00000982 	andeq	r0, r0, r2, lsl #19
 24c:	00000984 	andeq	r0, r0, r4, lsl #19
 250:	000009c2 	andeq	r0, r0, r2, asr #19
 254:	000009ca 	andeq	r0, r0, sl, asr #19
	...
 260:	00000990 	muleq	r0, r0, r9
 264:	00000996 	muleq	r0, r6, r9
 268:	000009ca 	andeq	r0, r0, sl, asr #19
 26c:	000009d0 	ldrdeq	r0, [r0], -r0	; <UNPREDICTABLE>
	...
 278:	000009a4 	andeq	r0, r0, r4, lsr #19
 27c:	000009a8 	andeq	r0, r0, r8, lsr #19
 280:	000009aa 	andeq	r0, r0, sl, lsr #19
 284:	000009ac 	andeq	r0, r0, ip, lsr #19
 288:	000009b4 			; <UNDEFINED> instruction: 0x000009b4
 28c:	000009c2 	andeq	r0, r0, r2, asr #19
	...
 298:	00000a50 	andeq	r0, r0, r0, asr sl
 29c:	00000a58 	andeq	r0, r0, r8, asr sl
 2a0:	00000a5a 	andeq	r0, r0, sl, asr sl
 2a4:	00000a60 	andeq	r0, r0, r0, ror #20
 2a8:	00000a8e 	andeq	r0, r0, lr, lsl #21
 2ac:	00000a94 	muleq	r0, r4, sl
	...
 2b8:	00000a62 	andeq	r0, r0, r2, ror #20
 2bc:	00000a66 	andeq	r0, r0, r6, ror #20
 2c0:	00000a94 	muleq	r0, r4, sl
 2c4:	00000a96 	muleq	r0, r6, sl
 2c8:	00000a98 	muleq	r0, r8, sl
 2cc:	00000aa6 	andeq	r0, r0, r6, lsr #21
	...
 2d8:	00000a66 	andeq	r0, r0, r6, ror #20
 2dc:	00000a6a 	andeq	r0, r0, sl, ror #20
 2e0:	00000a70 	andeq	r0, r0, r0, ror sl
 2e4:	00000a7a 	andeq	r0, r0, sl, ror sl
	...
 2f0:	00000af6 	strdeq	r0, [r0], -r6
 2f4:	00000afe 	strdeq	r0, [r0], -lr
 2f8:	00000b02 	andeq	r0, r0, r2, lsl #22
 2fc:	00000b06 	andeq	r0, r0, r6, lsl #22
	...
 308:	00000b56 	andeq	r0, r0, r6, asr fp
 30c:	00000b5e 	andeq	r0, r0, lr, asr fp
 310:	00000b62 	andeq	r0, r0, r2, ror #22
 314:	00000b66 	andeq	r0, r0, r6, ror #22
	...
 320:	00000e8e 	andeq	r0, r0, lr, lsl #29
 324:	00000e96 	muleq	r0, r6, lr
 328:	00000e9a 	muleq	r0, sl, lr
 32c:	00000e9e 	muleq	r0, lr, lr
	...
 338:	00000f78 	andeq	r0, r0, r8, ror pc
 33c:	00000f7c 	andeq	r0, r0, ip, ror pc
 340:	00000f94 	muleq	r0, r4, pc	; <UNPREDICTABLE>
 344:	00000f98 	muleq	r0, r8, pc	; <UNPREDICTABLE>
 348:	00000f9c 	muleq	r0, ip, pc	; <UNPREDICTABLE>
 34c:	00000fa8 	andeq	r0, r0, r8, lsr #31
	...
 358:	00001032 	andeq	r1, r0, r2, lsr r0
 35c:	0000103a 	andeq	r1, r0, sl, lsr r0
 360:	00001050 	andeq	r1, r0, r0, asr r0
 364:	0000105c 	andeq	r1, r0, ip, asr r0
 368:	00001130 	andeq	r1, r0, r0, lsr r1
 36c:	0000113a 	andeq	r1, r0, sl, lsr r1
	...
 378:	0000105c 	andeq	r1, r0, ip, asr r0
 37c:	0000105e 	andeq	r1, r0, lr, asr r0
 380:	0000113a 	andeq	r1, r0, sl, lsr r1
 384:	0000114a 	andeq	r1, r0, sl, asr #2
	...
 390:	0000105e 	andeq	r1, r0, lr, asr r0
 394:	00001066 	andeq	r1, r0, r6, rrx
 398:	0000114a 	andeq	r1, r0, sl, asr #2
 39c:	0000115e 	andeq	r1, r0, lr, asr r1
	...
 3a8:	00001066 	andeq	r1, r0, r6, rrx
 3ac:	00001068 	andeq	r1, r0, r8, rrx
 3b0:	00001082 	andeq	r1, r0, r2, lsl #1
 3b4:	00001086 	andeq	r1, r0, r6, lsl #1
 3b8:	0000109c 	muleq	r0, ip, r0
 3bc:	0000109e 	muleq	r0, lr, r0
 3c0:	000010a2 	andeq	r1, r0, r2, lsr #1
 3c4:	000010a4 	andeq	r1, r0, r4, lsr #1
 3c8:	000010a6 	andeq	r1, r0, r6, lsr #1
 3cc:	000010b2 	strheq	r1, [r0], -r2
 3d0:	000010f8 	strdeq	r1, [r0], -r8
 3d4:	000010fa 	strdeq	r1, [r0], -sl
	...
 3e0:	00001068 	andeq	r1, r0, r8, rrx
 3e4:	0000106c 	andeq	r1, r0, ip, rrx
 3e8:	000010b2 	strheq	r1, [r0], -r2
 3ec:	000010b8 	strheq	r1, [r0], -r8
	...
 3f8:	0000107a 	andeq	r1, r0, sl, ror r0
 3fc:	0000107e 	andeq	r1, r0, lr, ror r0
 400:	00001092 	muleq	r0, r2, r0
 404:	0000109c 	muleq	r0, ip, r0
	...
 410:	000010c2 	andeq	r1, r0, r2, asr #1
 414:	000010c4 	andeq	r1, r0, r4, asr #1
 418:	000010d2 	ldrdeq	r1, [r0], -r2
 41c:	000010de 	ldrdeq	r1, [r0], -lr
	...
 428:	000010c8 	andeq	r1, r0, r8, asr #1
 42c:	000010ca 	andeq	r1, r0, sl, asr #1
 430:	000010e2 	andeq	r1, r0, r2, ror #1
 434:	000010e4 	andeq	r1, r0, r4, ror #1
 438:	000010e6 	andeq	r1, r0, r6, ror #1
 43c:	000010f0 	strdeq	r1, [r0], -r0
	...
 448:	00001282 	andeq	r1, r0, r2, lsl #5
 44c:	000012ce 	andeq	r1, r0, lr, asr #5
 450:	0000131a 	andeq	r1, r0, sl, lsl r3
 454:	00001338 	andeq	r1, r0, r8, lsr r3
 458:	0000133c 	andeq	r1, r0, ip, lsr r3
 45c:	00001340 	andeq	r1, r0, r0, asr #6
	...
 468:	000012a6 	andeq	r1, r0, r6, lsr #5
 46c:	000012a8 	andeq	r1, r0, r8, lsr #5
 470:	000012b2 			; <UNDEFINED> instruction: 0x000012b2
 474:	000012b4 			; <UNDEFINED> instruction: 0x000012b4
 478:	000012b6 			; <UNDEFINED> instruction: 0x000012b6
 47c:	000012ba 			; <UNDEFINED> instruction: 0x000012ba
 480:	0000131e 	andeq	r1, r0, lr, lsl r3
 484:	00001324 	andeq	r1, r0, r4, lsr #6
	...
 490:	000012c6 	andeq	r1, r0, r6, asr #5
 494:	000012ce 	andeq	r1, r0, lr, asr #5
 498:	00001326 	andeq	r1, r0, r6, lsr #6
 49c:	00001328 	andeq	r1, r0, r8, lsr #6
 4a0:	00001332 	andeq	r1, r0, r2, lsr r3
 4a4:	00001338 	andeq	r1, r0, r8, lsr r3
 4a8:	0000133c 	andeq	r1, r0, ip, lsr r3
 4ac:	00001340 	andeq	r1, r0, r0, asr #6
	...
 4b8:	000012ec 	andeq	r1, r0, ip, ror #5
 4bc:	000012f2 	strdeq	r1, [r0], -r2
 4c0:	00001302 	andeq	r1, r0, r2, lsl #6
 4c4:	00001306 	andeq	r1, r0, r6, lsl #6
	...
 4d0:	00001358 	andeq	r1, r0, r8, asr r3
 4d4:	00001372 	andeq	r1, r0, r2, ror r3
 4d8:	00001376 	andeq	r1, r0, r6, ror r3
 4dc:	00001380 	andeq	r1, r0, r0, lsl #7
	...
 4e8:	00001380 	andeq	r1, r0, r0, lsl #7
 4ec:	00001382 	andeq	r1, r0, r2, lsl #7
 4f0:	00001386 	andeq	r1, r0, r6, lsl #7
 4f4:	0000138a 	andeq	r1, r0, sl, lsl #7
	...
 500:	00001514 	andeq	r1, r0, r4, lsl r5
 504:	00001518 	andeq	r1, r0, r8, lsl r5
 508:	00001528 	andeq	r1, r0, r8, lsr #10
 50c:	0000152c 	andeq	r1, r0, ip, lsr #10
 510:	00001530 	andeq	r1, r0, r0, lsr r5
 514:	00001548 	andeq	r1, r0, r8, asr #10
	...
 520:	00001554 	andeq	r1, r0, r4, asr r5
 524:	00001558 	andeq	r1, r0, r8, asr r5
 528:	00001566 	andeq	r1, r0, r6, ror #10
 52c:	00001574 	andeq	r1, r0, r4, ror r5
	...
 538:	0000159a 	muleq	r0, sl, r5
 53c:	000015a4 	andeq	r1, r0, r4, lsr #11
 540:	000015dc 	ldrdeq	r1, [r0], -ip
 544:	000015e2 	andeq	r1, r0, r2, ror #11
	...
 550:	000015b2 			; <UNDEFINED> instruction: 0x000015b2
 554:	000015b6 			; <UNDEFINED> instruction: 0x000015b6
 558:	000015cc 	andeq	r1, r0, ip, asr #11
 55c:	000015dc 	ldrdeq	r1, [r0], -ip
	...
 568:	00001684 	andeq	r1, r0, r4, lsl #13
 56c:	00001686 	andeq	r1, r0, r6, lsl #13
 570:	00001696 	muleq	r0, r6, r6
 574:	000016a0 	andeq	r1, r0, r0, lsr #13
 578:	000016a2 	andeq	r1, r0, r2, lsr #13
 57c:	000016a6 	andeq	r1, r0, r6, lsr #13
 580:	000016aa 	andeq	r1, r0, sl, lsr #13
 584:	000016ac 	andeq	r1, r0, ip, lsr #13
 588:	000016b0 			; <UNDEFINED> instruction: 0x000016b0
 58c:	000016b6 			; <UNDEFINED> instruction: 0x000016b6
	...
 598:	000016a0 	andeq	r1, r0, r0, lsr #13
 59c:	000016a2 	andeq	r1, r0, r2, lsr #13
 5a0:	000016a6 	andeq	r1, r0, r6, lsr #13
 5a4:	000016aa 	andeq	r1, r0, sl, lsr #13
 5a8:	000016ac 	andeq	r1, r0, ip, lsr #13
 5ac:	000016b0 			; <UNDEFINED> instruction: 0x000016b0
 5b0:	000016b6 			; <UNDEFINED> instruction: 0x000016b6
 5b4:	000016c2 	andeq	r1, r0, r2, asr #13
	...
 5c0:	00001728 	andeq	r1, r0, r8, lsr #14
 5c4:	00001730 	andeq	r1, r0, r0, lsr r7
 5c8:	00001732 	andeq	r1, r0, r2, lsr r7
 5cc:	0000173a 	andeq	r1, r0, sl, lsr r7
 5d0:	00001756 	andeq	r1, r0, r6, asr r7
 5d4:	0000175a 	andeq	r1, r0, sl, asr r7
 5d8:	0000175e 	andeq	r1, r0, lr, asr r7
 5dc:	00001762 	andeq	r1, r0, r2, ror #14
	...
 5e8:	00001794 	muleq	r0, r4, r7
 5ec:	000017a0 	andeq	r1, r0, r0, lsr #15
 5f0:	000017a4 	andeq	r1, r0, r4, lsr #15
 5f4:	000017a6 	andeq	r1, r0, r6, lsr #15
 5f8:	000017c2 	andeq	r1, r0, r2, asr #15
 5fc:	000017c6 	andeq	r1, r0, r6, asr #15
 600:	000017ca 	andeq	r1, r0, sl, asr #15
 604:	000017ce 	andeq	r1, r0, lr, asr #15
	...
 610:	000017b2 			; <UNDEFINED> instruction: 0x000017b2
 614:	000017c2 	andeq	r1, r0, r2, asr #15
 618:	000017ce 	andeq	r1, r0, lr, asr #15
 61c:	000017d2 	ldrdeq	r1, [r0], -r2
 620:	000017d6 	ldrdeq	r1, [r0], -r6
 624:	000017da 	ldrdeq	r1, [r0], -sl
	...
 630:	000017f4 	strdeq	r1, [r0], -r4
 634:	00001800 	andeq	r1, r0, r0, lsl #16
 638:	00001804 	andeq	r1, r0, r4, lsl #16
 63c:	00001806 	andeq	r1, r0, r6, lsl #16
 640:	00001822 	andeq	r1, r0, r2, lsr #16
 644:	00001826 	andeq	r1, r0, r6, lsr #16
 648:	0000182a 	andeq	r1, r0, sl, lsr #16
 64c:	0000182e 	andeq	r1, r0, lr, lsr #16
	...
 658:	00001812 	andeq	r1, r0, r2, lsl r8
 65c:	00001822 	andeq	r1, r0, r2, lsr #16
 660:	0000182e 	andeq	r1, r0, lr, lsr #16
 664:	00001832 	andeq	r1, r0, r2, lsr r8
 668:	00001836 	andeq	r1, r0, r6, lsr r8
 66c:	0000183a 	andeq	r1, r0, sl, lsr r8
	...
 678:	00001934 	andeq	r1, r0, r4, lsr r9
 67c:	00001964 	andeq	r1, r0, r4, ror #18
 680:	00001a82 	andeq	r1, r0, r2, lsl #21
 684:	00001ada 	ldrdeq	r1, [r0], -sl
	...
 690:	00001968 	andeq	r1, r0, r8, ror #18
 694:	0000196c 	andeq	r1, r0, ip, ror #18
 698:	00001970 	andeq	r1, r0, r0, ror r9
 69c:	00001980 	andeq	r1, r0, r0, lsl #19
	...
